   1              		.cpu cortex-m3
   2              		.eabi_attribute 20, 1
   3              		.eabi_attribute 21, 1
   4              		.eabi_attribute 23, 3
   5              		.eabi_attribute 24, 1
   6              		.eabi_attribute 25, 1
   7              		.eabi_attribute 26, 1
   8              		.eabi_attribute 30, 2
   9              		.eabi_attribute 34, 1
  10              		.eabi_attribute 18, 4
  11              		.file	"stm32f10x_usart.c"
  12              		.text
  13              	.Ltext0:
  14              		.cfi_sections	.debug_frame
  15              		.section	.text.USART_DeInit,"ax",%progbits
  16              		.align	1
  17              		.p2align 2,,3
  18              		.global	USART_DeInit
  19              		.syntax unified
  20              		.thumb
  21              		.thumb_func
  22              		.fpu softvfp
  24              	USART_DeInit:
  25              	.LFB29:
  26              		.file 1 "Libraries/STM32F10x_StdPeriph_Driver/src/stm32f10x_usart.c"
   1:Libraries/STM32F10x_StdPeriph_Driver/src/stm32f10x_usart.c **** /**
   2:Libraries/STM32F10x_StdPeriph_Driver/src/stm32f10x_usart.c ****   ******************************************************************************
   3:Libraries/STM32F10x_StdPeriph_Driver/src/stm32f10x_usart.c ****   * @file    stm32f10x_usart.c
   4:Libraries/STM32F10x_StdPeriph_Driver/src/stm32f10x_usart.c ****   * @author  MCD Application Team
   5:Libraries/STM32F10x_StdPeriph_Driver/src/stm32f10x_usart.c ****   * @version V3.3.0
   6:Libraries/STM32F10x_StdPeriph_Driver/src/stm32f10x_usart.c ****   * @date    04/16/2010
   7:Libraries/STM32F10x_StdPeriph_Driver/src/stm32f10x_usart.c ****   * @brief   This file provides all the USART firmware functions.
   8:Libraries/STM32F10x_StdPeriph_Driver/src/stm32f10x_usart.c ****   ******************************************************************************
   9:Libraries/STM32F10x_StdPeriph_Driver/src/stm32f10x_usart.c ****   * @copy
  10:Libraries/STM32F10x_StdPeriph_Driver/src/stm32f10x_usart.c ****   *
  11:Libraries/STM32F10x_StdPeriph_Driver/src/stm32f10x_usart.c ****   * THE PRESENT FIRMWARE WHICH IS FOR GUIDANCE ONLY AIMS AT PROVIDING CUSTOMERS
  12:Libraries/STM32F10x_StdPeriph_Driver/src/stm32f10x_usart.c ****   * WITH CODING INFORMATION REGARDING THEIR PRODUCTS IN ORDER FOR THEM TO SAVE
  13:Libraries/STM32F10x_StdPeriph_Driver/src/stm32f10x_usart.c ****   * TIME. AS A RESULT, STMICROELECTRONICS SHALL NOT BE HELD LIABLE FOR ANY
  14:Libraries/STM32F10x_StdPeriph_Driver/src/stm32f10x_usart.c ****   * DIRECT, INDIRECT OR CONSEQUENTIAL DAMAGES WITH RESPECT TO ANY CLAIMS ARISING
  15:Libraries/STM32F10x_StdPeriph_Driver/src/stm32f10x_usart.c ****   * FROM THE CONTENT OF SUCH FIRMWARE AND/OR THE USE MADE BY CUSTOMERS OF THE
  16:Libraries/STM32F10x_StdPeriph_Driver/src/stm32f10x_usart.c ****   * CODING INFORMATION CONTAINED HEREIN IN CONNECTION WITH THEIR PRODUCTS.
  17:Libraries/STM32F10x_StdPeriph_Driver/src/stm32f10x_usart.c ****   *
  18:Libraries/STM32F10x_StdPeriph_Driver/src/stm32f10x_usart.c ****   * <h2><center>&copy; COPYRIGHT 2010 STMicroelectronics</center></h2>
  19:Libraries/STM32F10x_StdPeriph_Driver/src/stm32f10x_usart.c ****   */ 
  20:Libraries/STM32F10x_StdPeriph_Driver/src/stm32f10x_usart.c **** 
  21:Libraries/STM32F10x_StdPeriph_Driver/src/stm32f10x_usart.c **** /* Includes ------------------------------------------------------------------*/
  22:Libraries/STM32F10x_StdPeriph_Driver/src/stm32f10x_usart.c **** #include "stm32f10x_usart.h"
  23:Libraries/STM32F10x_StdPeriph_Driver/src/stm32f10x_usart.c **** #include "stm32f10x_rcc.h"
  24:Libraries/STM32F10x_StdPeriph_Driver/src/stm32f10x_usart.c **** 
  25:Libraries/STM32F10x_StdPeriph_Driver/src/stm32f10x_usart.c **** /** @addtogroup STM32F10x_StdPeriph_Driver
  26:Libraries/STM32F10x_StdPeriph_Driver/src/stm32f10x_usart.c ****   * @{
  27:Libraries/STM32F10x_StdPeriph_Driver/src/stm32f10x_usart.c ****   */
  28:Libraries/STM32F10x_StdPeriph_Driver/src/stm32f10x_usart.c **** 
  29:Libraries/STM32F10x_StdPeriph_Driver/src/stm32f10x_usart.c **** /** @defgroup USART 
  30:Libraries/STM32F10x_StdPeriph_Driver/src/stm32f10x_usart.c ****   * @brief USART driver modules
  31:Libraries/STM32F10x_StdPeriph_Driver/src/stm32f10x_usart.c ****   * @{
  32:Libraries/STM32F10x_StdPeriph_Driver/src/stm32f10x_usart.c ****   */
  33:Libraries/STM32F10x_StdPeriph_Driver/src/stm32f10x_usart.c **** 
  34:Libraries/STM32F10x_StdPeriph_Driver/src/stm32f10x_usart.c **** /** @defgroup USART_Private_TypesDefinitions
  35:Libraries/STM32F10x_StdPeriph_Driver/src/stm32f10x_usart.c ****   * @{
  36:Libraries/STM32F10x_StdPeriph_Driver/src/stm32f10x_usart.c ****   */
  37:Libraries/STM32F10x_StdPeriph_Driver/src/stm32f10x_usart.c **** 
  38:Libraries/STM32F10x_StdPeriph_Driver/src/stm32f10x_usart.c **** /**
  39:Libraries/STM32F10x_StdPeriph_Driver/src/stm32f10x_usart.c ****   * @}
  40:Libraries/STM32F10x_StdPeriph_Driver/src/stm32f10x_usart.c ****   */
  41:Libraries/STM32F10x_StdPeriph_Driver/src/stm32f10x_usart.c **** 
  42:Libraries/STM32F10x_StdPeriph_Driver/src/stm32f10x_usart.c **** /** @defgroup USART_Private_Defines
  43:Libraries/STM32F10x_StdPeriph_Driver/src/stm32f10x_usart.c ****   * @{
  44:Libraries/STM32F10x_StdPeriph_Driver/src/stm32f10x_usart.c ****   */
  45:Libraries/STM32F10x_StdPeriph_Driver/src/stm32f10x_usart.c **** 
  46:Libraries/STM32F10x_StdPeriph_Driver/src/stm32f10x_usart.c **** #define CR1_UE_Set                ((uint16_t)0x2000)  /*!< USART Enable Mask */
  47:Libraries/STM32F10x_StdPeriph_Driver/src/stm32f10x_usart.c **** #define CR1_UE_Reset              ((uint16_t)0xDFFF)  /*!< USART Disable Mask */
  48:Libraries/STM32F10x_StdPeriph_Driver/src/stm32f10x_usart.c **** 
  49:Libraries/STM32F10x_StdPeriph_Driver/src/stm32f10x_usart.c **** #define CR1_WAKE_Mask             ((uint16_t)0xF7FF)  /*!< USART WakeUp Method Mask */
  50:Libraries/STM32F10x_StdPeriph_Driver/src/stm32f10x_usart.c **** 
  51:Libraries/STM32F10x_StdPeriph_Driver/src/stm32f10x_usart.c **** #define CR1_RWU_Set               ((uint16_t)0x0002)  /*!< USART mute mode Enable Mask */
  52:Libraries/STM32F10x_StdPeriph_Driver/src/stm32f10x_usart.c **** #define CR1_RWU_Reset             ((uint16_t)0xFFFD)  /*!< USART mute mode Enable Mask */
  53:Libraries/STM32F10x_StdPeriph_Driver/src/stm32f10x_usart.c **** #define CR1_SBK_Set               ((uint16_t)0x0001)  /*!< USART Break Character send Mask */
  54:Libraries/STM32F10x_StdPeriph_Driver/src/stm32f10x_usart.c **** #define CR1_CLEAR_Mask            ((uint16_t)0xE9F3)  /*!< USART CR1 Mask */
  55:Libraries/STM32F10x_StdPeriph_Driver/src/stm32f10x_usart.c **** #define CR2_Address_Mask          ((uint16_t)0xFFF0)  /*!< USART address Mask */
  56:Libraries/STM32F10x_StdPeriph_Driver/src/stm32f10x_usart.c **** 
  57:Libraries/STM32F10x_StdPeriph_Driver/src/stm32f10x_usart.c **** #define CR2_LINEN_Set              ((uint16_t)0x4000)  /*!< USART LIN Enable Mask */
  58:Libraries/STM32F10x_StdPeriph_Driver/src/stm32f10x_usart.c **** #define CR2_LINEN_Reset            ((uint16_t)0xBFFF)  /*!< USART LIN Disable Mask */
  59:Libraries/STM32F10x_StdPeriph_Driver/src/stm32f10x_usart.c **** 
  60:Libraries/STM32F10x_StdPeriph_Driver/src/stm32f10x_usart.c **** #define CR2_LBDL_Mask             ((uint16_t)0xFFDF)  /*!< USART LIN Break detection Mask */
  61:Libraries/STM32F10x_StdPeriph_Driver/src/stm32f10x_usart.c **** #define CR2_STOP_CLEAR_Mask       ((uint16_t)0xCFFF)  /*!< USART CR2 STOP Bits Mask */
  62:Libraries/STM32F10x_StdPeriph_Driver/src/stm32f10x_usart.c **** #define CR2_CLOCK_CLEAR_Mask      ((uint16_t)0xF0FF)  /*!< USART CR2 Clock Mask */
  63:Libraries/STM32F10x_StdPeriph_Driver/src/stm32f10x_usart.c **** 
  64:Libraries/STM32F10x_StdPeriph_Driver/src/stm32f10x_usart.c **** #define CR3_SCEN_Set              ((uint16_t)0x0020)  /*!< USART SC Enable Mask */
  65:Libraries/STM32F10x_StdPeriph_Driver/src/stm32f10x_usart.c **** #define CR3_SCEN_Reset            ((uint16_t)0xFFDF)  /*!< USART SC Disable Mask */
  66:Libraries/STM32F10x_StdPeriph_Driver/src/stm32f10x_usart.c **** 
  67:Libraries/STM32F10x_StdPeriph_Driver/src/stm32f10x_usart.c **** #define CR3_NACK_Set              ((uint16_t)0x0010)  /*!< USART SC NACK Enable Mask */
  68:Libraries/STM32F10x_StdPeriph_Driver/src/stm32f10x_usart.c **** #define CR3_NACK_Reset            ((uint16_t)0xFFEF)  /*!< USART SC NACK Disable Mask */
  69:Libraries/STM32F10x_StdPeriph_Driver/src/stm32f10x_usart.c **** 
  70:Libraries/STM32F10x_StdPeriph_Driver/src/stm32f10x_usart.c **** #define CR3_HDSEL_Set             ((uint16_t)0x0008)  /*!< USART Half-Duplex Enable Mask */
  71:Libraries/STM32F10x_StdPeriph_Driver/src/stm32f10x_usart.c **** #define CR3_HDSEL_Reset           ((uint16_t)0xFFF7)  /*!< USART Half-Duplex Disable Mask */
  72:Libraries/STM32F10x_StdPeriph_Driver/src/stm32f10x_usart.c **** 
  73:Libraries/STM32F10x_StdPeriph_Driver/src/stm32f10x_usart.c **** #define CR3_IRLP_Mask             ((uint16_t)0xFFFB)  /*!< USART IrDA LowPower mode Mask */
  74:Libraries/STM32F10x_StdPeriph_Driver/src/stm32f10x_usart.c **** #define CR3_CLEAR_Mask            ((uint16_t)0xFCFF)  /*!< USART CR3 Mask */
  75:Libraries/STM32F10x_StdPeriph_Driver/src/stm32f10x_usart.c **** 
  76:Libraries/STM32F10x_StdPeriph_Driver/src/stm32f10x_usart.c **** #define CR3_IREN_Set              ((uint16_t)0x0002)  /*!< USART IrDA Enable Mask */
  77:Libraries/STM32F10x_StdPeriph_Driver/src/stm32f10x_usart.c **** #define CR3_IREN_Reset            ((uint16_t)0xFFFD)  /*!< USART IrDA Disable Mask */
  78:Libraries/STM32F10x_StdPeriph_Driver/src/stm32f10x_usart.c **** #define GTPR_LSB_Mask             ((uint16_t)0x00FF)  /*!< Guard Time Register LSB Mask */
  79:Libraries/STM32F10x_StdPeriph_Driver/src/stm32f10x_usart.c **** #define GTPR_MSB_Mask             ((uint16_t)0xFF00)  /*!< Guard Time Register MSB Mask */
  80:Libraries/STM32F10x_StdPeriph_Driver/src/stm32f10x_usart.c **** #define IT_Mask                   ((uint16_t)0x001F)  /*!< USART Interrupt Mask */
  81:Libraries/STM32F10x_StdPeriph_Driver/src/stm32f10x_usart.c **** 
  82:Libraries/STM32F10x_StdPeriph_Driver/src/stm32f10x_usart.c **** /* USART OverSampling-8 Mask */
  83:Libraries/STM32F10x_StdPeriph_Driver/src/stm32f10x_usart.c **** #define CR1_OVER8_Set             ((u16)0x8000)  /* USART OVER8 mode Enable Mask */
  84:Libraries/STM32F10x_StdPeriph_Driver/src/stm32f10x_usart.c **** #define CR1_OVER8_Reset           ((u16)0x7FFF)  /* USART OVER8 mode Disable Mask */
  85:Libraries/STM32F10x_StdPeriph_Driver/src/stm32f10x_usart.c **** 
  86:Libraries/STM32F10x_StdPeriph_Driver/src/stm32f10x_usart.c **** /* USART One Bit Sampling Mask */
  87:Libraries/STM32F10x_StdPeriph_Driver/src/stm32f10x_usart.c **** #define CR3_ONEBITE_Set           ((u16)0x0800)  /* USART ONEBITE mode Enable Mask */
  88:Libraries/STM32F10x_StdPeriph_Driver/src/stm32f10x_usart.c **** #define CR3_ONEBITE_Reset         ((u16)0xF7FF)  /* USART ONEBITE mode Disable Mask */
  89:Libraries/STM32F10x_StdPeriph_Driver/src/stm32f10x_usart.c **** 
  90:Libraries/STM32F10x_StdPeriph_Driver/src/stm32f10x_usart.c **** /**
  91:Libraries/STM32F10x_StdPeriph_Driver/src/stm32f10x_usart.c ****   * @}
  92:Libraries/STM32F10x_StdPeriph_Driver/src/stm32f10x_usart.c ****   */
  93:Libraries/STM32F10x_StdPeriph_Driver/src/stm32f10x_usart.c **** 
  94:Libraries/STM32F10x_StdPeriph_Driver/src/stm32f10x_usart.c **** /** @defgroup USART_Private_Macros
  95:Libraries/STM32F10x_StdPeriph_Driver/src/stm32f10x_usart.c ****   * @{
  96:Libraries/STM32F10x_StdPeriph_Driver/src/stm32f10x_usart.c ****   */
  97:Libraries/STM32F10x_StdPeriph_Driver/src/stm32f10x_usart.c **** 
  98:Libraries/STM32F10x_StdPeriph_Driver/src/stm32f10x_usart.c **** /**
  99:Libraries/STM32F10x_StdPeriph_Driver/src/stm32f10x_usart.c ****   * @}
 100:Libraries/STM32F10x_StdPeriph_Driver/src/stm32f10x_usart.c ****   */
 101:Libraries/STM32F10x_StdPeriph_Driver/src/stm32f10x_usart.c **** 
 102:Libraries/STM32F10x_StdPeriph_Driver/src/stm32f10x_usart.c **** /** @defgroup USART_Private_Variables
 103:Libraries/STM32F10x_StdPeriph_Driver/src/stm32f10x_usart.c ****   * @{
 104:Libraries/STM32F10x_StdPeriph_Driver/src/stm32f10x_usart.c ****   */
 105:Libraries/STM32F10x_StdPeriph_Driver/src/stm32f10x_usart.c **** 
 106:Libraries/STM32F10x_StdPeriph_Driver/src/stm32f10x_usart.c **** /**
 107:Libraries/STM32F10x_StdPeriph_Driver/src/stm32f10x_usart.c ****   * @}
 108:Libraries/STM32F10x_StdPeriph_Driver/src/stm32f10x_usart.c ****   */
 109:Libraries/STM32F10x_StdPeriph_Driver/src/stm32f10x_usart.c **** 
 110:Libraries/STM32F10x_StdPeriph_Driver/src/stm32f10x_usart.c **** /** @defgroup USART_Private_FunctionPrototypes
 111:Libraries/STM32F10x_StdPeriph_Driver/src/stm32f10x_usart.c ****   * @{
 112:Libraries/STM32F10x_StdPeriph_Driver/src/stm32f10x_usart.c ****   */
 113:Libraries/STM32F10x_StdPeriph_Driver/src/stm32f10x_usart.c **** 
 114:Libraries/STM32F10x_StdPeriph_Driver/src/stm32f10x_usart.c **** /**
 115:Libraries/STM32F10x_StdPeriph_Driver/src/stm32f10x_usart.c ****   * @}
 116:Libraries/STM32F10x_StdPeriph_Driver/src/stm32f10x_usart.c ****   */
 117:Libraries/STM32F10x_StdPeriph_Driver/src/stm32f10x_usart.c **** 
 118:Libraries/STM32F10x_StdPeriph_Driver/src/stm32f10x_usart.c **** /** @defgroup USART_Private_Functions
 119:Libraries/STM32F10x_StdPeriph_Driver/src/stm32f10x_usart.c ****   * @{
 120:Libraries/STM32F10x_StdPeriph_Driver/src/stm32f10x_usart.c ****   */
 121:Libraries/STM32F10x_StdPeriph_Driver/src/stm32f10x_usart.c **** 
 122:Libraries/STM32F10x_StdPeriph_Driver/src/stm32f10x_usart.c **** /**
 123:Libraries/STM32F10x_StdPeriph_Driver/src/stm32f10x_usart.c ****   * @brief  Deinitializes the USARTx peripheral registers to their default reset values.
 124:Libraries/STM32F10x_StdPeriph_Driver/src/stm32f10x_usart.c ****   * @param  USARTx: Select the USART or the UART peripheral. 
 125:Libraries/STM32F10x_StdPeriph_Driver/src/stm32f10x_usart.c ****   *   This parameter can be one of the following values: USART1, USART2, USART3, UART4 or UART5.
 126:Libraries/STM32F10x_StdPeriph_Driver/src/stm32f10x_usart.c ****   * @retval None
 127:Libraries/STM32F10x_StdPeriph_Driver/src/stm32f10x_usart.c ****   */
 128:Libraries/STM32F10x_StdPeriph_Driver/src/stm32f10x_usart.c **** void USART_DeInit(USART_TypeDef* USARTx)
 129:Libraries/STM32F10x_StdPeriph_Driver/src/stm32f10x_usart.c **** {
  27              		.loc 1 129 0
  28              		.cfi_startproc
  29              		@ args = 0, pretend = 0, frame = 0
  30              		@ frame_needed = 0, uses_anonymous_args = 0
  31              	.LVL0:
 130:Libraries/STM32F10x_StdPeriph_Driver/src/stm32f10x_usart.c ****   /* Check the parameters */
 131:Libraries/STM32F10x_StdPeriph_Driver/src/stm32f10x_usart.c ****   assert_param(IS_USART_ALL_PERIPH(USARTx));
  32              		.loc 1 131 0
  33 0000 2A4B     		ldr	r3, .L9
 129:Libraries/STM32F10x_StdPeriph_Driver/src/stm32f10x_usart.c ****   /* Check the parameters */
  34              		.loc 1 129 0
  35 0002 10B5     		push	{r4, lr}
  36              		.cfi_def_cfa_offset 8
  37              		.cfi_offset 4, -8
  38              		.cfi_offset 14, -4
  39              		.loc 1 131 0
  40 0004 9842     		cmp	r0, r3
  41 0006 21D0     		beq	.L2
  42              		.loc 1 131 0 is_stmt 0 discriminator 1
  43 0008 A3F57443 		sub	r3, r3, #62464
  44 000c 9842     		cmp	r0, r3
  45 000e 11D0     		beq	.L3
  46              		.loc 1 131 0 discriminator 2
  47 0010 03F58063 		add	r3, r3, #1024
  48 0014 9842     		cmp	r0, r3
  49 0016 31D0     		beq	.L4
  50              		.loc 1 131 0 discriminator 3
  51 0018 03F58063 		add	r3, r3, #1024
  52 001c 9842     		cmp	r0, r3
  53 001e 39D0     		beq	.L5
  54              		.loc 1 131 0 discriminator 4
  55 0020 03F58063 		add	r3, r3, #1024
  56 0024 9842     		cmp	r0, r3
  57 0026 1DD0     		beq	.L6
 132:Libraries/STM32F10x_StdPeriph_Driver/src/stm32f10x_usart.c **** 
 133:Libraries/STM32F10x_StdPeriph_Driver/src/stm32f10x_usart.c ****   if (USARTx == USART1)
 134:Libraries/STM32F10x_StdPeriph_Driver/src/stm32f10x_usart.c ****   {
 135:Libraries/STM32F10x_StdPeriph_Driver/src/stm32f10x_usart.c ****     RCC_APB2PeriphResetCmd(RCC_APB2Periph_USART1, ENABLE);
 136:Libraries/STM32F10x_StdPeriph_Driver/src/stm32f10x_usart.c ****     RCC_APB2PeriphResetCmd(RCC_APB2Periph_USART1, DISABLE);
 137:Libraries/STM32F10x_StdPeriph_Driver/src/stm32f10x_usart.c ****   }
 138:Libraries/STM32F10x_StdPeriph_Driver/src/stm32f10x_usart.c ****   else if (USARTx == USART2)
 139:Libraries/STM32F10x_StdPeriph_Driver/src/stm32f10x_usart.c ****   {
 140:Libraries/STM32F10x_StdPeriph_Driver/src/stm32f10x_usart.c ****     RCC_APB1PeriphResetCmd(RCC_APB1Periph_USART2, ENABLE);
 141:Libraries/STM32F10x_StdPeriph_Driver/src/stm32f10x_usart.c ****     RCC_APB1PeriphResetCmd(RCC_APB1Periph_USART2, DISABLE);
 142:Libraries/STM32F10x_StdPeriph_Driver/src/stm32f10x_usart.c ****   }
 143:Libraries/STM32F10x_StdPeriph_Driver/src/stm32f10x_usart.c ****   else if (USARTx == USART3)
 144:Libraries/STM32F10x_StdPeriph_Driver/src/stm32f10x_usart.c ****   {
 145:Libraries/STM32F10x_StdPeriph_Driver/src/stm32f10x_usart.c ****     RCC_APB1PeriphResetCmd(RCC_APB1Periph_USART3, ENABLE);
 146:Libraries/STM32F10x_StdPeriph_Driver/src/stm32f10x_usart.c ****     RCC_APB1PeriphResetCmd(RCC_APB1Periph_USART3, DISABLE);
 147:Libraries/STM32F10x_StdPeriph_Driver/src/stm32f10x_usart.c ****   }    
 148:Libraries/STM32F10x_StdPeriph_Driver/src/stm32f10x_usart.c ****   else if (USARTx == UART4)
 149:Libraries/STM32F10x_StdPeriph_Driver/src/stm32f10x_usart.c ****   {
 150:Libraries/STM32F10x_StdPeriph_Driver/src/stm32f10x_usart.c ****     RCC_APB1PeriphResetCmd(RCC_APB1Periph_UART4, ENABLE);
 151:Libraries/STM32F10x_StdPeriph_Driver/src/stm32f10x_usart.c ****     RCC_APB1PeriphResetCmd(RCC_APB1Periph_UART4, DISABLE);
 152:Libraries/STM32F10x_StdPeriph_Driver/src/stm32f10x_usart.c ****   }    
 153:Libraries/STM32F10x_StdPeriph_Driver/src/stm32f10x_usart.c ****   else
 154:Libraries/STM32F10x_StdPeriph_Driver/src/stm32f10x_usart.c ****   {
 155:Libraries/STM32F10x_StdPeriph_Driver/src/stm32f10x_usart.c ****     if (USARTx == UART5)
 156:Libraries/STM32F10x_StdPeriph_Driver/src/stm32f10x_usart.c ****     { 
 157:Libraries/STM32F10x_StdPeriph_Driver/src/stm32f10x_usart.c ****       RCC_APB1PeriphResetCmd(RCC_APB1Periph_UART5, ENABLE);
 158:Libraries/STM32F10x_StdPeriph_Driver/src/stm32f10x_usart.c ****       RCC_APB1PeriphResetCmd(RCC_APB1Periph_UART5, DISABLE);
 159:Libraries/STM32F10x_StdPeriph_Driver/src/stm32f10x_usart.c ****     }
 160:Libraries/STM32F10x_StdPeriph_Driver/src/stm32f10x_usart.c ****   }
 161:Libraries/STM32F10x_StdPeriph_Driver/src/stm32f10x_usart.c **** }
  58              		.loc 1 161 0 is_stmt 1 discriminator 5
  59 0028 BDE81040 		pop	{r4, lr}
  60              		.cfi_remember_state
  61              		.cfi_restore 14
  62              		.cfi_restore 4
  63              		.cfi_def_cfa_offset 0
 131:Libraries/STM32F10x_StdPeriph_Driver/src/stm32f10x_usart.c **** 
  64              		.loc 1 131 0 discriminator 5
  65 002c 8321     		movs	r1, #131
  66 002e 2048     		ldr	r0, .L9+4
  67              	.LVL1:
  68 0030 204B     		ldr	r3, .L9+8
  69 0032 1847     		bx	r3
  70              	.LVL2:
  71              	.L3:
  72              		.cfi_restore_state
 140:Libraries/STM32F10x_StdPeriph_Driver/src/stm32f10x_usart.c ****     RCC_APB1PeriphResetCmd(RCC_APB1Periph_USART2, DISABLE);
  73              		.loc 1 140 0
  74 0034 204C     		ldr	r4, .L9+12
  75 0036 0121     		movs	r1, #1
  76 0038 4FF40030 		mov	r0, #131072
  77              	.LVL3:
  78 003c A047     		blx	r4
  79              	.LVL4:
 141:Libraries/STM32F10x_StdPeriph_Driver/src/stm32f10x_usart.c ****   }
  80              		.loc 1 141 0
  81 003e 2346     		mov	r3, r4
  82              		.loc 1 161 0
  83 0040 BDE81040 		pop	{r4, lr}
  84              		.cfi_remember_state
  85              		.cfi_restore 14
  86              		.cfi_restore 4
  87              		.cfi_def_cfa_offset 0
 141:Libraries/STM32F10x_StdPeriph_Driver/src/stm32f10x_usart.c ****   }
  88              		.loc 1 141 0
  89 0044 0021     		movs	r1, #0
  90 0046 4FF40030 		mov	r0, #131072
  91 004a 1847     		bx	r3	@ indirect register sibling call
  92              	.LVL5:
  93              	.L2:
  94              		.cfi_restore_state
 135:Libraries/STM32F10x_StdPeriph_Driver/src/stm32f10x_usart.c ****     RCC_APB2PeriphResetCmd(RCC_APB2Periph_USART1, DISABLE);
  95              		.loc 1 135 0
  96 004c 1B4C     		ldr	r4, .L9+16
  97 004e 0121     		movs	r1, #1
  98 0050 4FF48040 		mov	r0, #16384
  99              	.LVL6:
 100 0054 A047     		blx	r4
 101              	.LVL7:
 136:Libraries/STM32F10x_StdPeriph_Driver/src/stm32f10x_usart.c ****   }
 102              		.loc 1 136 0
 103 0056 2346     		mov	r3, r4
 104              		.loc 1 161 0
 105 0058 BDE81040 		pop	{r4, lr}
 106              		.cfi_remember_state
 107              		.cfi_restore 14
 108              		.cfi_restore 4
 109              		.cfi_def_cfa_offset 0
 136:Libraries/STM32F10x_StdPeriph_Driver/src/stm32f10x_usart.c ****   }
 110              		.loc 1 136 0
 111 005c 0021     		movs	r1, #0
 112 005e 4FF48040 		mov	r0, #16384
 113 0062 1847     		bx	r3	@ indirect register sibling call
 114              	.LVL8:
 115              	.L6:
 116              		.cfi_restore_state
 157:Libraries/STM32F10x_StdPeriph_Driver/src/stm32f10x_usart.c ****       RCC_APB1PeriphResetCmd(RCC_APB1Periph_UART5, DISABLE);
 117              		.loc 1 157 0
 118 0064 144C     		ldr	r4, .L9+12
 119 0066 0121     		movs	r1, #1
 120 0068 4FF48010 		mov	r0, #1048576
 121              	.LVL9:
 122 006c A047     		blx	r4
 123              	.LVL10:
 158:Libraries/STM32F10x_StdPeriph_Driver/src/stm32f10x_usart.c ****     }
 124              		.loc 1 158 0
 125 006e 2346     		mov	r3, r4
 126              		.loc 1 161 0
 127 0070 BDE81040 		pop	{r4, lr}
 128              		.cfi_remember_state
 129              		.cfi_restore 14
 130              		.cfi_restore 4
 131              		.cfi_def_cfa_offset 0
 158:Libraries/STM32F10x_StdPeriph_Driver/src/stm32f10x_usart.c ****     }
 132              		.loc 1 158 0
 133 0074 0021     		movs	r1, #0
 134 0076 4FF48010 		mov	r0, #1048576
 135 007a 1847     		bx	r3	@ indirect register sibling call
 136              	.LVL11:
 137              	.L4:
 138              		.cfi_restore_state
 145:Libraries/STM32F10x_StdPeriph_Driver/src/stm32f10x_usart.c ****     RCC_APB1PeriphResetCmd(RCC_APB1Periph_USART3, DISABLE);
 139              		.loc 1 145 0
 140 007c 0E4C     		ldr	r4, .L9+12
 141 007e 0121     		movs	r1, #1
 142 0080 4FF48020 		mov	r0, #262144
 143              	.LVL12:
 144 0084 A047     		blx	r4
 145              	.LVL13:
 146:Libraries/STM32F10x_StdPeriph_Driver/src/stm32f10x_usart.c ****   }    
 146              		.loc 1 146 0
 147 0086 2346     		mov	r3, r4
 148              		.loc 1 161 0
 149 0088 BDE81040 		pop	{r4, lr}
 150              		.cfi_remember_state
 151              		.cfi_restore 14
 152              		.cfi_restore 4
 153              		.cfi_def_cfa_offset 0
 146:Libraries/STM32F10x_StdPeriph_Driver/src/stm32f10x_usart.c ****   }    
 154              		.loc 1 146 0
 155 008c 0021     		movs	r1, #0
 156 008e 4FF48020 		mov	r0, #262144
 157 0092 1847     		bx	r3	@ indirect register sibling call
 158              	.LVL14:
 159              	.L5:
 160              		.cfi_restore_state
 150:Libraries/STM32F10x_StdPeriph_Driver/src/stm32f10x_usart.c ****     RCC_APB1PeriphResetCmd(RCC_APB1Periph_UART4, DISABLE);
 161              		.loc 1 150 0
 162 0094 084C     		ldr	r4, .L9+12
 163 0096 0121     		movs	r1, #1
 164 0098 4FF40020 		mov	r0, #524288
 165              	.LVL15:
 166 009c A047     		blx	r4
 167              	.LVL16:
 151:Libraries/STM32F10x_StdPeriph_Driver/src/stm32f10x_usart.c ****   }    
 168              		.loc 1 151 0
 169 009e 2346     		mov	r3, r4
 170              		.loc 1 161 0
 171 00a0 BDE81040 		pop	{r4, lr}
 172              		.cfi_restore 14
 173              		.cfi_restore 4
 174              		.cfi_def_cfa_offset 0
 151:Libraries/STM32F10x_StdPeriph_Driver/src/stm32f10x_usart.c ****   }    
 175              		.loc 1 151 0
 176 00a4 0021     		movs	r1, #0
 177 00a6 4FF40020 		mov	r0, #524288
 178 00aa 1847     		bx	r3	@ indirect register sibling call
 179              	.LVL17:
 180              	.L10:
 181              		.align	2
 182              	.L9:
 183 00ac 00380140 		.word	1073821696
 184 00b0 00000000 		.word	.LC0
 185 00b4 00000000 		.word	assert_failed
 186 00b8 00000000 		.word	RCC_APB1PeriphResetCmd
 187 00bc 00000000 		.word	RCC_APB2PeriphResetCmd
 188              		.cfi_endproc
 189              	.LFE29:
 191              		.section	.text.USART_Init,"ax",%progbits
 192              		.align	1
 193              		.p2align 2,,3
 194              		.global	USART_Init
 195              		.syntax unified
 196              		.thumb
 197              		.thumb_func
 198              		.fpu softvfp
 200              	USART_Init:
 201              	.LFB30:
 162:Libraries/STM32F10x_StdPeriph_Driver/src/stm32f10x_usart.c **** 
 163:Libraries/STM32F10x_StdPeriph_Driver/src/stm32f10x_usart.c **** /**
 164:Libraries/STM32F10x_StdPeriph_Driver/src/stm32f10x_usart.c ****   * @brief  Initializes the USARTx peripheral according to the specified
 165:Libraries/STM32F10x_StdPeriph_Driver/src/stm32f10x_usart.c ****   *   parameters in the USART_InitStruct .
 166:Libraries/STM32F10x_StdPeriph_Driver/src/stm32f10x_usart.c ****   * @param  USARTx: Select the USART or the UART peripheral. 
 167:Libraries/STM32F10x_StdPeriph_Driver/src/stm32f10x_usart.c ****   *   This parameter can be one of the following values:
 168:Libraries/STM32F10x_StdPeriph_Driver/src/stm32f10x_usart.c ****   *   USART1, USART2, USART3, UART4 or UART5.
 169:Libraries/STM32F10x_StdPeriph_Driver/src/stm32f10x_usart.c ****   * @param  USART_InitStruct: pointer to a USART_InitTypeDef structure
 170:Libraries/STM32F10x_StdPeriph_Driver/src/stm32f10x_usart.c ****   *   that contains the configuration information for the specified USART peripheral.
 171:Libraries/STM32F10x_StdPeriph_Driver/src/stm32f10x_usart.c ****   * @retval None
 172:Libraries/STM32F10x_StdPeriph_Driver/src/stm32f10x_usart.c ****   */
 173:Libraries/STM32F10x_StdPeriph_Driver/src/stm32f10x_usart.c **** void USART_Init(USART_TypeDef* USARTx, USART_InitTypeDef* USART_InitStruct)
 174:Libraries/STM32F10x_StdPeriph_Driver/src/stm32f10x_usart.c **** {
 202              		.loc 1 174 0
 203              		.cfi_startproc
 204              		@ args = 0, pretend = 0, frame = 24
 205              		@ frame_needed = 0, uses_anonymous_args = 0
 206              	.LVL18:
 207 0000 70B5     		push	{r4, r5, r6, lr}
 208              		.cfi_def_cfa_offset 16
 209              		.cfi_offset 4, -16
 210              		.cfi_offset 5, -12
 211              		.cfi_offset 6, -8
 212              		.cfi_offset 14, -4
 175:Libraries/STM32F10x_StdPeriph_Driver/src/stm32f10x_usart.c ****   uint32_t tmpreg = 0x00, apbclock = 0x00;
 176:Libraries/STM32F10x_StdPeriph_Driver/src/stm32f10x_usart.c ****   uint32_t integerdivider = 0x00;
 177:Libraries/STM32F10x_StdPeriph_Driver/src/stm32f10x_usart.c ****   uint32_t fractionaldivider = 0x00;
 178:Libraries/STM32F10x_StdPeriph_Driver/src/stm32f10x_usart.c ****   uint32_t usartxbase = 0;
 179:Libraries/STM32F10x_StdPeriph_Driver/src/stm32f10x_usart.c ****   RCC_ClocksTypeDef RCC_ClocksStatus;
 180:Libraries/STM32F10x_StdPeriph_Driver/src/stm32f10x_usart.c ****   /* Check the parameters */
 181:Libraries/STM32F10x_StdPeriph_Driver/src/stm32f10x_usart.c ****   assert_param(IS_USART_ALL_PERIPH(USARTx));
 213              		.loc 1 181 0
 214 0002 604B     		ldr	r3, .L52
 174:Libraries/STM32F10x_StdPeriph_Driver/src/stm32f10x_usart.c ****   uint32_t tmpreg = 0x00, apbclock = 0x00;
 215              		.loc 1 174 0
 216 0004 86B0     		sub	sp, sp, #24
 217              		.cfi_def_cfa_offset 40
 218              		.loc 1 181 0
 219 0006 9842     		cmp	r0, r3
 174:Libraries/STM32F10x_StdPeriph_Driver/src/stm32f10x_usart.c ****   uint32_t tmpreg = 0x00, apbclock = 0x00;
 220              		.loc 1 174 0
 221 0008 0446     		mov	r4, r0
 222 000a 0D46     		mov	r5, r1
 223              		.loc 1 181 0
 224 000c 13D0     		beq	.L12
 225              		.loc 1 181 0 is_stmt 0 discriminator 1
 226 000e A3F57443 		sub	r3, r3, #62464
 227 0012 9842     		cmp	r0, r3
 228 0014 0FD0     		beq	.L12
 229              		.loc 1 181 0 discriminator 2
 230 0016 03F58063 		add	r3, r3, #1024
 231 001a 9842     		cmp	r0, r3
 232 001c 0BD0     		beq	.L12
 233              		.loc 1 181 0 discriminator 3
 234 001e 03F58063 		add	r3, r3, #1024
 235 0022 9842     		cmp	r0, r3
 236 0024 07D0     		beq	.L12
 237              		.loc 1 181 0 discriminator 4
 238 0026 03F58063 		add	r3, r3, #1024
 239 002a 9842     		cmp	r0, r3
 240 002c 03D0     		beq	.L12
 241              		.loc 1 181 0 discriminator 5
 242 002e B521     		movs	r1, #181
 243              	.LVL19:
 244 0030 5548     		ldr	r0, .L52+4
 245              	.LVL20:
 246 0032 564B     		ldr	r3, .L52+8
 247 0034 9847     		blx	r3
 248              	.LVL21:
 249              	.L12:
 182:Libraries/STM32F10x_StdPeriph_Driver/src/stm32f10x_usart.c ****   assert_param(IS_USART_BAUDRATE(USART_InitStruct->USART_BaudRate));  
 250              		.loc 1 182 0 is_stmt 1
 251 0036 2B68     		ldr	r3, [r5]
 252 0038 554A     		ldr	r2, .L52+12
 253 003a 013B     		subs	r3, r3, #1
 254 003c 9342     		cmp	r3, r2
 255 003e 00F28A80 		bhi	.L49
 256              	.L13:
 183:Libraries/STM32F10x_StdPeriph_Driver/src/stm32f10x_usart.c ****   assert_param(IS_USART_WORD_LENGTH(USART_InitStruct->USART_WordLength));
 257              		.loc 1 183 0
 258 0042 AB88     		ldrh	r3, [r5, #4]
 259 0044 23F48053 		bic	r3, r3, #4096
 260 0048 1BB1     		cbz	r3, .L14
 261              		.loc 1 183 0 is_stmt 0 discriminator 2
 262 004a B721     		movs	r1, #183
 263 004c 4E48     		ldr	r0, .L52+4
 264 004e 4F4B     		ldr	r3, .L52+8
 265 0050 9847     		blx	r3
 266              	.LVL22:
 267              	.L14:
 184:Libraries/STM32F10x_StdPeriph_Driver/src/stm32f10x_usart.c ****   assert_param(IS_USART_STOPBITS(USART_InitStruct->USART_StopBits));
 268              		.loc 1 184 0 is_stmt 1
 269 0052 EB88     		ldrh	r3, [r5, #6]
 270 0054 23F44053 		bic	r3, r3, #12288
 271 0058 1BB1     		cbz	r3, .L15
 272              		.loc 1 184 0 is_stmt 0 discriminator 4
 273 005a B821     		movs	r1, #184
 274 005c 4A48     		ldr	r0, .L52+4
 275 005e 4B4B     		ldr	r3, .L52+8
 276 0060 9847     		blx	r3
 277              	.LVL23:
 278              	.L15:
 185:Libraries/STM32F10x_StdPeriph_Driver/src/stm32f10x_usart.c ****   assert_param(IS_USART_PARITY(USART_InitStruct->USART_Parity));
 279              		.loc 1 185 0 is_stmt 1
 280 0062 2B89     		ldrh	r3, [r5, #8]
 281 0064 23F48062 		bic	r2, r3, #1024
 282 0068 1AB1     		cbz	r2, .L16
 283              		.loc 1 185 0 is_stmt 0 discriminator 2
 284 006a B3F5C06F 		cmp	r3, #1536
 285 006e 40F08380 		bne	.L50
 286              	.L16:
 186:Libraries/STM32F10x_StdPeriph_Driver/src/stm32f10x_usart.c ****   assert_param(IS_USART_MODE(USART_InitStruct->USART_Mode));
 287              		.loc 1 186 0 is_stmt 1
 288 0072 6B89     		ldrh	r3, [r5, #10]
 289 0074 23F00C02 		bic	r2, r3, #12
 290 0078 002A     		cmp	r2, #0
 291 007a 65D1     		bne	.L17
 292              		.loc 1 186 0 is_stmt 0 discriminator 2
 293 007c 002B     		cmp	r3, #0
 294 007e 63D0     		beq	.L17
 295              	.L18:
 187:Libraries/STM32F10x_StdPeriph_Driver/src/stm32f10x_usart.c ****   assert_param(IS_USART_HARDWARE_FLOW_CONTROL(USART_InitStruct->USART_HardwareFlowControl));
 296              		.loc 1 187 0 is_stmt 1
 297 0080 AB89     		ldrh	r3, [r5, #12]
 298 0082 1A46     		mov	r2, r3
 299 0084 EBB1     		cbz	r3, .L19
 300              		.loc 1 187 0 is_stmt 0 discriminator 1
 301 0086 23F40072 		bic	r2, r3, #512
 302 008a B2F5807F 		cmp	r2, #256
 303 008e 09D0     		beq	.L23
 304              		.loc 1 187 0 discriminator 2
 305 0090 B3F5007F 		cmp	r3, #512
 306 0094 06D0     		beq	.L23
 307              		.loc 1 187 0 discriminator 4
 308 0096 3D4B     		ldr	r3, .L52+8
 309 0098 BB21     		movs	r1, #187
 310 009a 3B48     		ldr	r0, .L52+4
 311 009c 9847     		blx	r3
 312              	.LVL24:
 188:Libraries/STM32F10x_StdPeriph_Driver/src/stm32f10x_usart.c ****   /* The hardware flow control is available only for USART1, USART2 and USART3 */
 189:Libraries/STM32F10x_StdPeriph_Driver/src/stm32f10x_usart.c ****   if (USART_InitStruct->USART_HardwareFlowControl != USART_HardwareFlowControl_None)
 313              		.loc 1 189 0 is_stmt 1 discriminator 4
 314 009e AB89     		ldrh	r3, [r5, #12]
 315 00a0 1A46     		mov	r2, r3
 316 00a2 73B1     		cbz	r3, .L19
 317              	.L23:
 190:Libraries/STM32F10x_StdPeriph_Driver/src/stm32f10x_usart.c ****   {
 191:Libraries/STM32F10x_StdPeriph_Driver/src/stm32f10x_usart.c ****     assert_param(IS_USART_123_PERIPH(USARTx));
 318              		.loc 1 191 0
 319 00a4 374A     		ldr	r2, .L52
 320 00a6 9442     		cmp	r4, r2
 321 00a8 53D0     		beq	.L22
 322              		.loc 1 191 0 is_stmt 0 discriminator 1
 323 00aa 3A4A     		ldr	r2, .L52+16
 324 00ac 9442     		cmp	r4, r2
 325 00ae 50D0     		beq	.L22
 326              		.loc 1 191 0 discriminator 2
 327 00b0 02F58062 		add	r2, r2, #1024
 328 00b4 9442     		cmp	r4, r2
 329 00b6 4CD0     		beq	.L22
 330              		.loc 1 191 0 discriminator 3
 331 00b8 BF21     		movs	r1, #191
 332 00ba 3348     		ldr	r0, .L52+4
 333 00bc 334B     		ldr	r3, .L52+8
 334 00be 9847     		blx	r3
 335              	.LVL25:
 336 00c0 AA89     		ldrh	r2, [r5, #12]
 337              	.L19:
 338              	.LVL26:
 192:Libraries/STM32F10x_StdPeriph_Driver/src/stm32f10x_usart.c ****   }
 193:Libraries/STM32F10x_StdPeriph_Driver/src/stm32f10x_usart.c **** 
 194:Libraries/STM32F10x_StdPeriph_Driver/src/stm32f10x_usart.c ****   usartxbase = (uint32_t)USARTx;
 195:Libraries/STM32F10x_StdPeriph_Driver/src/stm32f10x_usart.c **** 
 196:Libraries/STM32F10x_StdPeriph_Driver/src/stm32f10x_usart.c **** /*---------------------------- USART CR2 Configuration -----------------------*/
 197:Libraries/STM32F10x_StdPeriph_Driver/src/stm32f10x_usart.c ****   tmpreg = USARTx->CR2;
 339              		.loc 1 197 0 is_stmt 1
 340 00c2 238A     		ldrh	r3, [r4, #16]
 341 00c4 E988     		ldrh	r1, [r5, #6]
 342 00c6 9BB2     		uxth	r3, r3
 343              	.LVL27:
 344 00c8 23F44053 		bic	r3, r3, #12288
 345              	.LVL28:
 346 00cc 0B43     		orrs	r3, r3, r1
 347              	.LVL29:
 198:Libraries/STM32F10x_StdPeriph_Driver/src/stm32f10x_usart.c ****   /* Clear STOP[13:12] bits */
 199:Libraries/STM32F10x_StdPeriph_Driver/src/stm32f10x_usart.c ****   tmpreg &= CR2_STOP_CLEAR_Mask;
 200:Libraries/STM32F10x_StdPeriph_Driver/src/stm32f10x_usart.c ****   /* Configure the USART Stop Bits, Clock, CPOL, CPHA and LastBit ------------*/
 201:Libraries/STM32F10x_StdPeriph_Driver/src/stm32f10x_usart.c ****   /* Set STOP[13:12] bits according to USART_StopBits value */
 202:Libraries/STM32F10x_StdPeriph_Driver/src/stm32f10x_usart.c ****   tmpreg |= (uint32_t)USART_InitStruct->USART_StopBits;
 203:Libraries/STM32F10x_StdPeriph_Driver/src/stm32f10x_usart.c ****   
 204:Libraries/STM32F10x_StdPeriph_Driver/src/stm32f10x_usart.c ****   /* Write to USART CR2 */
 205:Libraries/STM32F10x_StdPeriph_Driver/src/stm32f10x_usart.c ****   USARTx->CR2 = (uint16_t)tmpreg;
 348              		.loc 1 205 0
 349 00ce 2382     		strh	r3, [r4, #16]	@ movhi
 206:Libraries/STM32F10x_StdPeriph_Driver/src/stm32f10x_usart.c **** 
 207:Libraries/STM32F10x_StdPeriph_Driver/src/stm32f10x_usart.c **** /*---------------------------- USART CR1 Configuration -----------------------*/
 208:Libraries/STM32F10x_StdPeriph_Driver/src/stm32f10x_usart.c ****   tmpreg = USARTx->CR1;
 209:Libraries/STM32F10x_StdPeriph_Driver/src/stm32f10x_usart.c ****   /* Clear M, PCE, PS, TE and RE bits */
 210:Libraries/STM32F10x_StdPeriph_Driver/src/stm32f10x_usart.c ****   tmpreg &= CR1_CLEAR_Mask;
 211:Libraries/STM32F10x_StdPeriph_Driver/src/stm32f10x_usart.c ****   /* Configure the USART Word Length, Parity and mode ----------------------- */
 212:Libraries/STM32F10x_StdPeriph_Driver/src/stm32f10x_usart.c ****   /* Set the M bits according to USART_WordLength value */
 213:Libraries/STM32F10x_StdPeriph_Driver/src/stm32f10x_usart.c ****   /* Set PCE and PS bits according to USART_Parity value */
 214:Libraries/STM32F10x_StdPeriph_Driver/src/stm32f10x_usart.c ****   /* Set TE and RE bits according to USART_Mode value */
 215:Libraries/STM32F10x_StdPeriph_Driver/src/stm32f10x_usart.c ****   tmpreg |= (uint32_t)USART_InitStruct->USART_WordLength | USART_InitStruct->USART_Parity |
 350              		.loc 1 215 0
 351 00d0 2889     		ldrh	r0, [r5, #8]
 352 00d2 AB88     		ldrh	r3, [r5, #4]
 353              	.LVL30:
 208:Libraries/STM32F10x_StdPeriph_Driver/src/stm32f10x_usart.c ****   /* Clear M, PCE, PS, TE and RE bits */
 354              		.loc 1 208 0
 355 00d4 A689     		ldrh	r6, [r4, #12]
 356              	.LVL31:
 357              		.loc 1 215 0
 358 00d6 0343     		orrs	r3, r3, r0
 359 00d8 2F49     		ldr	r1, .L52+20
 360 00da 6889     		ldrh	r0, [r5, #10]
 361 00dc 3140     		ands	r1, r1, r6
 362 00de 0343     		orrs	r3, r3, r0
 363 00e0 0B43     		orrs	r3, r3, r1
 364              	.LVL32:
 216:Libraries/STM32F10x_StdPeriph_Driver/src/stm32f10x_usart.c ****             USART_InitStruct->USART_Mode;
 217:Libraries/STM32F10x_StdPeriph_Driver/src/stm32f10x_usart.c ****   /* Write to USART CR1 */
 218:Libraries/STM32F10x_StdPeriph_Driver/src/stm32f10x_usart.c ****   USARTx->CR1 = (uint16_t)tmpreg;
 365              		.loc 1 218 0
 366 00e2 A381     		strh	r3, [r4, #12]	@ movhi
 219:Libraries/STM32F10x_StdPeriph_Driver/src/stm32f10x_usart.c **** 
 220:Libraries/STM32F10x_StdPeriph_Driver/src/stm32f10x_usart.c **** /*---------------------------- USART CR3 Configuration -----------------------*/  
 221:Libraries/STM32F10x_StdPeriph_Driver/src/stm32f10x_usart.c ****   tmpreg = USARTx->CR3;
 367              		.loc 1 221 0
 368 00e4 A38A     		ldrh	r3, [r4, #20]
 369              	.LVL33:
 222:Libraries/STM32F10x_StdPeriph_Driver/src/stm32f10x_usart.c ****   /* Clear CTSE and RTSE bits */
 223:Libraries/STM32F10x_StdPeriph_Driver/src/stm32f10x_usart.c ****   tmpreg &= CR3_CLEAR_Mask;
 224:Libraries/STM32F10x_StdPeriph_Driver/src/stm32f10x_usart.c ****   /* Configure the USART HFC -------------------------------------------------*/
 225:Libraries/STM32F10x_StdPeriph_Driver/src/stm32f10x_usart.c ****   /* Set CTSE and RTSE bits according to USART_HardwareFlowControl value */
 226:Libraries/STM32F10x_StdPeriph_Driver/src/stm32f10x_usart.c ****   tmpreg |= USART_InitStruct->USART_HardwareFlowControl;
 227:Libraries/STM32F10x_StdPeriph_Driver/src/stm32f10x_usart.c ****   /* Write to USART CR3 */
 228:Libraries/STM32F10x_StdPeriph_Driver/src/stm32f10x_usart.c ****   USARTx->CR3 = (uint16_t)tmpreg;
 229:Libraries/STM32F10x_StdPeriph_Driver/src/stm32f10x_usart.c **** 
 230:Libraries/STM32F10x_StdPeriph_Driver/src/stm32f10x_usart.c **** /*---------------------------- USART BRR Configuration -----------------------*/
 231:Libraries/STM32F10x_StdPeriph_Driver/src/stm32f10x_usart.c ****   /* Configure the USART Baud Rate -------------------------------------------*/
 232:Libraries/STM32F10x_StdPeriph_Driver/src/stm32f10x_usart.c ****   RCC_GetClocksFreq(&RCC_ClocksStatus);
 370              		.loc 1 232 0
 371 00e6 01A8     		add	r0, sp, #4
 221:Libraries/STM32F10x_StdPeriph_Driver/src/stm32f10x_usart.c ****   /* Clear CTSE and RTSE bits */
 372              		.loc 1 221 0
 373 00e8 9BB2     		uxth	r3, r3
 374              	.LVL34:
 375 00ea 23F44073 		bic	r3, r3, #768
 376              	.LVL35:
 377 00ee 1343     		orrs	r3, r3, r2
 378              	.LVL36:
 228:Libraries/STM32F10x_StdPeriph_Driver/src/stm32f10x_usart.c **** 
 379              		.loc 1 228 0
 380 00f0 A382     		strh	r3, [r4, #20]	@ movhi
 381              		.loc 1 232 0
 382 00f2 2A4B     		ldr	r3, .L52+24
 383              	.LVL37:
 384 00f4 9847     		blx	r3
 385              	.LVL38:
 233:Libraries/STM32F10x_StdPeriph_Driver/src/stm32f10x_usart.c ****   if (usartxbase == USART1_BASE)
 234:Libraries/STM32F10x_StdPeriph_Driver/src/stm32f10x_usart.c ****   {
 235:Libraries/STM32F10x_StdPeriph_Driver/src/stm32f10x_usart.c ****     apbclock = RCC_ClocksStatus.PCLK2_Frequency;
 386              		.loc 1 235 0
 387 00f6 DDE90332 		ldrd	r3, r2, [sp, #12]
 233:Libraries/STM32F10x_StdPeriph_Driver/src/stm32f10x_usart.c ****   if (usartxbase == USART1_BASE)
 388              		.loc 1 233 0
 389 00fa 2248     		ldr	r0, .L52
 236:Libraries/STM32F10x_StdPeriph_Driver/src/stm32f10x_usart.c ****   }
 237:Libraries/STM32F10x_StdPeriph_Driver/src/stm32f10x_usart.c ****   else
 238:Libraries/STM32F10x_StdPeriph_Driver/src/stm32f10x_usart.c ****   {
 239:Libraries/STM32F10x_StdPeriph_Driver/src/stm32f10x_usart.c ****     apbclock = RCC_ClocksStatus.PCLK1_Frequency;
 240:Libraries/STM32F10x_StdPeriph_Driver/src/stm32f10x_usart.c ****   }
 241:Libraries/STM32F10x_StdPeriph_Driver/src/stm32f10x_usart.c ****   
 242:Libraries/STM32F10x_StdPeriph_Driver/src/stm32f10x_usart.c ****   /* Determine the integer part */
 243:Libraries/STM32F10x_StdPeriph_Driver/src/stm32f10x_usart.c ****   if ((USARTx->CR1 & CR1_OVER8_Set) != 0)
 390              		.loc 1 243 0
 391 00fc A189     		ldrh	r1, [r4, #12]
 235:Libraries/STM32F10x_StdPeriph_Driver/src/stm32f10x_usart.c ****   }
 392              		.loc 1 235 0
 393 00fe 8442     		cmp	r4, r0
 394 0100 08BF     		it	eq
 395 0102 1346     		moveq	r3, r2
 396              	.LVL39:
 397 0104 2A68     		ldr	r2, [r5]
 398              		.loc 1 243 0
 399 0106 0904     		lsls	r1, r1, #16
 400 0108 03EB8303 		add	r3, r3, r3, lsl #2
 401              	.LVL40:
 244:Libraries/STM32F10x_StdPeriph_Driver/src/stm32f10x_usart.c ****   {
 245:Libraries/STM32F10x_StdPeriph_Driver/src/stm32f10x_usart.c ****     /* Integer part computing in case Oversampling mode is 8 Samples */
 246:Libraries/STM32F10x_StdPeriph_Driver/src/stm32f10x_usart.c ****     integerdivider = ((25 * apbclock) / (2 * (USART_InitStruct->USART_BaudRate)));    
 402              		.loc 1 246 0
 403 010c 4CBF     		ite	mi
 404 010e 5200     		lslmi	r2, r2, #1
 247:Libraries/STM32F10x_StdPeriph_Driver/src/stm32f10x_usart.c ****   }
 248:Libraries/STM32F10x_StdPeriph_Driver/src/stm32f10x_usart.c ****   else /* if ((USARTx->CR1 & CR1_OVER8_Set) == 0) */
 249:Libraries/STM32F10x_StdPeriph_Driver/src/stm32f10x_usart.c ****   {
 250:Libraries/STM32F10x_StdPeriph_Driver/src/stm32f10x_usart.c ****     /* Integer part computing in case Oversampling mode is 16 Samples */
 251:Libraries/STM32F10x_StdPeriph_Driver/src/stm32f10x_usart.c ****     integerdivider = ((25 * apbclock) / (4 * (USART_InitStruct->USART_BaudRate)));    
 405              		.loc 1 251 0
 406 0110 9200     		lslpl	r2, r2, #2
 407 0112 03EB8303 		add	r3, r3, r3, lsl #2
 408 0116 B3FBF2F3 		udiv	r3, r3, r2
 409              	.LVL41:
 410 011a 6422     		movs	r2, #100
 252:Libraries/STM32F10x_StdPeriph_Driver/src/stm32f10x_usart.c ****   }
 253:Libraries/STM32F10x_StdPeriph_Driver/src/stm32f10x_usart.c ****   tmpreg = (integerdivider / 100) << 4;
 411              		.loc 1 253 0
 412 011c 2048     		ldr	r0, .L52+28
 413              	.LVL42:
 254:Libraries/STM32F10x_StdPeriph_Driver/src/stm32f10x_usart.c **** 
 255:Libraries/STM32F10x_StdPeriph_Driver/src/stm32f10x_usart.c ****   /* Determine the fractional part */
 256:Libraries/STM32F10x_StdPeriph_Driver/src/stm32f10x_usart.c ****   fractionaldivider = integerdivider - (100 * (tmpreg >> 4));
 257:Libraries/STM32F10x_StdPeriph_Driver/src/stm32f10x_usart.c **** 
 258:Libraries/STM32F10x_StdPeriph_Driver/src/stm32f10x_usart.c ****   /* Implement the fractional part in the register */
 259:Libraries/STM32F10x_StdPeriph_Driver/src/stm32f10x_usart.c ****   if ((USARTx->CR1 & CR1_OVER8_Set) != 0)
 414              		.loc 1 259 0
 415 011e A589     		ldrh	r5, [r4, #12]
 416              	.LVL43:
 253:Libraries/STM32F10x_StdPeriph_Driver/src/stm32f10x_usart.c **** 
 417              		.loc 1 253 0
 418 0120 A0FB0361 		umull	r6, r1, r0, r3
 419 0124 4909     		lsrs	r1, r1, #5
 420 0126 02FB1133 		mls	r3, r2, r1, r3
 421              	.LVL44:
 422              		.loc 1 259 0
 423 012a 2A04     		lsls	r2, r5, #16
 424              	.LVL45:
 253:Libraries/STM32F10x_StdPeriph_Driver/src/stm32f10x_usart.c **** 
 425              		.loc 1 253 0
 426 012c 4FEA0111 		lsl	r1, r1, #4
 427              	.LVL46:
 428              		.loc 1 259 0
 429 0130 16D4     		bmi	.L51
 260:Libraries/STM32F10x_StdPeriph_Driver/src/stm32f10x_usart.c ****   {
 261:Libraries/STM32F10x_StdPeriph_Driver/src/stm32f10x_usart.c ****     tmpreg |= ((((fractionaldivider * 8) + 50) / 100)) & ((uint8_t)0x07);
 262:Libraries/STM32F10x_StdPeriph_Driver/src/stm32f10x_usart.c ****   }
 263:Libraries/STM32F10x_StdPeriph_Driver/src/stm32f10x_usart.c ****   else /* if ((USARTx->CR1 & CR1_OVER8_Set) == 0) */
 264:Libraries/STM32F10x_StdPeriph_Driver/src/stm32f10x_usart.c ****   {
 265:Libraries/STM32F10x_StdPeriph_Driver/src/stm32f10x_usart.c ****     tmpreg |= ((((fractionaldivider * 16) + 50) / 100)) & ((uint8_t)0x0F);
 430              		.loc 1 265 0
 431 0132 1B01     		lsls	r3, r3, #4
 432              	.LVL47:
 433 0134 3233     		adds	r3, r3, #50
 434 0136 A0FB0323 		umull	r2, r3, r0, r3
 435 013a C3F34313 		ubfx	r3, r3, #5, #4
 436 013e 0B43     		orrs	r3, r3, r1
 437              	.LVL48:
 266:Libraries/STM32F10x_StdPeriph_Driver/src/stm32f10x_usart.c ****   }
 267:Libraries/STM32F10x_StdPeriph_Driver/src/stm32f10x_usart.c ****   
 268:Libraries/STM32F10x_StdPeriph_Driver/src/stm32f10x_usart.c ****   /* Write to USART BRR */
 269:Libraries/STM32F10x_StdPeriph_Driver/src/stm32f10x_usart.c ****   USARTx->BRR = (uint16_t)tmpreg;
 438              		.loc 1 269 0
 439 0140 9BB2     		uxth	r3, r3
 440              	.LVL49:
 441 0142 2381     		strh	r3, [r4, #8]	@ movhi
 270:Libraries/STM32F10x_StdPeriph_Driver/src/stm32f10x_usart.c **** }
 442              		.loc 1 270 0
 443 0144 06B0     		add	sp, sp, #24
 444              		.cfi_remember_state
 445              		.cfi_def_cfa_offset 16
 446              		@ sp needed
 447 0146 70BD     		pop	{r4, r5, r6, pc}
 448              	.LVL50:
 449              	.L17:
 450              		.cfi_restore_state
 186:Libraries/STM32F10x_StdPeriph_Driver/src/stm32f10x_usart.c ****   assert_param(IS_USART_HARDWARE_FLOW_CONTROL(USART_InitStruct->USART_HardwareFlowControl));
 451              		.loc 1 186 0 discriminator 3
 452 0148 BA21     		movs	r1, #186
 453 014a 104B     		ldr	r3, .L52+8
 454 014c 0E48     		ldr	r0, .L52+4
 455 014e 9847     		blx	r3
 456              	.LVL51:
 457 0150 96E7     		b	.L18
 458              	.L22:
 459 0152 1A46     		mov	r2, r3
 460 0154 B5E7     		b	.L19
 461              	.L49:
 182:Libraries/STM32F10x_StdPeriph_Driver/src/stm32f10x_usart.c ****   assert_param(IS_USART_WORD_LENGTH(USART_InitStruct->USART_WordLength));
 462              		.loc 1 182 0 discriminator 1
 463 0156 B621     		movs	r1, #182
 464 0158 0C4B     		ldr	r3, .L52+8
 465 015a 0B48     		ldr	r0, .L52+4
 466 015c 9847     		blx	r3
 467              	.LVL52:
 468 015e 70E7     		b	.L13
 469              	.LVL53:
 470              	.L51:
 261:Libraries/STM32F10x_StdPeriph_Driver/src/stm32f10x_usart.c ****   }
 471              		.loc 1 261 0
 472 0160 DA00     		lsls	r2, r3, #3
 473 0162 3232     		adds	r2, r2, #50
 474 0164 A0FB0232 		umull	r3, r2, r0, r2
 475              	.LVL54:
 476 0168 C2F34212 		ubfx	r2, r2, #5, #3
 477 016c 42EA0103 		orr	r3, r2, r1
 478              	.LVL55:
 269:Libraries/STM32F10x_StdPeriph_Driver/src/stm32f10x_usart.c **** }
 479              		.loc 1 269 0
 480 0170 9BB2     		uxth	r3, r3
 481              	.LVL56:
 482 0172 2381     		strh	r3, [r4, #8]	@ movhi
 483              		.loc 1 270 0
 484 0174 06B0     		add	sp, sp, #24
 485              		.cfi_remember_state
 486              		.cfi_def_cfa_offset 16
 487              		@ sp needed
 488 0176 70BD     		pop	{r4, r5, r6, pc}
 489              	.LVL57:
 490              	.L50:
 491              		.cfi_restore_state
 185:Libraries/STM32F10x_StdPeriph_Driver/src/stm32f10x_usart.c ****   assert_param(IS_USART_MODE(USART_InitStruct->USART_Mode));
 492              		.loc 1 185 0 discriminator 3
 493 0178 B921     		movs	r1, #185
 494 017a 044B     		ldr	r3, .L52+8
 495 017c 0248     		ldr	r0, .L52+4
 496 017e 9847     		blx	r3
 497              	.LVL58:
 498 0180 77E7     		b	.L16
 499              	.L53:
 500 0182 00BF     		.align	2
 501              	.L52:
 502 0184 00380140 		.word	1073821696
 503 0188 00000000 		.word	.LC0
 504 018c 00000000 		.word	assert_failed
 505 0190 1FAA4400 		.word	4499999
 506 0194 00440040 		.word	1073759232
 507 0198 F3E9FFFF 		.word	-5645
 508 019c 00000000 		.word	RCC_GetClocksFreq
 509 01a0 1F85EB51 		.word	1374389535
 510              		.cfi_endproc
 511              	.LFE30:
 513              		.section	.text.USART_StructInit,"ax",%progbits
 514              		.align	1
 515              		.p2align 2,,3
 516              		.global	USART_StructInit
 517              		.syntax unified
 518              		.thumb
 519              		.thumb_func
 520              		.fpu softvfp
 522              	USART_StructInit:
 523              	.LFB31:
 271:Libraries/STM32F10x_StdPeriph_Driver/src/stm32f10x_usart.c **** 
 272:Libraries/STM32F10x_StdPeriph_Driver/src/stm32f10x_usart.c **** /**
 273:Libraries/STM32F10x_StdPeriph_Driver/src/stm32f10x_usart.c ****   * @brief  Fills each USART_InitStruct member with its default value.
 274:Libraries/STM32F10x_StdPeriph_Driver/src/stm32f10x_usart.c ****   * @param  USART_InitStruct: pointer to a USART_InitTypeDef structure
 275:Libraries/STM32F10x_StdPeriph_Driver/src/stm32f10x_usart.c ****   *   which will be initialized.
 276:Libraries/STM32F10x_StdPeriph_Driver/src/stm32f10x_usart.c ****   * @retval None
 277:Libraries/STM32F10x_StdPeriph_Driver/src/stm32f10x_usart.c ****   */
 278:Libraries/STM32F10x_StdPeriph_Driver/src/stm32f10x_usart.c **** void USART_StructInit(USART_InitTypeDef* USART_InitStruct)
 279:Libraries/STM32F10x_StdPeriph_Driver/src/stm32f10x_usart.c **** {
 524              		.loc 1 279 0
 525              		.cfi_startproc
 526              		@ args = 0, pretend = 0, frame = 0
 527              		@ frame_needed = 0, uses_anonymous_args = 0
 528              		@ link register save eliminated.
 529              	.LVL59:
 280:Libraries/STM32F10x_StdPeriph_Driver/src/stm32f10x_usart.c ****   /* USART_InitStruct members default value */
 281:Libraries/STM32F10x_StdPeriph_Driver/src/stm32f10x_usart.c ****   USART_InitStruct->USART_BaudRate = 9600;
 530              		.loc 1 281 0
 531 0000 0023     		movs	r3, #0
 532 0002 4FF41651 		mov	r1, #9600
 282:Libraries/STM32F10x_StdPeriph_Driver/src/stm32f10x_usart.c ****   USART_InitStruct->USART_WordLength = USART_WordLength_8b;
 283:Libraries/STM32F10x_StdPeriph_Driver/src/stm32f10x_usart.c ****   USART_InitStruct->USART_StopBits = USART_StopBits_1;
 533              		.loc 1 283 0
 534 0006 4FF44022 		mov	r2, #786432
 281:Libraries/STM32F10x_StdPeriph_Driver/src/stm32f10x_usart.c ****   USART_InitStruct->USART_WordLength = USART_WordLength_8b;
 535              		.loc 1 281 0
 536 000a 0160     		str	r1, [r0]
 537 000c C0E90132 		strd	r3, r2, [r0, #4]
 284:Libraries/STM32F10x_StdPeriph_Driver/src/stm32f10x_usart.c ****   USART_InitStruct->USART_Parity = USART_Parity_No ;
 285:Libraries/STM32F10x_StdPeriph_Driver/src/stm32f10x_usart.c ****   USART_InitStruct->USART_Mode = USART_Mode_Rx | USART_Mode_Tx;
 538              		.loc 1 285 0
 539 0010 8381     		strh	r3, [r0, #12]	@ movhi
 286:Libraries/STM32F10x_StdPeriph_Driver/src/stm32f10x_usart.c ****   USART_InitStruct->USART_HardwareFlowControl = USART_HardwareFlowControl_None;  
 287:Libraries/STM32F10x_StdPeriph_Driver/src/stm32f10x_usart.c **** }
 540              		.loc 1 287 0
 541 0012 7047     		bx	lr
 542              		.cfi_endproc
 543              	.LFE31:
 545              		.section	.text.USART_ClockInit,"ax",%progbits
 546              		.align	1
 547              		.p2align 2,,3
 548              		.global	USART_ClockInit
 549              		.syntax unified
 550              		.thumb
 551              		.thumb_func
 552              		.fpu softvfp
 554              	USART_ClockInit:
 555              	.LFB32:
 288:Libraries/STM32F10x_StdPeriph_Driver/src/stm32f10x_usart.c **** 
 289:Libraries/STM32F10x_StdPeriph_Driver/src/stm32f10x_usart.c **** /**
 290:Libraries/STM32F10x_StdPeriph_Driver/src/stm32f10x_usart.c ****   * @brief  Initializes the USARTx peripheral Clock according to the 
 291:Libraries/STM32F10x_StdPeriph_Driver/src/stm32f10x_usart.c ****   *   specified parameters in the USART_ClockInitStruct .
 292:Libraries/STM32F10x_StdPeriph_Driver/src/stm32f10x_usart.c ****   * @param  USARTx: where x can be 1, 2, 3 to select the USART peripheral.
 293:Libraries/STM32F10x_StdPeriph_Driver/src/stm32f10x_usart.c ****   * @param  USART_ClockInitStruct: pointer to a USART_ClockInitTypeDef
 294:Libraries/STM32F10x_StdPeriph_Driver/src/stm32f10x_usart.c ****   *   structure that contains the configuration information for the specified 
 295:Libraries/STM32F10x_StdPeriph_Driver/src/stm32f10x_usart.c ****   *   USART peripheral.  
 296:Libraries/STM32F10x_StdPeriph_Driver/src/stm32f10x_usart.c ****   * @note The Smart Card mode is not available for UART4 and UART5.
 297:Libraries/STM32F10x_StdPeriph_Driver/src/stm32f10x_usart.c ****   * @retval None
 298:Libraries/STM32F10x_StdPeriph_Driver/src/stm32f10x_usart.c ****   */
 299:Libraries/STM32F10x_StdPeriph_Driver/src/stm32f10x_usart.c **** void USART_ClockInit(USART_TypeDef* USARTx, USART_ClockInitTypeDef* USART_ClockInitStruct)
 300:Libraries/STM32F10x_StdPeriph_Driver/src/stm32f10x_usart.c **** {
 556              		.loc 1 300 0
 557              		.cfi_startproc
 558              		@ args = 0, pretend = 0, frame = 0
 559              		@ frame_needed = 0, uses_anonymous_args = 0
 560              	.LVL60:
 301:Libraries/STM32F10x_StdPeriph_Driver/src/stm32f10x_usart.c ****   uint32_t tmpreg = 0x00;
 302:Libraries/STM32F10x_StdPeriph_Driver/src/stm32f10x_usart.c ****   /* Check the parameters */
 303:Libraries/STM32F10x_StdPeriph_Driver/src/stm32f10x_usart.c ****   assert_param(IS_USART_123_PERIPH(USARTx));
 561              		.loc 1 303 0
 562 0000 224B     		ldr	r3, .L74
 300:Libraries/STM32F10x_StdPeriph_Driver/src/stm32f10x_usart.c ****   uint32_t tmpreg = 0x00;
 563              		.loc 1 300 0
 564 0002 70B5     		push	{r4, r5, r6, lr}
 565              		.cfi_def_cfa_offset 16
 566              		.cfi_offset 4, -16
 567              		.cfi_offset 5, -12
 568              		.cfi_offset 6, -8
 569              		.cfi_offset 14, -4
 570              		.loc 1 303 0
 571 0004 9842     		cmp	r0, r3
 300:Libraries/STM32F10x_StdPeriph_Driver/src/stm32f10x_usart.c ****   uint32_t tmpreg = 0x00;
 572              		.loc 1 300 0
 573 0006 0546     		mov	r5, r0
 574 0008 0C46     		mov	r4, r1
 575              		.loc 1 303 0
 576 000a 0CD0     		beq	.L56
 577              		.loc 1 303 0 is_stmt 0 discriminator 1
 578 000c A3F57443 		sub	r3, r3, #62464
 579 0010 9842     		cmp	r0, r3
 580 0012 08D0     		beq	.L56
 581              		.loc 1 303 0 discriminator 2
 582 0014 03F58063 		add	r3, r3, #1024
 583 0018 9842     		cmp	r0, r3
 584 001a 04D0     		beq	.L56
 585              		.loc 1 303 0 discriminator 3
 586 001c 40F22F11 		movw	r1, #303
 587              	.LVL61:
 588 0020 1B48     		ldr	r0, .L74+4
 589              	.LVL62:
 590 0022 1C4B     		ldr	r3, .L74+8
 591 0024 9847     		blx	r3
 592              	.LVL63:
 593              	.L56:
 304:Libraries/STM32F10x_StdPeriph_Driver/src/stm32f10x_usart.c ****   assert_param(IS_USART_CLOCK(USART_ClockInitStruct->USART_Clock));
 594              		.loc 1 304 0 is_stmt 1
 595 0026 2388     		ldrh	r3, [r4]
 596 0028 23F40063 		bic	r3, r3, #2048
 597 002c 23B1     		cbz	r3, .L57
 598              		.loc 1 304 0 is_stmt 0 discriminator 2
 599 002e 4FF49871 		mov	r1, #304
 600 0032 1748     		ldr	r0, .L74+4
 601 0034 174B     		ldr	r3, .L74+8
 602 0036 9847     		blx	r3
 603              	.LVL64:
 604              	.L57:
 305:Libraries/STM32F10x_StdPeriph_Driver/src/stm32f10x_usart.c ****   assert_param(IS_USART_CPOL(USART_ClockInitStruct->USART_CPOL));
 605              		.loc 1 305 0 is_stmt 1
 606 0038 6388     		ldrh	r3, [r4, #2]
 607 003a 23F48063 		bic	r3, r3, #1024
 608 003e 23B1     		cbz	r3, .L58
 609              		.loc 1 305 0 is_stmt 0 discriminator 2
 610 0040 40F23111 		movw	r1, #305
 611 0044 1248     		ldr	r0, .L74+4
 612 0046 134B     		ldr	r3, .L74+8
 613 0048 9847     		blx	r3
 614              	.LVL65:
 615              	.L58:
 306:Libraries/STM32F10x_StdPeriph_Driver/src/stm32f10x_usart.c ****   assert_param(IS_USART_CPHA(USART_ClockInitStruct->USART_CPHA));
 616              		.loc 1 306 0 is_stmt 1
 617 004a A388     		ldrh	r3, [r4, #4]
 618 004c 23F40073 		bic	r3, r3, #512
 619 0050 23B1     		cbz	r3, .L59
 620              		.loc 1 306 0 is_stmt 0 discriminator 2
 621 0052 4FF49971 		mov	r1, #306
 622 0056 0E48     		ldr	r0, .L74+4
 623 0058 0E4B     		ldr	r3, .L74+8
 624 005a 9847     		blx	r3
 625              	.LVL66:
 626              	.L59:
 307:Libraries/STM32F10x_StdPeriph_Driver/src/stm32f10x_usart.c ****   assert_param(IS_USART_LASTBIT(USART_ClockInitStruct->USART_LastBit));
 627              		.loc 1 307 0 is_stmt 1
 628 005c E188     		ldrh	r1, [r4, #6]
 629 005e 21F48073 		bic	r3, r1, #256
 630 0062 2BB1     		cbz	r3, .L60
 631              		.loc 1 307 0 is_stmt 0 discriminator 2
 632 0064 40F23311 		movw	r1, #307
 633 0068 0948     		ldr	r0, .L74+4
 634 006a 0A4B     		ldr	r3, .L74+8
 635 006c 9847     		blx	r3
 636              	.LVL67:
 637 006e E188     		ldrh	r1, [r4, #6]
 638              	.L60:
 308:Libraries/STM32F10x_StdPeriph_Driver/src/stm32f10x_usart.c ****   
 309:Libraries/STM32F10x_StdPeriph_Driver/src/stm32f10x_usart.c **** /*---------------------------- USART CR2 Configuration -----------------------*/
 310:Libraries/STM32F10x_StdPeriph_Driver/src/stm32f10x_usart.c ****   tmpreg = USARTx->CR2;
 639              		.loc 1 310 0 is_stmt 1
 640 0070 2A8A     		ldrh	r2, [r5, #16]
 641 0072 2388     		ldrh	r3, [r4]
 642 0074 6688     		ldrh	r6, [r4, #2]
 643 0076 A088     		ldrh	r0, [r4, #4]
 644 0078 92B2     		uxth	r2, r2
 645              	.LVL68:
 646 007a 3343     		orrs	r3, r3, r6
 647 007c 22F47062 		bic	r2, r2, #3840
 648              	.LVL69:
 649 0080 0343     		orrs	r3, r3, r0
 650 0082 1343     		orrs	r3, r3, r2
 651 0084 0B43     		orrs	r3, r3, r1
 652              	.LVL70:
 311:Libraries/STM32F10x_StdPeriph_Driver/src/stm32f10x_usart.c ****   /* Clear CLKEN, CPOL, CPHA and LBCL bits */
 312:Libraries/STM32F10x_StdPeriph_Driver/src/stm32f10x_usart.c ****   tmpreg &= CR2_CLOCK_CLEAR_Mask;
 313:Libraries/STM32F10x_StdPeriph_Driver/src/stm32f10x_usart.c ****   /* Configure the USART Clock, CPOL, CPHA and LastBit ------------*/
 314:Libraries/STM32F10x_StdPeriph_Driver/src/stm32f10x_usart.c ****   /* Set CLKEN bit according to USART_Clock value */
 315:Libraries/STM32F10x_StdPeriph_Driver/src/stm32f10x_usart.c ****   /* Set CPOL bit according to USART_CPOL value */
 316:Libraries/STM32F10x_StdPeriph_Driver/src/stm32f10x_usart.c ****   /* Set CPHA bit according to USART_CPHA value */
 317:Libraries/STM32F10x_StdPeriph_Driver/src/stm32f10x_usart.c ****   /* Set LBCL bit according to USART_LastBit value */
 318:Libraries/STM32F10x_StdPeriph_Driver/src/stm32f10x_usart.c ****   tmpreg |= (uint32_t)USART_ClockInitStruct->USART_Clock | USART_ClockInitStruct->USART_CPOL | 
 319:Libraries/STM32F10x_StdPeriph_Driver/src/stm32f10x_usart.c ****                  USART_ClockInitStruct->USART_CPHA | USART_ClockInitStruct->USART_LastBit;
 320:Libraries/STM32F10x_StdPeriph_Driver/src/stm32f10x_usart.c ****   /* Write to USART CR2 */
 321:Libraries/STM32F10x_StdPeriph_Driver/src/stm32f10x_usart.c ****   USARTx->CR2 = (uint16_t)tmpreg;
 653              		.loc 1 321 0
 654 0086 2B82     		strh	r3, [r5, #16]	@ movhi
 322:Libraries/STM32F10x_StdPeriph_Driver/src/stm32f10x_usart.c **** }
 655              		.loc 1 322 0
 656 0088 70BD     		pop	{r4, r5, r6, pc}
 657              	.LVL71:
 658              	.L75:
 659 008a 00BF     		.align	2
 660              	.L74:
 661 008c 00380140 		.word	1073821696
 662 0090 00000000 		.word	.LC0
 663 0094 00000000 		.word	assert_failed
 664              		.cfi_endproc
 665              	.LFE32:
 667              		.section	.text.USART_ClockStructInit,"ax",%progbits
 668              		.align	1
 669              		.p2align 2,,3
 670              		.global	USART_ClockStructInit
 671              		.syntax unified
 672              		.thumb
 673              		.thumb_func
 674              		.fpu softvfp
 676              	USART_ClockStructInit:
 677              	.LFB33:
 323:Libraries/STM32F10x_StdPeriph_Driver/src/stm32f10x_usart.c **** 
 324:Libraries/STM32F10x_StdPeriph_Driver/src/stm32f10x_usart.c **** /**
 325:Libraries/STM32F10x_StdPeriph_Driver/src/stm32f10x_usart.c ****   * @brief  Fills each USART_ClockInitStruct member with its default value.
 326:Libraries/STM32F10x_StdPeriph_Driver/src/stm32f10x_usart.c ****   * @param  USART_ClockInitStruct: pointer to a USART_ClockInitTypeDef
 327:Libraries/STM32F10x_StdPeriph_Driver/src/stm32f10x_usart.c ****   *   structure which will be initialized.
 328:Libraries/STM32F10x_StdPeriph_Driver/src/stm32f10x_usart.c ****   * @retval None
 329:Libraries/STM32F10x_StdPeriph_Driver/src/stm32f10x_usart.c ****   */
 330:Libraries/STM32F10x_StdPeriph_Driver/src/stm32f10x_usart.c **** void USART_ClockStructInit(USART_ClockInitTypeDef* USART_ClockInitStruct)
 331:Libraries/STM32F10x_StdPeriph_Driver/src/stm32f10x_usart.c **** {
 678              		.loc 1 331 0
 679              		.cfi_startproc
 680              		@ args = 0, pretend = 0, frame = 0
 681              		@ frame_needed = 0, uses_anonymous_args = 0
 682              		@ link register save eliminated.
 683              	.LVL72:
 332:Libraries/STM32F10x_StdPeriph_Driver/src/stm32f10x_usart.c ****   /* USART_ClockInitStruct members default value */
 333:Libraries/STM32F10x_StdPeriph_Driver/src/stm32f10x_usart.c ****   USART_ClockInitStruct->USART_Clock = USART_Clock_Disable;
 684              		.loc 1 333 0
 685 0000 0023     		movs	r3, #0
 686 0002 0380     		strh	r3, [r0]	@ movhi
 334:Libraries/STM32F10x_StdPeriph_Driver/src/stm32f10x_usart.c ****   USART_ClockInitStruct->USART_CPOL = USART_CPOL_Low;
 687              		.loc 1 334 0
 688 0004 4380     		strh	r3, [r0, #2]	@ movhi
 335:Libraries/STM32F10x_StdPeriph_Driver/src/stm32f10x_usart.c ****   USART_ClockInitStruct->USART_CPHA = USART_CPHA_1Edge;
 689              		.loc 1 335 0
 690 0006 8380     		strh	r3, [r0, #4]	@ movhi
 336:Libraries/STM32F10x_StdPeriph_Driver/src/stm32f10x_usart.c ****   USART_ClockInitStruct->USART_LastBit = USART_LastBit_Disable;
 691              		.loc 1 336 0
 692 0008 C380     		strh	r3, [r0, #6]	@ movhi
 337:Libraries/STM32F10x_StdPeriph_Driver/src/stm32f10x_usart.c **** }
 693              		.loc 1 337 0
 694 000a 7047     		bx	lr
 695              		.cfi_endproc
 696              	.LFE33:
 698              		.section	.text.USART_Cmd,"ax",%progbits
 699              		.align	1
 700              		.p2align 2,,3
 701              		.global	USART_Cmd
 702              		.syntax unified
 703              		.thumb
 704              		.thumb_func
 705              		.fpu softvfp
 707              	USART_Cmd:
 708              	.LFB34:
 338:Libraries/STM32F10x_StdPeriph_Driver/src/stm32f10x_usart.c **** 
 339:Libraries/STM32F10x_StdPeriph_Driver/src/stm32f10x_usart.c **** /**
 340:Libraries/STM32F10x_StdPeriph_Driver/src/stm32f10x_usart.c ****   * @brief  Enables or disables the specified USART peripheral.
 341:Libraries/STM32F10x_StdPeriph_Driver/src/stm32f10x_usart.c ****   * @param  USARTx: Select the USART or the UART peripheral. 
 342:Libraries/STM32F10x_StdPeriph_Driver/src/stm32f10x_usart.c ****   *   This parameter can be one of the following values:
 343:Libraries/STM32F10x_StdPeriph_Driver/src/stm32f10x_usart.c ****   *   USART1, USART2, USART3, UART4 or UART5.
 344:Libraries/STM32F10x_StdPeriph_Driver/src/stm32f10x_usart.c ****   * @param  NewState: new state of the USARTx peripheral.
 345:Libraries/STM32F10x_StdPeriph_Driver/src/stm32f10x_usart.c ****   *   This parameter can be: ENABLE or DISABLE.
 346:Libraries/STM32F10x_StdPeriph_Driver/src/stm32f10x_usart.c ****   * @retval None
 347:Libraries/STM32F10x_StdPeriph_Driver/src/stm32f10x_usart.c ****   */
 348:Libraries/STM32F10x_StdPeriph_Driver/src/stm32f10x_usart.c **** void USART_Cmd(USART_TypeDef* USARTx, FunctionalState NewState)
 349:Libraries/STM32F10x_StdPeriph_Driver/src/stm32f10x_usart.c **** {
 709              		.loc 1 349 0
 710              		.cfi_startproc
 711              		@ args = 0, pretend = 0, frame = 0
 712              		@ frame_needed = 0, uses_anonymous_args = 0
 713              	.LVL73:
 714 0000 38B5     		push	{r3, r4, r5, lr}
 715              		.cfi_def_cfa_offset 16
 716              		.cfi_offset 3, -16
 717              		.cfi_offset 4, -12
 718              		.cfi_offset 5, -8
 719              		.cfi_offset 14, -4
 350:Libraries/STM32F10x_StdPeriph_Driver/src/stm32f10x_usart.c ****   /* Check the parameters */
 351:Libraries/STM32F10x_StdPeriph_Driver/src/stm32f10x_usart.c ****   assert_param(IS_USART_ALL_PERIPH(USARTx));
 720              		.loc 1 351 0
 721 0002 174B     		ldr	r3, .L85
 349:Libraries/STM32F10x_StdPeriph_Driver/src/stm32f10x_usart.c ****   /* Check the parameters */
 722              		.loc 1 349 0
 723 0004 0446     		mov	r4, r0
 724              		.loc 1 351 0
 725 0006 9842     		cmp	r0, r3
 349:Libraries/STM32F10x_StdPeriph_Driver/src/stm32f10x_usart.c ****   /* Check the parameters */
 726              		.loc 1 349 0
 727 0008 0D46     		mov	r5, r1
 728              		.loc 1 351 0
 729 000a 14D0     		beq	.L78
 730              		.loc 1 351 0 is_stmt 0 discriminator 1
 731 000c A3F57443 		sub	r3, r3, #62464
 732 0010 9842     		cmp	r0, r3
 733 0012 10D0     		beq	.L78
 734              		.loc 1 351 0 discriminator 2
 735 0014 03F58063 		add	r3, r3, #1024
 736 0018 9842     		cmp	r0, r3
 737 001a 0CD0     		beq	.L78
 738              		.loc 1 351 0 discriminator 3
 739 001c 03F58063 		add	r3, r3, #1024
 740 0020 9842     		cmp	r0, r3
 741 0022 08D0     		beq	.L78
 742              		.loc 1 351 0 discriminator 4
 743 0024 03F58063 		add	r3, r3, #1024
 744 0028 9842     		cmp	r0, r3
 745 002a 04D0     		beq	.L78
 746              		.loc 1 351 0 discriminator 5
 747 002c 40F25F11 		movw	r1, #351
 748              	.LVL74:
 749 0030 0C48     		ldr	r0, .L85+4
 750              	.LVL75:
 751 0032 0D4B     		ldr	r3, .L85+8
 752 0034 9847     		blx	r3
 753              	.LVL76:
 754              	.L78:
 352:Libraries/STM32F10x_StdPeriph_Driver/src/stm32f10x_usart.c ****   assert_param(IS_FUNCTIONAL_STATE(NewState));
 755              		.loc 1 352 0 is_stmt 1
 756 0036 012D     		cmp	r5, #1
 757 0038 07D8     		bhi	.L84
 353:Libraries/STM32F10x_StdPeriph_Driver/src/stm32f10x_usart.c ****   
 354:Libraries/STM32F10x_StdPeriph_Driver/src/stm32f10x_usart.c ****   if (NewState != DISABLE)
 758              		.loc 1 354 0
 759 003a 5DB9     		cbnz	r5, .L80
 355:Libraries/STM32F10x_StdPeriph_Driver/src/stm32f10x_usart.c ****   {
 356:Libraries/STM32F10x_StdPeriph_Driver/src/stm32f10x_usart.c ****     /* Enable the selected USART by setting the UE bit in the CR1 register */
 357:Libraries/STM32F10x_StdPeriph_Driver/src/stm32f10x_usart.c ****     USARTx->CR1 |= CR1_UE_Set;
 358:Libraries/STM32F10x_StdPeriph_Driver/src/stm32f10x_usart.c ****   }
 359:Libraries/STM32F10x_StdPeriph_Driver/src/stm32f10x_usart.c ****   else
 360:Libraries/STM32F10x_StdPeriph_Driver/src/stm32f10x_usart.c ****   {
 361:Libraries/STM32F10x_StdPeriph_Driver/src/stm32f10x_usart.c ****     /* Disable the selected USART by clearing the UE bit in the CR1 register */
 362:Libraries/STM32F10x_StdPeriph_Driver/src/stm32f10x_usart.c ****     USARTx->CR1 &= CR1_UE_Reset;
 760              		.loc 1 362 0
 761 003c A389     		ldrh	r3, [r4, #12]
 762 003e 23F40053 		bic	r3, r3, #8192
 763 0042 1B04     		lsls	r3, r3, #16
 764 0044 1B0C     		lsrs	r3, r3, #16
 765 0046 A381     		strh	r3, [r4, #12]	@ movhi
 363:Libraries/STM32F10x_StdPeriph_Driver/src/stm32f10x_usart.c ****   }
 364:Libraries/STM32F10x_StdPeriph_Driver/src/stm32f10x_usart.c **** }
 766              		.loc 1 364 0
 767 0048 38BD     		pop	{r3, r4, r5, pc}
 768              	.LVL77:
 769              	.L84:
 352:Libraries/STM32F10x_StdPeriph_Driver/src/stm32f10x_usart.c ****   
 770              		.loc 1 352 0 discriminator 1
 771 004a 4FF4B071 		mov	r1, #352
 772 004e 0548     		ldr	r0, .L85+4
 773 0050 054B     		ldr	r3, .L85+8
 774 0052 9847     		blx	r3
 775              	.LVL78:
 776              	.L80:
 357:Libraries/STM32F10x_StdPeriph_Driver/src/stm32f10x_usart.c ****   }
 777              		.loc 1 357 0
 778 0054 A389     		ldrh	r3, [r4, #12]
 779 0056 43F40053 		orr	r3, r3, #8192
 780 005a A381     		strh	r3, [r4, #12]	@ movhi
 781              		.loc 1 364 0
 782 005c 38BD     		pop	{r3, r4, r5, pc}
 783              	.LVL79:
 784              	.L86:
 785 005e 00BF     		.align	2
 786              	.L85:
 787 0060 00380140 		.word	1073821696
 788 0064 00000000 		.word	.LC0
 789 0068 00000000 		.word	assert_failed
 790              		.cfi_endproc
 791              	.LFE34:
 793              		.section	.text.USART_ITConfig,"ax",%progbits
 794              		.align	1
 795              		.p2align 2,,3
 796              		.global	USART_ITConfig
 797              		.syntax unified
 798              		.thumb
 799              		.thumb_func
 800              		.fpu softvfp
 802              	USART_ITConfig:
 803              	.LFB35:
 365:Libraries/STM32F10x_StdPeriph_Driver/src/stm32f10x_usart.c **** 
 366:Libraries/STM32F10x_StdPeriph_Driver/src/stm32f10x_usart.c **** /**
 367:Libraries/STM32F10x_StdPeriph_Driver/src/stm32f10x_usart.c ****   * @brief  Enables or disables the specified USART interrupts.
 368:Libraries/STM32F10x_StdPeriph_Driver/src/stm32f10x_usart.c ****   * @param  USARTx: Select the USART or the UART peripheral. 
 369:Libraries/STM32F10x_StdPeriph_Driver/src/stm32f10x_usart.c ****   *   This parameter can be one of the following values:
 370:Libraries/STM32F10x_StdPeriph_Driver/src/stm32f10x_usart.c ****   *   USART1, USART2, USART3, UART4 or UART5.
 371:Libraries/STM32F10x_StdPeriph_Driver/src/stm32f10x_usart.c ****   * @param  USART_IT: specifies the USART interrupt sources to be enabled or disabled.
 372:Libraries/STM32F10x_StdPeriph_Driver/src/stm32f10x_usart.c ****   *   This parameter can be one of the following values:
 373:Libraries/STM32F10x_StdPeriph_Driver/src/stm32f10x_usart.c ****   *     @arg USART_IT_CTS:  CTS change interrupt (not available for UART4 and UART5)
 374:Libraries/STM32F10x_StdPeriph_Driver/src/stm32f10x_usart.c ****   *     @arg USART_IT_LBD:  LIN Break detection interrupt
 375:Libraries/STM32F10x_StdPeriph_Driver/src/stm32f10x_usart.c ****   *     @arg USART_IT_TXE:  Tansmit Data Register empty interrupt
 376:Libraries/STM32F10x_StdPeriph_Driver/src/stm32f10x_usart.c ****   *     @arg USART_IT_TC:   Transmission complete interrupt
 377:Libraries/STM32F10x_StdPeriph_Driver/src/stm32f10x_usart.c ****   *     @arg USART_IT_RXNE: Receive Data register not empty interrupt
 378:Libraries/STM32F10x_StdPeriph_Driver/src/stm32f10x_usart.c ****   *     @arg USART_IT_IDLE: Idle line detection interrupt
 379:Libraries/STM32F10x_StdPeriph_Driver/src/stm32f10x_usart.c ****   *     @arg USART_IT_PE:   Parity Error interrupt
 380:Libraries/STM32F10x_StdPeriph_Driver/src/stm32f10x_usart.c ****   *     @arg USART_IT_ERR:  Error interrupt(Frame error, noise error, overrun error)
 381:Libraries/STM32F10x_StdPeriph_Driver/src/stm32f10x_usart.c ****   * @param  NewState: new state of the specified USARTx interrupts.
 382:Libraries/STM32F10x_StdPeriph_Driver/src/stm32f10x_usart.c ****   *   This parameter can be: ENABLE or DISABLE.
 383:Libraries/STM32F10x_StdPeriph_Driver/src/stm32f10x_usart.c ****   * @retval None
 384:Libraries/STM32F10x_StdPeriph_Driver/src/stm32f10x_usart.c ****   */
 385:Libraries/STM32F10x_StdPeriph_Driver/src/stm32f10x_usart.c **** void USART_ITConfig(USART_TypeDef* USARTx, uint16_t USART_IT, FunctionalState NewState)
 386:Libraries/STM32F10x_StdPeriph_Driver/src/stm32f10x_usart.c **** {
 804              		.loc 1 386 0
 805              		.cfi_startproc
 806              		@ args = 0, pretend = 0, frame = 0
 807              		@ frame_needed = 0, uses_anonymous_args = 0
 808              	.LVL80:
 387:Libraries/STM32F10x_StdPeriph_Driver/src/stm32f10x_usart.c ****   uint32_t usartreg = 0x00, itpos = 0x00, itmask = 0x00;
 388:Libraries/STM32F10x_StdPeriph_Driver/src/stm32f10x_usart.c ****   uint32_t usartxbase = 0x00;
 389:Libraries/STM32F10x_StdPeriph_Driver/src/stm32f10x_usart.c ****   /* Check the parameters */
 390:Libraries/STM32F10x_StdPeriph_Driver/src/stm32f10x_usart.c ****   assert_param(IS_USART_ALL_PERIPH(USARTx));
 809              		.loc 1 390 0
 810 0000 424B     		ldr	r3, .L115
 386:Libraries/STM32F10x_StdPeriph_Driver/src/stm32f10x_usart.c ****   uint32_t usartreg = 0x00, itpos = 0x00, itmask = 0x00;
 811              		.loc 1 386 0
 812 0002 70B5     		push	{r4, r5, r6, lr}
 813              		.cfi_def_cfa_offset 16
 814              		.cfi_offset 4, -16
 815              		.cfi_offset 5, -12
 816              		.cfi_offset 6, -8
 817              		.cfi_offset 14, -4
 818              		.loc 1 390 0
 819 0004 9842     		cmp	r0, r3
 386:Libraries/STM32F10x_StdPeriph_Driver/src/stm32f10x_usart.c ****   uint32_t usartreg = 0x00, itpos = 0x00, itmask = 0x00;
 820              		.loc 1 386 0
 821 0006 0446     		mov	r4, r0
 822 0008 0D46     		mov	r5, r1
 823 000a 1646     		mov	r6, r2
 824              		.loc 1 390 0
 825 000c 14D0     		beq	.L88
 826              		.loc 1 390 0 is_stmt 0 discriminator 1
 827 000e A3F57443 		sub	r3, r3, #62464
 828 0012 9842     		cmp	r0, r3
 829 0014 10D0     		beq	.L88
 830              		.loc 1 390 0 discriminator 2
 831 0016 03F58063 		add	r3, r3, #1024
 832 001a 9842     		cmp	r0, r3
 833 001c 0CD0     		beq	.L88
 834              		.loc 1 390 0 discriminator 3
 835 001e 03F58063 		add	r3, r3, #1024
 836 0022 9842     		cmp	r0, r3
 837 0024 08D0     		beq	.L88
 838              		.loc 1 390 0 discriminator 4
 839 0026 03F58063 		add	r3, r3, #1024
 840 002a 9842     		cmp	r0, r3
 841 002c 04D0     		beq	.L88
 842              		.loc 1 390 0 discriminator 5
 843 002e 4FF4C371 		mov	r1, #390
 844              	.LVL81:
 845 0032 3748     		ldr	r0, .L115+4
 846              	.LVL82:
 847 0034 374B     		ldr	r3, .L115+8
 848 0036 9847     		blx	r3
 849              	.LVL83:
 850              	.L88:
 391:Libraries/STM32F10x_StdPeriph_Driver/src/stm32f10x_usart.c ****   assert_param(IS_USART_CONFIG_IT(USART_IT));
 851              		.loc 1 391 0 is_stmt 1
 852 0038 282D     		cmp	r5, #40
 853 003a 2CD0     		beq	.L89
 854              		.loc 1 391 0 is_stmt 0 discriminator 1
 855 003c 40F22773 		movw	r3, #1831
 856 0040 9D42     		cmp	r5, r3
 857 0042 28D0     		beq	.L89
 858              		.loc 1 391 0 discriminator 2
 859 0044 40F22663 		movw	r3, #1574
 860 0048 9D42     		cmp	r5, r3
 861 004a 24D0     		beq	.L89
 862              		.loc 1 391 0 discriminator 3
 863 004c 40F22553 		movw	r3, #1317
 864 0050 9D42     		cmp	r5, r3
 865 0052 0DD0     		beq	.L90
 866              		.loc 1 391 0 discriminator 4
 867 0054 40F22443 		movw	r3, #1060
 868 0058 9D42     		cmp	r5, r3
 869 005a 09D0     		beq	.L90
 870              		.loc 1 391 0 discriminator 5
 871 005c 40F64603 		movw	r3, #2118
 872 0060 9D42     		cmp	r5, r3
 873 0062 05D0     		beq	.L90
 874              		.loc 1 391 0 discriminator 6
 875 0064 40F66A13 		movw	r3, #2410
 876 0068 9D42     		cmp	r5, r3
 877 006a 47D0     		beq	.L91
 878              		.loc 1 391 0 discriminator 7
 879 006c 602D     		cmp	r5, #96
 880 006e 3FD1     		bne	.L112
 881              	.L90:
 392:Libraries/STM32F10x_StdPeriph_Driver/src/stm32f10x_usart.c ****   assert_param(IS_FUNCTIONAL_STATE(NewState));
 882              		.loc 1 392 0 is_stmt 1
 883 0070 012E     		cmp	r6, #1
 884 0072 12D8     		bhi	.L99
 885              	.L92:
 886              	.LVL84:
 393:Libraries/STM32F10x_StdPeriph_Driver/src/stm32f10x_usart.c ****   /* The CTS interrupt is not available for UART4 and UART5 */
 394:Libraries/STM32F10x_StdPeriph_Driver/src/stm32f10x_usart.c ****   if (USART_IT == USART_IT_CTS)
 395:Libraries/STM32F10x_StdPeriph_Driver/src/stm32f10x_usart.c ****   {
 396:Libraries/STM32F10x_StdPeriph_Driver/src/stm32f10x_usart.c ****     assert_param(IS_USART_123_PERIPH(USARTx));
 397:Libraries/STM32F10x_StdPeriph_Driver/src/stm32f10x_usart.c ****   }   
 398:Libraries/STM32F10x_StdPeriph_Driver/src/stm32f10x_usart.c ****   
 399:Libraries/STM32F10x_StdPeriph_Driver/src/stm32f10x_usart.c ****   usartxbase = (uint32_t)USARTx;
 400:Libraries/STM32F10x_StdPeriph_Driver/src/stm32f10x_usart.c **** 
 401:Libraries/STM32F10x_StdPeriph_Driver/src/stm32f10x_usart.c ****   /* Get the USART register index */
 402:Libraries/STM32F10x_StdPeriph_Driver/src/stm32f10x_usart.c ****   usartreg = (((uint8_t)USART_IT) >> 0x05);
 403:Libraries/STM32F10x_StdPeriph_Driver/src/stm32f10x_usart.c **** 
 404:Libraries/STM32F10x_StdPeriph_Driver/src/stm32f10x_usart.c ****   /* Get the interrupt position */
 405:Libraries/STM32F10x_StdPeriph_Driver/src/stm32f10x_usart.c ****   itpos = USART_IT & IT_Mask;
 406:Libraries/STM32F10x_StdPeriph_Driver/src/stm32f10x_usart.c ****   itmask = (((uint32_t)0x01) << itpos);
 887              		.loc 1 406 0
 888 0074 0123     		movs	r3, #1
 405:Libraries/STM32F10x_StdPeriph_Driver/src/stm32f10x_usart.c ****   itmask = (((uint32_t)0x01) << itpos);
 889              		.loc 1 405 0
 890 0076 05F01F02 		and	r2, r5, #31
 402:Libraries/STM32F10x_StdPeriph_Driver/src/stm32f10x_usart.c **** 
 891              		.loc 1 402 0
 892 007a C5F34215 		ubfx	r5, r5, #5, #3
 893              	.LVL85:
 407:Libraries/STM32F10x_StdPeriph_Driver/src/stm32f10x_usart.c ****     
 408:Libraries/STM32F10x_StdPeriph_Driver/src/stm32f10x_usart.c ****   if (usartreg == 0x01) /* The IT is in CR1 register */
 894              		.loc 1 408 0
 895 007e 012D     		cmp	r5, #1
 406:Libraries/STM32F10x_StdPeriph_Driver/src/stm32f10x_usart.c ****     
 896              		.loc 1 406 0
 897 0080 03FA02F3 		lsl	r3, r3, r2
 898              	.LVL86:
 899              		.loc 1 408 0
 900 0084 2CD0     		beq	.L102
 409:Libraries/STM32F10x_StdPeriph_Driver/src/stm32f10x_usart.c ****   {
 410:Libraries/STM32F10x_StdPeriph_Driver/src/stm32f10x_usart.c ****     usartxbase += 0x0C;
 411:Libraries/STM32F10x_StdPeriph_Driver/src/stm32f10x_usart.c ****   }
 412:Libraries/STM32F10x_StdPeriph_Driver/src/stm32f10x_usart.c ****   else if (usartreg == 0x02) /* The IT is in CR2 register */
 901              		.loc 1 412 0
 902 0086 022D     		cmp	r5, #2
 903 0088 24D1     		bne	.L96
 904              	.LVL87:
 413:Libraries/STM32F10x_StdPeriph_Driver/src/stm32f10x_usart.c ****   {
 414:Libraries/STM32F10x_StdPeriph_Driver/src/stm32f10x_usart.c ****     usartxbase += 0x10;
 905              		.loc 1 414 0
 906 008a 1034     		adds	r4, r4, #16
 907              	.LVL88:
 415:Libraries/STM32F10x_StdPeriph_Driver/src/stm32f10x_usart.c ****   }
 416:Libraries/STM32F10x_StdPeriph_Driver/src/stm32f10x_usart.c ****   else /* The IT is in CR3 register */
 417:Libraries/STM32F10x_StdPeriph_Driver/src/stm32f10x_usart.c ****   {
 418:Libraries/STM32F10x_StdPeriph_Driver/src/stm32f10x_usart.c ****     usartxbase += 0x14; 
 419:Libraries/STM32F10x_StdPeriph_Driver/src/stm32f10x_usart.c ****   }
 420:Libraries/STM32F10x_StdPeriph_Driver/src/stm32f10x_usart.c ****   if (NewState != DISABLE)
 421:Libraries/STM32F10x_StdPeriph_Driver/src/stm32f10x_usart.c ****   {
 422:Libraries/STM32F10x_StdPeriph_Driver/src/stm32f10x_usart.c ****     *(__IO uint32_t*)usartxbase  |= itmask;
 908              		.loc 1 422 0
 909 008c 2568     		ldr	r5, [r4]
 420:Libraries/STM32F10x_StdPeriph_Driver/src/stm32f10x_usart.c ****   {
 910              		.loc 1 420 0
 911 008e 5EB3     		cbz	r6, .L97
 912              	.LVL89:
 913              	.L114:
 914              		.loc 1 422 0
 915 0090 2B43     		orrs	r3, r3, r5
 916              	.LVL90:
 917 0092 2360     		str	r3, [r4]
 423:Libraries/STM32F10x_StdPeriph_Driver/src/stm32f10x_usart.c ****   }
 424:Libraries/STM32F10x_StdPeriph_Driver/src/stm32f10x_usart.c ****   else
 425:Libraries/STM32F10x_StdPeriph_Driver/src/stm32f10x_usart.c ****   {
 426:Libraries/STM32F10x_StdPeriph_Driver/src/stm32f10x_usart.c ****     *(__IO uint32_t*)usartxbase &= ~itmask;
 427:Libraries/STM32F10x_StdPeriph_Driver/src/stm32f10x_usart.c ****   }
 428:Libraries/STM32F10x_StdPeriph_Driver/src/stm32f10x_usart.c **** }
 918              		.loc 1 428 0
 919 0094 70BD     		pop	{r4, r5, r6, pc}
 920              	.LVL91:
 921              	.L89:
 392:Libraries/STM32F10x_StdPeriph_Driver/src/stm32f10x_usart.c ****   /* The CTS interrupt is not available for UART4 and UART5 */
 922              		.loc 1 392 0
 923 0096 012E     		cmp	r6, #1
 924 0098 1ED9     		bls	.L113
 925              	.L99:
 926 009a 1E4B     		ldr	r3, .L115+8
 927 009c 4FF4C471 		mov	r1, #392
 928 00a0 1B48     		ldr	r0, .L115+4
 929 00a2 9847     		blx	r3
 930              	.LVL92:
 394:Libraries/STM32F10x_StdPeriph_Driver/src/stm32f10x_usart.c ****   {
 931              		.loc 1 394 0
 932 00a4 40F66A13 		movw	r3, #2410
 933 00a8 9D42     		cmp	r5, r3
 934 00aa E3D1     		bne	.L92
 935              	.L101:
 396:Libraries/STM32F10x_StdPeriph_Driver/src/stm32f10x_usart.c ****   }   
 936              		.loc 1 396 0
 937 00ac 174B     		ldr	r3, .L115
 938 00ae 9C42     		cmp	r4, r3
 939 00b0 0CD0     		beq	.L93
 396:Libraries/STM32F10x_StdPeriph_Driver/src/stm32f10x_usart.c ****   }   
 940              		.loc 1 396 0 is_stmt 0 discriminator 1
 941 00b2 A3F57443 		sub	r3, r3, #62464
 942 00b6 9C42     		cmp	r4, r3
 943 00b8 08D0     		beq	.L93
 396:Libraries/STM32F10x_StdPeriph_Driver/src/stm32f10x_usart.c ****   }   
 944              		.loc 1 396 0 discriminator 2
 945 00ba 03F58063 		add	r3, r3, #1024
 946 00be 9C42     		cmp	r4, r3
 947 00c0 04D0     		beq	.L93
 396:Libraries/STM32F10x_StdPeriph_Driver/src/stm32f10x_usart.c ****   }   
 948              		.loc 1 396 0 discriminator 3
 949 00c2 4FF4C671 		mov	r1, #396
 950 00c6 1248     		ldr	r0, .L115+4
 951 00c8 124B     		ldr	r3, .L115+8
 952 00ca 9847     		blx	r3
 953              	.LVL93:
 954              	.L93:
 406:Libraries/STM32F10x_StdPeriph_Driver/src/stm32f10x_usart.c ****     
 955              		.loc 1 406 0 is_stmt 1
 956 00cc 0123     		movs	r3, #1
 405:Libraries/STM32F10x_StdPeriph_Driver/src/stm32f10x_usart.c ****   itmask = (((uint32_t)0x01) << itpos);
 957              		.loc 1 405 0
 958 00ce 05F01F05 		and	r5, r5, #31
 959              	.LVL94:
 406:Libraries/STM32F10x_StdPeriph_Driver/src/stm32f10x_usart.c ****     
 960              		.loc 1 406 0
 961 00d2 AB40     		lsls	r3, r3, r5
 962              	.LVL95:
 963              	.L96:
 418:Libraries/STM32F10x_StdPeriph_Driver/src/stm32f10x_usart.c ****   }
 964              		.loc 1 418 0
 965 00d4 1434     		adds	r4, r4, #20
 966              	.LVL96:
 967 00d6 04E0     		b	.L95
 968              	.LVL97:
 969              	.L113:
 406:Libraries/STM32F10x_StdPeriph_Driver/src/stm32f10x_usart.c ****     
 970              		.loc 1 406 0
 971 00d8 0123     		movs	r3, #1
 405:Libraries/STM32F10x_StdPeriph_Driver/src/stm32f10x_usart.c ****   itmask = (((uint32_t)0x01) << itpos);
 972              		.loc 1 405 0
 973 00da 05F01F05 		and	r5, r5, #31
 974              	.LVL98:
 406:Libraries/STM32F10x_StdPeriph_Driver/src/stm32f10x_usart.c ****     
 975              		.loc 1 406 0
 976 00de AB40     		lsls	r3, r3, r5
 977              	.LVL99:
 978              	.L102:
 410:Libraries/STM32F10x_StdPeriph_Driver/src/stm32f10x_usart.c ****   }
 979              		.loc 1 410 0
 980 00e0 0C34     		adds	r4, r4, #12
 981              	.LVL100:
 982              	.L95:
 422:Libraries/STM32F10x_StdPeriph_Driver/src/stm32f10x_usart.c ****   }
 983              		.loc 1 422 0
 984 00e2 2568     		ldr	r5, [r4]
 420:Libraries/STM32F10x_StdPeriph_Driver/src/stm32f10x_usart.c ****   {
 985              		.loc 1 420 0
 986 00e4 002E     		cmp	r6, #0
 987 00e6 D3D1     		bne	.L114
 988              	.L97:
 426:Libraries/STM32F10x_StdPeriph_Driver/src/stm32f10x_usart.c ****   }
 989              		.loc 1 426 0
 990 00e8 25EA0303 		bic	r3, r5, r3
 991              	.LVL101:
 992 00ec 2360     		str	r3, [r4]
 993              		.loc 1 428 0
 994 00ee 70BD     		pop	{r4, r5, r6, pc}
 995              	.LVL102:
 996              	.L112:
 391:Libraries/STM32F10x_StdPeriph_Driver/src/stm32f10x_usart.c ****   assert_param(IS_FUNCTIONAL_STATE(NewState));
 997              		.loc 1 391 0 discriminator 8
 998 00f0 40F28711 		movw	r1, #391
 999 00f4 074B     		ldr	r3, .L115+8
 1000 00f6 0648     		ldr	r0, .L115+4
 1001 00f8 9847     		blx	r3
 1002              	.LVL103:
 1003 00fa B9E7     		b	.L90
 1004              	.L91:
 392:Libraries/STM32F10x_StdPeriph_Driver/src/stm32f10x_usart.c ****   /* The CTS interrupt is not available for UART4 and UART5 */
 1005              		.loc 1 392 0
 1006 00fc 012E     		cmp	r6, #1
 1007 00fe D5D9     		bls	.L101
 1008 0100 4FF4C471 		mov	r1, #392
 1009 0104 034B     		ldr	r3, .L115+8
 1010 0106 0248     		ldr	r0, .L115+4
 1011 0108 9847     		blx	r3
 1012              	.LVL104:
 1013 010a CFE7     		b	.L101
 1014              	.L116:
 1015              		.align	2
 1016              	.L115:
 1017 010c 00380140 		.word	1073821696
 1018 0110 00000000 		.word	.LC0
 1019 0114 00000000 		.word	assert_failed
 1020              		.cfi_endproc
 1021              	.LFE35:
 1023              		.section	.text.USART_DMACmd,"ax",%progbits
 1024              		.align	1
 1025              		.p2align 2,,3
 1026              		.global	USART_DMACmd
 1027              		.syntax unified
 1028              		.thumb
 1029              		.thumb_func
 1030              		.fpu softvfp
 1032              	USART_DMACmd:
 1033              	.LFB36:
 429:Libraries/STM32F10x_StdPeriph_Driver/src/stm32f10x_usart.c **** 
 430:Libraries/STM32F10x_StdPeriph_Driver/src/stm32f10x_usart.c **** /**
 431:Libraries/STM32F10x_StdPeriph_Driver/src/stm32f10x_usart.c ****   * @brief  Enables or disables the USARTs DMA interface.
 432:Libraries/STM32F10x_StdPeriph_Driver/src/stm32f10x_usart.c ****   * @param  USARTx: Select the USART or the UART peripheral. 
 433:Libraries/STM32F10x_StdPeriph_Driver/src/stm32f10x_usart.c ****   *   This parameter can be one of the following values:
 434:Libraries/STM32F10x_StdPeriph_Driver/src/stm32f10x_usart.c ****   *   USART1, USART2, USART3 or UART4.  
 435:Libraries/STM32F10x_StdPeriph_Driver/src/stm32f10x_usart.c ****   * @param  USART_DMAReq: specifies the DMA request.
 436:Libraries/STM32F10x_StdPeriph_Driver/src/stm32f10x_usart.c ****   *   This parameter can be any combination of the following values:
 437:Libraries/STM32F10x_StdPeriph_Driver/src/stm32f10x_usart.c ****   *     @arg USART_DMAReq_Tx: USART DMA transmit request
 438:Libraries/STM32F10x_StdPeriph_Driver/src/stm32f10x_usart.c ****   *     @arg USART_DMAReq_Rx: USART DMA receive request
 439:Libraries/STM32F10x_StdPeriph_Driver/src/stm32f10x_usart.c ****   * @param  NewState: new state of the DMA Request sources.
 440:Libraries/STM32F10x_StdPeriph_Driver/src/stm32f10x_usart.c ****   *   This parameter can be: ENABLE or DISABLE.
 441:Libraries/STM32F10x_StdPeriph_Driver/src/stm32f10x_usart.c ****   * @note The DMA mode is not available for UART5.  
 442:Libraries/STM32F10x_StdPeriph_Driver/src/stm32f10x_usart.c ****   * @retval None
 443:Libraries/STM32F10x_StdPeriph_Driver/src/stm32f10x_usart.c ****   */
 444:Libraries/STM32F10x_StdPeriph_Driver/src/stm32f10x_usart.c **** void USART_DMACmd(USART_TypeDef* USARTx, uint16_t USART_DMAReq, FunctionalState NewState)
 445:Libraries/STM32F10x_StdPeriph_Driver/src/stm32f10x_usart.c **** {
 1034              		.loc 1 445 0
 1035              		.cfi_startproc
 1036              		@ args = 0, pretend = 0, frame = 0
 1037              		@ frame_needed = 0, uses_anonymous_args = 0
 1038              	.LVL105:
 446:Libraries/STM32F10x_StdPeriph_Driver/src/stm32f10x_usart.c ****   /* Check the parameters */
 447:Libraries/STM32F10x_StdPeriph_Driver/src/stm32f10x_usart.c ****   assert_param(IS_USART_1234_PERIPH(USARTx));
 1039              		.loc 1 447 0
 1040 0000 194B     		ldr	r3, .L127
 445:Libraries/STM32F10x_StdPeriph_Driver/src/stm32f10x_usart.c ****   /* Check the parameters */
 1041              		.loc 1 445 0
 1042 0002 70B5     		push	{r4, r5, r6, lr}
 1043              		.cfi_def_cfa_offset 16
 1044              		.cfi_offset 4, -16
 1045              		.cfi_offset 5, -12
 1046              		.cfi_offset 6, -8
 1047              		.cfi_offset 14, -4
 1048              		.loc 1 447 0
 1049 0004 9842     		cmp	r0, r3
 445:Libraries/STM32F10x_StdPeriph_Driver/src/stm32f10x_usart.c ****   /* Check the parameters */
 1050              		.loc 1 445 0
 1051 0006 0446     		mov	r4, r0
 1052 0008 0D46     		mov	r5, r1
 1053 000a 1646     		mov	r6, r2
 1054              		.loc 1 447 0
 1055 000c 10D0     		beq	.L118
 1056              		.loc 1 447 0 is_stmt 0 discriminator 1
 1057 000e A3F57443 		sub	r3, r3, #62464
 1058 0012 9842     		cmp	r0, r3
 1059 0014 0CD0     		beq	.L118
 1060              		.loc 1 447 0 discriminator 2
 1061 0016 03F58063 		add	r3, r3, #1024
 1062 001a 9842     		cmp	r0, r3
 1063 001c 08D0     		beq	.L118
 1064              		.loc 1 447 0 discriminator 3
 1065 001e 03F58063 		add	r3, r3, #1024
 1066 0022 9842     		cmp	r0, r3
 1067 0024 04D0     		beq	.L118
 1068              		.loc 1 447 0 discriminator 4
 1069 0026 40F2BF11 		movw	r1, #447
 1070              	.LVL106:
 1071 002a 1048     		ldr	r0, .L127+4
 1072              	.LVL107:
 1073 002c 104B     		ldr	r3, .L127+8
 1074 002e 9847     		blx	r3
 1075              	.LVL108:
 1076              	.L118:
 448:Libraries/STM32F10x_StdPeriph_Driver/src/stm32f10x_usart.c ****   assert_param(IS_USART_DMAREQ(USART_DMAReq));  
 1077              		.loc 1 448 0 is_stmt 1
 1078 0030 25F0C003 		bic	r3, r5, #192
 1079 0034 43B9     		cbnz	r3, .L119
 1080              		.loc 1 448 0 is_stmt 0 discriminator 2
 1081 0036 3DB1     		cbz	r5, .L119
 449:Libraries/STM32F10x_StdPeriph_Driver/src/stm32f10x_usart.c ****   assert_param(IS_FUNCTIONAL_STATE(NewState)); 
 1082              		.loc 1 449 0 is_stmt 1
 1083 0038 012E     		cmp	r6, #1
 1084 003a 0CD8     		bhi	.L126
 1085              	.L121:
 450:Libraries/STM32F10x_StdPeriph_Driver/src/stm32f10x_usart.c ****   if (NewState != DISABLE)
 1086              		.loc 1 450 0
 1087 003c 86B9     		cbnz	r6, .L122
 451:Libraries/STM32F10x_StdPeriph_Driver/src/stm32f10x_usart.c ****   {
 452:Libraries/STM32F10x_StdPeriph_Driver/src/stm32f10x_usart.c ****     /* Enable the DMA transfer for selected requests by setting the DMAT and/or
 453:Libraries/STM32F10x_StdPeriph_Driver/src/stm32f10x_usart.c ****        DMAR bits in the USART CR3 register */
 454:Libraries/STM32F10x_StdPeriph_Driver/src/stm32f10x_usart.c ****     USARTx->CR3 |= USART_DMAReq;
 455:Libraries/STM32F10x_StdPeriph_Driver/src/stm32f10x_usart.c ****   }
 456:Libraries/STM32F10x_StdPeriph_Driver/src/stm32f10x_usart.c ****   else
 457:Libraries/STM32F10x_StdPeriph_Driver/src/stm32f10x_usart.c ****   {
 458:Libraries/STM32F10x_StdPeriph_Driver/src/stm32f10x_usart.c ****     /* Disable the DMA transfer for selected requests by clearing the DMAT and/or
 459:Libraries/STM32F10x_StdPeriph_Driver/src/stm32f10x_usart.c ****        DMAR bits in the USART CR3 register */
 460:Libraries/STM32F10x_StdPeriph_Driver/src/stm32f10x_usart.c ****     USARTx->CR3 &= (uint16_t)~USART_DMAReq;
 1088              		.loc 1 460 0
 1089 003e A38A     		ldrh	r3, [r4, #20]
 1090 0040 23EA0505 		bic	r5, r3, r5
 1091 0044 A582     		strh	r5, [r4, #20]	@ movhi
 461:Libraries/STM32F10x_StdPeriph_Driver/src/stm32f10x_usart.c ****   }
 462:Libraries/STM32F10x_StdPeriph_Driver/src/stm32f10x_usart.c **** }
 1092              		.loc 1 462 0
 1093 0046 70BD     		pop	{r4, r5, r6, pc}
 1094              	.LVL109:
 1095              	.L119:
 448:Libraries/STM32F10x_StdPeriph_Driver/src/stm32f10x_usart.c ****   assert_param(IS_FUNCTIONAL_STATE(NewState)); 
 1096              		.loc 1 448 0 discriminator 3
 1097 0048 4FF4E071 		mov	r1, #448
 1098 004c 0748     		ldr	r0, .L127+4
 1099 004e 084B     		ldr	r3, .L127+8
 1100 0050 9847     		blx	r3
 1101              	.LVL110:
 449:Libraries/STM32F10x_StdPeriph_Driver/src/stm32f10x_usart.c ****   if (NewState != DISABLE)
 1102              		.loc 1 449 0 discriminator 3
 1103 0052 012E     		cmp	r6, #1
 1104 0054 F2D9     		bls	.L121
 1105              	.L126:
 449:Libraries/STM32F10x_StdPeriph_Driver/src/stm32f10x_usart.c ****   if (NewState != DISABLE)
 1106              		.loc 1 449 0 is_stmt 0 discriminator 1
 1107 0056 40F2C111 		movw	r1, #449
 1108 005a 0448     		ldr	r0, .L127+4
 1109 005c 044B     		ldr	r3, .L127+8
 1110 005e 9847     		blx	r3
 1111              	.LVL111:
 1112              	.L122:
 454:Libraries/STM32F10x_StdPeriph_Driver/src/stm32f10x_usart.c ****   }
 1113              		.loc 1 454 0 is_stmt 1
 1114 0060 A38A     		ldrh	r3, [r4, #20]
 1115 0062 1D43     		orrs	r5, r5, r3
 1116 0064 A582     		strh	r5, [r4, #20]	@ movhi
 1117              		.loc 1 462 0
 1118 0066 70BD     		pop	{r4, r5, r6, pc}
 1119              	.LVL112:
 1120              	.L128:
 1121              		.align	2
 1122              	.L127:
 1123 0068 00380140 		.word	1073821696
 1124 006c 00000000 		.word	.LC0
 1125 0070 00000000 		.word	assert_failed
 1126              		.cfi_endproc
 1127              	.LFE36:
 1129              		.section	.text.USART_SetAddress,"ax",%progbits
 1130              		.align	1
 1131              		.p2align 2,,3
 1132              		.global	USART_SetAddress
 1133              		.syntax unified
 1134              		.thumb
 1135              		.thumb_func
 1136              		.fpu softvfp
 1138              	USART_SetAddress:
 1139              	.LFB37:
 463:Libraries/STM32F10x_StdPeriph_Driver/src/stm32f10x_usart.c **** 
 464:Libraries/STM32F10x_StdPeriph_Driver/src/stm32f10x_usart.c **** /**
 465:Libraries/STM32F10x_StdPeriph_Driver/src/stm32f10x_usart.c ****   * @brief  Sets the address of the USART node.
 466:Libraries/STM32F10x_StdPeriph_Driver/src/stm32f10x_usart.c ****   * @param  USARTx: Select the USART or the UART peripheral. 
 467:Libraries/STM32F10x_StdPeriph_Driver/src/stm32f10x_usart.c ****   *   This parameter can be one of the following values:
 468:Libraries/STM32F10x_StdPeriph_Driver/src/stm32f10x_usart.c ****   *   USART1, USART2, USART3, UART4 or UART5.
 469:Libraries/STM32F10x_StdPeriph_Driver/src/stm32f10x_usart.c ****   * @param  USART_Address: Indicates the address of the USART node.
 470:Libraries/STM32F10x_StdPeriph_Driver/src/stm32f10x_usart.c ****   * @retval None
 471:Libraries/STM32F10x_StdPeriph_Driver/src/stm32f10x_usart.c ****   */
 472:Libraries/STM32F10x_StdPeriph_Driver/src/stm32f10x_usart.c **** void USART_SetAddress(USART_TypeDef* USARTx, uint8_t USART_Address)
 473:Libraries/STM32F10x_StdPeriph_Driver/src/stm32f10x_usart.c **** {
 1140              		.loc 1 473 0
 1141              		.cfi_startproc
 1142              		@ args = 0, pretend = 0, frame = 0
 1143              		@ frame_needed = 0, uses_anonymous_args = 0
 1144              	.LVL113:
 1145 0000 38B5     		push	{r3, r4, r5, lr}
 1146              		.cfi_def_cfa_offset 16
 1147              		.cfi_offset 3, -16
 1148              		.cfi_offset 4, -12
 1149              		.cfi_offset 5, -8
 1150              		.cfi_offset 14, -4
 474:Libraries/STM32F10x_StdPeriph_Driver/src/stm32f10x_usart.c ****   /* Check the parameters */
 475:Libraries/STM32F10x_StdPeriph_Driver/src/stm32f10x_usart.c ****   assert_param(IS_USART_ALL_PERIPH(USARTx));
 1151              		.loc 1 475 0
 1152 0002 154B     		ldr	r3, .L133
 473:Libraries/STM32F10x_StdPeriph_Driver/src/stm32f10x_usart.c ****   /* Check the parameters */
 1153              		.loc 1 473 0
 1154 0004 0446     		mov	r4, r0
 1155              		.loc 1 475 0
 1156 0006 9842     		cmp	r0, r3
 473:Libraries/STM32F10x_StdPeriph_Driver/src/stm32f10x_usart.c ****   /* Check the parameters */
 1157              		.loc 1 473 0
 1158 0008 0D46     		mov	r5, r1
 1159              		.loc 1 475 0
 1160 000a 14D0     		beq	.L130
 1161              		.loc 1 475 0 is_stmt 0 discriminator 1
 1162 000c A3F57443 		sub	r3, r3, #62464
 1163 0010 9842     		cmp	r0, r3
 1164 0012 10D0     		beq	.L130
 1165              		.loc 1 475 0 discriminator 2
 1166 0014 03F58063 		add	r3, r3, #1024
 1167 0018 9842     		cmp	r0, r3
 1168 001a 0CD0     		beq	.L130
 1169              		.loc 1 475 0 discriminator 3
 1170 001c 03F58063 		add	r3, r3, #1024
 1171 0020 9842     		cmp	r0, r3
 1172 0022 08D0     		beq	.L130
 1173              		.loc 1 475 0 discriminator 4
 1174 0024 03F58063 		add	r3, r3, #1024
 1175 0028 9842     		cmp	r0, r3
 1176 002a 04D0     		beq	.L130
 1177              		.loc 1 475 0 discriminator 5
 1178 002c 40F2DB11 		movw	r1, #475
 1179              	.LVL114:
 1180 0030 0A48     		ldr	r0, .L133+4
 1181              	.LVL115:
 1182 0032 0B4B     		ldr	r3, .L133+8
 1183 0034 9847     		blx	r3
 1184              	.LVL116:
 1185              	.L130:
 476:Libraries/STM32F10x_StdPeriph_Driver/src/stm32f10x_usart.c ****   assert_param(IS_USART_ADDRESS(USART_Address)); 
 1186              		.loc 1 476 0 is_stmt 1
 1187 0036 0F2D     		cmp	r5, #15
 1188 0038 04D9     		bls	.L131
 1189              		.loc 1 476 0 is_stmt 0 discriminator 1
 1190 003a 4FF4EE71 		mov	r1, #476
 1191 003e 0748     		ldr	r0, .L133+4
 1192 0040 074B     		ldr	r3, .L133+8
 1193 0042 9847     		blx	r3
 1194              	.LVL117:
 1195              	.L131:
 477:Libraries/STM32F10x_StdPeriph_Driver/src/stm32f10x_usart.c ****     
 478:Libraries/STM32F10x_StdPeriph_Driver/src/stm32f10x_usart.c ****   /* Clear the USART address */
 479:Libraries/STM32F10x_StdPeriph_Driver/src/stm32f10x_usart.c ****   USARTx->CR2 &= CR2_Address_Mask;
 1196              		.loc 1 479 0 is_stmt 1
 1197 0044 238A     		ldrh	r3, [r4, #16]
 1198 0046 23F00F03 		bic	r3, r3, #15
 1199 004a 1B04     		lsls	r3, r3, #16
 1200 004c 1B0C     		lsrs	r3, r3, #16
 1201 004e 2382     		strh	r3, [r4, #16]	@ movhi
 480:Libraries/STM32F10x_StdPeriph_Driver/src/stm32f10x_usart.c ****   /* Set the USART address node */
 481:Libraries/STM32F10x_StdPeriph_Driver/src/stm32f10x_usart.c ****   USARTx->CR2 |= USART_Address;
 1202              		.loc 1 481 0
 1203 0050 238A     		ldrh	r3, [r4, #16]
 1204 0052 1D43     		orrs	r5, r5, r3
 1205 0054 2582     		strh	r5, [r4, #16]	@ movhi
 482:Libraries/STM32F10x_StdPeriph_Driver/src/stm32f10x_usart.c **** }
 1206              		.loc 1 482 0
 1207 0056 38BD     		pop	{r3, r4, r5, pc}
 1208              	.LVL118:
 1209              	.L134:
 1210              		.align	2
 1211              	.L133:
 1212 0058 00380140 		.word	1073821696
 1213 005c 00000000 		.word	.LC0
 1214 0060 00000000 		.word	assert_failed
 1215              		.cfi_endproc
 1216              	.LFE37:
 1218              		.section	.text.USART_WakeUpConfig,"ax",%progbits
 1219              		.align	1
 1220              		.p2align 2,,3
 1221              		.global	USART_WakeUpConfig
 1222              		.syntax unified
 1223              		.thumb
 1224              		.thumb_func
 1225              		.fpu softvfp
 1227              	USART_WakeUpConfig:
 1228              	.LFB38:
 483:Libraries/STM32F10x_StdPeriph_Driver/src/stm32f10x_usart.c **** 
 484:Libraries/STM32F10x_StdPeriph_Driver/src/stm32f10x_usart.c **** /**
 485:Libraries/STM32F10x_StdPeriph_Driver/src/stm32f10x_usart.c ****   * @brief  Selects the USART WakeUp method.
 486:Libraries/STM32F10x_StdPeriph_Driver/src/stm32f10x_usart.c ****   * @param  USARTx: Select the USART or the UART peripheral. 
 487:Libraries/STM32F10x_StdPeriph_Driver/src/stm32f10x_usart.c ****   *   This parameter can be one of the following values:
 488:Libraries/STM32F10x_StdPeriph_Driver/src/stm32f10x_usart.c ****   *   USART1, USART2, USART3, UART4 or UART5.
 489:Libraries/STM32F10x_StdPeriph_Driver/src/stm32f10x_usart.c ****   * @param  USART_WakeUp: specifies the USART wakeup method.
 490:Libraries/STM32F10x_StdPeriph_Driver/src/stm32f10x_usart.c ****   *   This parameter can be one of the following values:
 491:Libraries/STM32F10x_StdPeriph_Driver/src/stm32f10x_usart.c ****   *     @arg USART_WakeUp_IdleLine: WakeUp by an idle line detection
 492:Libraries/STM32F10x_StdPeriph_Driver/src/stm32f10x_usart.c ****   *     @arg USART_WakeUp_AddressMark: WakeUp by an address mark
 493:Libraries/STM32F10x_StdPeriph_Driver/src/stm32f10x_usart.c ****   * @retval None
 494:Libraries/STM32F10x_StdPeriph_Driver/src/stm32f10x_usart.c ****   */
 495:Libraries/STM32F10x_StdPeriph_Driver/src/stm32f10x_usart.c **** void USART_WakeUpConfig(USART_TypeDef* USARTx, uint16_t USART_WakeUp)
 496:Libraries/STM32F10x_StdPeriph_Driver/src/stm32f10x_usart.c **** {
 1229              		.loc 1 496 0
 1230              		.cfi_startproc
 1231              		@ args = 0, pretend = 0, frame = 0
 1232              		@ frame_needed = 0, uses_anonymous_args = 0
 1233              	.LVL119:
 1234 0000 38B5     		push	{r3, r4, r5, lr}
 1235              		.cfi_def_cfa_offset 16
 1236              		.cfi_offset 3, -16
 1237              		.cfi_offset 4, -12
 1238              		.cfi_offset 5, -8
 1239              		.cfi_offset 14, -4
 497:Libraries/STM32F10x_StdPeriph_Driver/src/stm32f10x_usart.c ****   /* Check the parameters */
 498:Libraries/STM32F10x_StdPeriph_Driver/src/stm32f10x_usart.c ****   assert_param(IS_USART_ALL_PERIPH(USARTx));
 1240              		.loc 1 498 0
 1241 0002 164B     		ldr	r3, .L142
 496:Libraries/STM32F10x_StdPeriph_Driver/src/stm32f10x_usart.c ****   /* Check the parameters */
 1242              		.loc 1 496 0
 1243 0004 0446     		mov	r4, r0
 1244              		.loc 1 498 0
 1245 0006 9842     		cmp	r0, r3
 496:Libraries/STM32F10x_StdPeriph_Driver/src/stm32f10x_usart.c ****   /* Check the parameters */
 1246              		.loc 1 496 0
 1247 0008 0D46     		mov	r5, r1
 1248              		.loc 1 498 0
 1249 000a 14D0     		beq	.L136
 1250              		.loc 1 498 0 is_stmt 0 discriminator 1
 1251 000c A3F57443 		sub	r3, r3, #62464
 1252 0010 9842     		cmp	r0, r3
 1253 0012 10D0     		beq	.L136
 1254              		.loc 1 498 0 discriminator 2
 1255 0014 03F58063 		add	r3, r3, #1024
 1256 0018 9842     		cmp	r0, r3
 1257 001a 0CD0     		beq	.L136
 1258              		.loc 1 498 0 discriminator 3
 1259 001c 03F58063 		add	r3, r3, #1024
 1260 0020 9842     		cmp	r0, r3
 1261 0022 08D0     		beq	.L136
 1262              		.loc 1 498 0 discriminator 4
 1263 0024 03F58063 		add	r3, r3, #1024
 1264 0028 9842     		cmp	r0, r3
 1265 002a 04D0     		beq	.L136
 1266              		.loc 1 498 0 discriminator 5
 1267 002c 4FF4F971 		mov	r1, #498
 1268              	.LVL120:
 1269 0030 0B48     		ldr	r0, .L142+4
 1270              	.LVL121:
 1271 0032 0C4B     		ldr	r3, .L142+8
 1272 0034 9847     		blx	r3
 1273              	.LVL122:
 1274              	.L136:
 499:Libraries/STM32F10x_StdPeriph_Driver/src/stm32f10x_usart.c ****   assert_param(IS_USART_WAKEUP(USART_WakeUp));
 1275              		.loc 1 499 0 is_stmt 1
 1276 0036 25F40063 		bic	r3, r5, #2048
 1277 003a 23B1     		cbz	r3, .L137
 1278              		.loc 1 499 0 is_stmt 0 discriminator 2
 1279 003c 40F2F311 		movw	r1, #499
 1280 0040 0748     		ldr	r0, .L142+4
 1281 0042 084B     		ldr	r3, .L142+8
 1282 0044 9847     		blx	r3
 1283              	.LVL123:
 1284              	.L137:
 500:Libraries/STM32F10x_StdPeriph_Driver/src/stm32f10x_usart.c ****   
 501:Libraries/STM32F10x_StdPeriph_Driver/src/stm32f10x_usart.c ****   USARTx->CR1 &= CR1_WAKE_Mask;
 1285              		.loc 1 501 0 is_stmt 1
 1286 0046 A389     		ldrh	r3, [r4, #12]
 1287 0048 23F40063 		bic	r3, r3, #2048
 1288 004c 1B04     		lsls	r3, r3, #16
 1289 004e 1B0C     		lsrs	r3, r3, #16
 1290 0050 A381     		strh	r3, [r4, #12]	@ movhi
 502:Libraries/STM32F10x_StdPeriph_Driver/src/stm32f10x_usart.c ****   USARTx->CR1 |= USART_WakeUp;
 1291              		.loc 1 502 0
 1292 0052 A389     		ldrh	r3, [r4, #12]
 1293 0054 1D43     		orrs	r5, r5, r3
 1294 0056 A581     		strh	r5, [r4, #12]	@ movhi
 503:Libraries/STM32F10x_StdPeriph_Driver/src/stm32f10x_usart.c **** }
 1295              		.loc 1 503 0
 1296 0058 38BD     		pop	{r3, r4, r5, pc}
 1297              	.LVL124:
 1298              	.L143:
 1299 005a 00BF     		.align	2
 1300              	.L142:
 1301 005c 00380140 		.word	1073821696
 1302 0060 00000000 		.word	.LC0
 1303 0064 00000000 		.word	assert_failed
 1304              		.cfi_endproc
 1305              	.LFE38:
 1307              		.section	.text.USART_ReceiverWakeUpCmd,"ax",%progbits
 1308              		.align	1
 1309              		.p2align 2,,3
 1310              		.global	USART_ReceiverWakeUpCmd
 1311              		.syntax unified
 1312              		.thumb
 1313              		.thumb_func
 1314              		.fpu softvfp
 1316              	USART_ReceiverWakeUpCmd:
 1317              	.LFB39:
 504:Libraries/STM32F10x_StdPeriph_Driver/src/stm32f10x_usart.c **** 
 505:Libraries/STM32F10x_StdPeriph_Driver/src/stm32f10x_usart.c **** /**
 506:Libraries/STM32F10x_StdPeriph_Driver/src/stm32f10x_usart.c ****   * @brief  Determines if the USART is in mute mode or not.
 507:Libraries/STM32F10x_StdPeriph_Driver/src/stm32f10x_usart.c ****   * @param  USARTx: Select the USART or the UART peripheral. 
 508:Libraries/STM32F10x_StdPeriph_Driver/src/stm32f10x_usart.c ****   *   This parameter can be one of the following values:
 509:Libraries/STM32F10x_StdPeriph_Driver/src/stm32f10x_usart.c ****   *   USART1, USART2, USART3, UART4 or UART5.
 510:Libraries/STM32F10x_StdPeriph_Driver/src/stm32f10x_usart.c ****   * @param  NewState: new state of the USART mute mode.
 511:Libraries/STM32F10x_StdPeriph_Driver/src/stm32f10x_usart.c ****   *   This parameter can be: ENABLE or DISABLE.
 512:Libraries/STM32F10x_StdPeriph_Driver/src/stm32f10x_usart.c ****   * @retval None
 513:Libraries/STM32F10x_StdPeriph_Driver/src/stm32f10x_usart.c ****   */
 514:Libraries/STM32F10x_StdPeriph_Driver/src/stm32f10x_usart.c **** void USART_ReceiverWakeUpCmd(USART_TypeDef* USARTx, FunctionalState NewState)
 515:Libraries/STM32F10x_StdPeriph_Driver/src/stm32f10x_usart.c **** {
 1318              		.loc 1 515 0
 1319              		.cfi_startproc
 1320              		@ args = 0, pretend = 0, frame = 0
 1321              		@ frame_needed = 0, uses_anonymous_args = 0
 1322              	.LVL125:
 1323 0000 38B5     		push	{r3, r4, r5, lr}
 1324              		.cfi_def_cfa_offset 16
 1325              		.cfi_offset 3, -16
 1326              		.cfi_offset 4, -12
 1327              		.cfi_offset 5, -8
 1328              		.cfi_offset 14, -4
 516:Libraries/STM32F10x_StdPeriph_Driver/src/stm32f10x_usart.c ****   /* Check the parameters */
 517:Libraries/STM32F10x_StdPeriph_Driver/src/stm32f10x_usart.c ****   assert_param(IS_USART_ALL_PERIPH(USARTx));
 1329              		.loc 1 517 0
 1330 0002 174B     		ldr	r3, .L152
 515:Libraries/STM32F10x_StdPeriph_Driver/src/stm32f10x_usart.c ****   /* Check the parameters */
 1331              		.loc 1 515 0
 1332 0004 0446     		mov	r4, r0
 1333              		.loc 1 517 0
 1334 0006 9842     		cmp	r0, r3
 515:Libraries/STM32F10x_StdPeriph_Driver/src/stm32f10x_usart.c ****   /* Check the parameters */
 1335              		.loc 1 515 0
 1336 0008 0D46     		mov	r5, r1
 1337              		.loc 1 517 0
 1338 000a 14D0     		beq	.L145
 1339              		.loc 1 517 0 is_stmt 0 discriminator 1
 1340 000c A3F57443 		sub	r3, r3, #62464
 1341 0010 9842     		cmp	r0, r3
 1342 0012 10D0     		beq	.L145
 1343              		.loc 1 517 0 discriminator 2
 1344 0014 03F58063 		add	r3, r3, #1024
 1345 0018 9842     		cmp	r0, r3
 1346 001a 0CD0     		beq	.L145
 1347              		.loc 1 517 0 discriminator 3
 1348 001c 03F58063 		add	r3, r3, #1024
 1349 0020 9842     		cmp	r0, r3
 1350 0022 08D0     		beq	.L145
 1351              		.loc 1 517 0 discriminator 4
 1352 0024 03F58063 		add	r3, r3, #1024
 1353 0028 9842     		cmp	r0, r3
 1354 002a 04D0     		beq	.L145
 1355              		.loc 1 517 0 discriminator 5
 1356 002c 40F20521 		movw	r1, #517
 1357              	.LVL126:
 1358 0030 0C48     		ldr	r0, .L152+4
 1359              	.LVL127:
 1360 0032 0D4B     		ldr	r3, .L152+8
 1361 0034 9847     		blx	r3
 1362              	.LVL128:
 1363              	.L145:
 518:Libraries/STM32F10x_StdPeriph_Driver/src/stm32f10x_usart.c ****   assert_param(IS_FUNCTIONAL_STATE(NewState)); 
 1364              		.loc 1 518 0 is_stmt 1
 1365 0036 012D     		cmp	r5, #1
 1366 0038 07D8     		bhi	.L151
 519:Libraries/STM32F10x_StdPeriph_Driver/src/stm32f10x_usart.c ****   
 520:Libraries/STM32F10x_StdPeriph_Driver/src/stm32f10x_usart.c ****   if (NewState != DISABLE)
 1367              		.loc 1 520 0
 1368 003a 5DB9     		cbnz	r5, .L147
 521:Libraries/STM32F10x_StdPeriph_Driver/src/stm32f10x_usart.c ****   {
 522:Libraries/STM32F10x_StdPeriph_Driver/src/stm32f10x_usart.c ****     /* Enable the USART mute mode  by setting the RWU bit in the CR1 register */
 523:Libraries/STM32F10x_StdPeriph_Driver/src/stm32f10x_usart.c ****     USARTx->CR1 |= CR1_RWU_Set;
 524:Libraries/STM32F10x_StdPeriph_Driver/src/stm32f10x_usart.c ****   }
 525:Libraries/STM32F10x_StdPeriph_Driver/src/stm32f10x_usart.c ****   else
 526:Libraries/STM32F10x_StdPeriph_Driver/src/stm32f10x_usart.c ****   {
 527:Libraries/STM32F10x_StdPeriph_Driver/src/stm32f10x_usart.c ****     /* Disable the USART mute mode by clearing the RWU bit in the CR1 register */
 528:Libraries/STM32F10x_StdPeriph_Driver/src/stm32f10x_usart.c ****     USARTx->CR1 &= CR1_RWU_Reset;
 1369              		.loc 1 528 0
 1370 003c A389     		ldrh	r3, [r4, #12]
 1371 003e 23F00203 		bic	r3, r3, #2
 1372 0042 1B04     		lsls	r3, r3, #16
 1373 0044 1B0C     		lsrs	r3, r3, #16
 1374 0046 A381     		strh	r3, [r4, #12]	@ movhi
 529:Libraries/STM32F10x_StdPeriph_Driver/src/stm32f10x_usart.c ****   }
 530:Libraries/STM32F10x_StdPeriph_Driver/src/stm32f10x_usart.c **** }
 1375              		.loc 1 530 0
 1376 0048 38BD     		pop	{r3, r4, r5, pc}
 1377              	.LVL129:
 1378              	.L151:
 518:Libraries/STM32F10x_StdPeriph_Driver/src/stm32f10x_usart.c ****   
 1379              		.loc 1 518 0 discriminator 1
 1380 004a 40F20621 		movw	r1, #518
 1381 004e 0548     		ldr	r0, .L152+4
 1382 0050 054B     		ldr	r3, .L152+8
 1383 0052 9847     		blx	r3
 1384              	.LVL130:
 1385              	.L147:
 523:Libraries/STM32F10x_StdPeriph_Driver/src/stm32f10x_usart.c ****   }
 1386              		.loc 1 523 0
 1387 0054 A389     		ldrh	r3, [r4, #12]
 1388 0056 43F00203 		orr	r3, r3, #2
 1389 005a A381     		strh	r3, [r4, #12]	@ movhi
 1390              		.loc 1 530 0
 1391 005c 38BD     		pop	{r3, r4, r5, pc}
 1392              	.LVL131:
 1393              	.L153:
 1394 005e 00BF     		.align	2
 1395              	.L152:
 1396 0060 00380140 		.word	1073821696
 1397 0064 00000000 		.word	.LC0
 1398 0068 00000000 		.word	assert_failed
 1399              		.cfi_endproc
 1400              	.LFE39:
 1402              		.section	.text.USART_LINBreakDetectLengthConfig,"ax",%progbits
 1403              		.align	1
 1404              		.p2align 2,,3
 1405              		.global	USART_LINBreakDetectLengthConfig
 1406              		.syntax unified
 1407              		.thumb
 1408              		.thumb_func
 1409              		.fpu softvfp
 1411              	USART_LINBreakDetectLengthConfig:
 1412              	.LFB40:
 531:Libraries/STM32F10x_StdPeriph_Driver/src/stm32f10x_usart.c **** 
 532:Libraries/STM32F10x_StdPeriph_Driver/src/stm32f10x_usart.c **** /**
 533:Libraries/STM32F10x_StdPeriph_Driver/src/stm32f10x_usart.c ****   * @brief  Sets the USART LIN Break detection length.
 534:Libraries/STM32F10x_StdPeriph_Driver/src/stm32f10x_usart.c ****   * @param  USARTx: Select the USART or the UART peripheral. 
 535:Libraries/STM32F10x_StdPeriph_Driver/src/stm32f10x_usart.c ****   *   This parameter can be one of the following values:
 536:Libraries/STM32F10x_StdPeriph_Driver/src/stm32f10x_usart.c ****   *   USART1, USART2, USART3, UART4 or UART5.
 537:Libraries/STM32F10x_StdPeriph_Driver/src/stm32f10x_usart.c ****   * @param  USART_LINBreakDetectLength: specifies the LIN break detection length.
 538:Libraries/STM32F10x_StdPeriph_Driver/src/stm32f10x_usart.c ****   *   This parameter can be one of the following values:
 539:Libraries/STM32F10x_StdPeriph_Driver/src/stm32f10x_usart.c ****   *     @arg USART_LINBreakDetectLength_10b: 10-bit break detection
 540:Libraries/STM32F10x_StdPeriph_Driver/src/stm32f10x_usart.c ****   *     @arg USART_LINBreakDetectLength_11b: 11-bit break detection
 541:Libraries/STM32F10x_StdPeriph_Driver/src/stm32f10x_usart.c ****   * @retval None
 542:Libraries/STM32F10x_StdPeriph_Driver/src/stm32f10x_usart.c ****   */
 543:Libraries/STM32F10x_StdPeriph_Driver/src/stm32f10x_usart.c **** void USART_LINBreakDetectLengthConfig(USART_TypeDef* USARTx, uint16_t USART_LINBreakDetectLength)
 544:Libraries/STM32F10x_StdPeriph_Driver/src/stm32f10x_usart.c **** {
 1413              		.loc 1 544 0
 1414              		.cfi_startproc
 1415              		@ args = 0, pretend = 0, frame = 0
 1416              		@ frame_needed = 0, uses_anonymous_args = 0
 1417              	.LVL132:
 1418 0000 38B5     		push	{r3, r4, r5, lr}
 1419              		.cfi_def_cfa_offset 16
 1420              		.cfi_offset 3, -16
 1421              		.cfi_offset 4, -12
 1422              		.cfi_offset 5, -8
 1423              		.cfi_offset 14, -4
 545:Libraries/STM32F10x_StdPeriph_Driver/src/stm32f10x_usart.c ****   /* Check the parameters */
 546:Libraries/STM32F10x_StdPeriph_Driver/src/stm32f10x_usart.c ****   assert_param(IS_USART_ALL_PERIPH(USARTx));
 1424              		.loc 1 546 0
 1425 0002 164B     		ldr	r3, .L161
 544:Libraries/STM32F10x_StdPeriph_Driver/src/stm32f10x_usart.c ****   /* Check the parameters */
 1426              		.loc 1 544 0
 1427 0004 0446     		mov	r4, r0
 1428              		.loc 1 546 0
 1429 0006 9842     		cmp	r0, r3
 544:Libraries/STM32F10x_StdPeriph_Driver/src/stm32f10x_usart.c ****   /* Check the parameters */
 1430              		.loc 1 544 0
 1431 0008 0D46     		mov	r5, r1
 1432              		.loc 1 546 0
 1433 000a 14D0     		beq	.L155
 1434              		.loc 1 546 0 is_stmt 0 discriminator 1
 1435 000c A3F57443 		sub	r3, r3, #62464
 1436 0010 9842     		cmp	r0, r3
 1437 0012 10D0     		beq	.L155
 1438              		.loc 1 546 0 discriminator 2
 1439 0014 03F58063 		add	r3, r3, #1024
 1440 0018 9842     		cmp	r0, r3
 1441 001a 0CD0     		beq	.L155
 1442              		.loc 1 546 0 discriminator 3
 1443 001c 03F58063 		add	r3, r3, #1024
 1444 0020 9842     		cmp	r0, r3
 1445 0022 08D0     		beq	.L155
 1446              		.loc 1 546 0 discriminator 4
 1447 0024 03F58063 		add	r3, r3, #1024
 1448 0028 9842     		cmp	r0, r3
 1449 002a 04D0     		beq	.L155
 1450              		.loc 1 546 0 discriminator 5
 1451 002c 40F22221 		movw	r1, #546
 1452              	.LVL133:
 1453 0030 0B48     		ldr	r0, .L161+4
 1454              	.LVL134:
 1455 0032 0C4B     		ldr	r3, .L161+8
 1456 0034 9847     		blx	r3
 1457              	.LVL135:
 1458              	.L155:
 547:Libraries/STM32F10x_StdPeriph_Driver/src/stm32f10x_usart.c ****   assert_param(IS_USART_LIN_BREAK_DETECT_LENGTH(USART_LINBreakDetectLength));
 1459              		.loc 1 547 0 is_stmt 1
 1460 0036 25F02003 		bic	r3, r5, #32
 1461 003a 23B1     		cbz	r3, .L156
 1462              		.loc 1 547 0 is_stmt 0 discriminator 2
 1463 003c 40F22321 		movw	r1, #547
 1464 0040 0748     		ldr	r0, .L161+4
 1465 0042 084B     		ldr	r3, .L161+8
 1466 0044 9847     		blx	r3
 1467              	.LVL136:
 1468              	.L156:
 548:Libraries/STM32F10x_StdPeriph_Driver/src/stm32f10x_usart.c ****   
 549:Libraries/STM32F10x_StdPeriph_Driver/src/stm32f10x_usart.c ****   USARTx->CR2 &= CR2_LBDL_Mask;
 1469              		.loc 1 549 0 is_stmt 1
 1470 0046 238A     		ldrh	r3, [r4, #16]
 1471 0048 23F02003 		bic	r3, r3, #32
 1472 004c 1B04     		lsls	r3, r3, #16
 1473 004e 1B0C     		lsrs	r3, r3, #16
 1474 0050 2382     		strh	r3, [r4, #16]	@ movhi
 550:Libraries/STM32F10x_StdPeriph_Driver/src/stm32f10x_usart.c ****   USARTx->CR2 |= USART_LINBreakDetectLength;  
 1475              		.loc 1 550 0
 1476 0052 238A     		ldrh	r3, [r4, #16]
 1477 0054 1D43     		orrs	r5, r5, r3
 1478 0056 2582     		strh	r5, [r4, #16]	@ movhi
 551:Libraries/STM32F10x_StdPeriph_Driver/src/stm32f10x_usart.c **** }
 1479              		.loc 1 551 0
 1480 0058 38BD     		pop	{r3, r4, r5, pc}
 1481              	.LVL137:
 1482              	.L162:
 1483 005a 00BF     		.align	2
 1484              	.L161:
 1485 005c 00380140 		.word	1073821696
 1486 0060 00000000 		.word	.LC0
 1487 0064 00000000 		.word	assert_failed
 1488              		.cfi_endproc
 1489              	.LFE40:
 1491              		.section	.text.USART_LINCmd,"ax",%progbits
 1492              		.align	1
 1493              		.p2align 2,,3
 1494              		.global	USART_LINCmd
 1495              		.syntax unified
 1496              		.thumb
 1497              		.thumb_func
 1498              		.fpu softvfp
 1500              	USART_LINCmd:
 1501              	.LFB41:
 552:Libraries/STM32F10x_StdPeriph_Driver/src/stm32f10x_usart.c **** 
 553:Libraries/STM32F10x_StdPeriph_Driver/src/stm32f10x_usart.c **** /**
 554:Libraries/STM32F10x_StdPeriph_Driver/src/stm32f10x_usart.c ****   * @brief  Enables or disables the USARTs LIN mode.
 555:Libraries/STM32F10x_StdPeriph_Driver/src/stm32f10x_usart.c ****   * @param  USARTx: Select the USART or the UART peripheral. 
 556:Libraries/STM32F10x_StdPeriph_Driver/src/stm32f10x_usart.c ****   *   This parameter can be one of the following values:
 557:Libraries/STM32F10x_StdPeriph_Driver/src/stm32f10x_usart.c ****   *   USART1, USART2, USART3, UART4 or UART5.
 558:Libraries/STM32F10x_StdPeriph_Driver/src/stm32f10x_usart.c ****   * @param  NewState: new state of the USART LIN mode.
 559:Libraries/STM32F10x_StdPeriph_Driver/src/stm32f10x_usart.c ****   *   This parameter can be: ENABLE or DISABLE.
 560:Libraries/STM32F10x_StdPeriph_Driver/src/stm32f10x_usart.c ****   * @retval None
 561:Libraries/STM32F10x_StdPeriph_Driver/src/stm32f10x_usart.c ****   */
 562:Libraries/STM32F10x_StdPeriph_Driver/src/stm32f10x_usart.c **** void USART_LINCmd(USART_TypeDef* USARTx, FunctionalState NewState)
 563:Libraries/STM32F10x_StdPeriph_Driver/src/stm32f10x_usart.c **** {
 1502              		.loc 1 563 0
 1503              		.cfi_startproc
 1504              		@ args = 0, pretend = 0, frame = 0
 1505              		@ frame_needed = 0, uses_anonymous_args = 0
 1506              	.LVL138:
 1507 0000 38B5     		push	{r3, r4, r5, lr}
 1508              		.cfi_def_cfa_offset 16
 1509              		.cfi_offset 3, -16
 1510              		.cfi_offset 4, -12
 1511              		.cfi_offset 5, -8
 1512              		.cfi_offset 14, -4
 564:Libraries/STM32F10x_StdPeriph_Driver/src/stm32f10x_usart.c ****   /* Check the parameters */
 565:Libraries/STM32F10x_StdPeriph_Driver/src/stm32f10x_usart.c ****   assert_param(IS_USART_ALL_PERIPH(USARTx));
 1513              		.loc 1 565 0
 1514 0002 174B     		ldr	r3, .L171
 563:Libraries/STM32F10x_StdPeriph_Driver/src/stm32f10x_usart.c ****   /* Check the parameters */
 1515              		.loc 1 563 0
 1516 0004 0446     		mov	r4, r0
 1517              		.loc 1 565 0
 1518 0006 9842     		cmp	r0, r3
 563:Libraries/STM32F10x_StdPeriph_Driver/src/stm32f10x_usart.c ****   /* Check the parameters */
 1519              		.loc 1 563 0
 1520 0008 0D46     		mov	r5, r1
 1521              		.loc 1 565 0
 1522 000a 14D0     		beq	.L164
 1523              		.loc 1 565 0 is_stmt 0 discriminator 1
 1524 000c A3F57443 		sub	r3, r3, #62464
 1525 0010 9842     		cmp	r0, r3
 1526 0012 10D0     		beq	.L164
 1527              		.loc 1 565 0 discriminator 2
 1528 0014 03F58063 		add	r3, r3, #1024
 1529 0018 9842     		cmp	r0, r3
 1530 001a 0CD0     		beq	.L164
 1531              		.loc 1 565 0 discriminator 3
 1532 001c 03F58063 		add	r3, r3, #1024
 1533 0020 9842     		cmp	r0, r3
 1534 0022 08D0     		beq	.L164
 1535              		.loc 1 565 0 discriminator 4
 1536 0024 03F58063 		add	r3, r3, #1024
 1537 0028 9842     		cmp	r0, r3
 1538 002a 04D0     		beq	.L164
 1539              		.loc 1 565 0 discriminator 5
 1540 002c 40F23521 		movw	r1, #565
 1541              	.LVL139:
 1542 0030 0C48     		ldr	r0, .L171+4
 1543              	.LVL140:
 1544 0032 0D4B     		ldr	r3, .L171+8
 1545 0034 9847     		blx	r3
 1546              	.LVL141:
 1547              	.L164:
 566:Libraries/STM32F10x_StdPeriph_Driver/src/stm32f10x_usart.c ****   assert_param(IS_FUNCTIONAL_STATE(NewState));
 1548              		.loc 1 566 0 is_stmt 1
 1549 0036 012D     		cmp	r5, #1
 1550 0038 07D8     		bhi	.L170
 567:Libraries/STM32F10x_StdPeriph_Driver/src/stm32f10x_usart.c ****   
 568:Libraries/STM32F10x_StdPeriph_Driver/src/stm32f10x_usart.c ****   if (NewState != DISABLE)
 1551              		.loc 1 568 0
 1552 003a 5DB9     		cbnz	r5, .L166
 569:Libraries/STM32F10x_StdPeriph_Driver/src/stm32f10x_usart.c ****   {
 570:Libraries/STM32F10x_StdPeriph_Driver/src/stm32f10x_usart.c ****     /* Enable the LIN mode by setting the LINEN bit in the CR2 register */
 571:Libraries/STM32F10x_StdPeriph_Driver/src/stm32f10x_usart.c ****     USARTx->CR2 |= CR2_LINEN_Set;
 572:Libraries/STM32F10x_StdPeriph_Driver/src/stm32f10x_usart.c ****   }
 573:Libraries/STM32F10x_StdPeriph_Driver/src/stm32f10x_usart.c ****   else
 574:Libraries/STM32F10x_StdPeriph_Driver/src/stm32f10x_usart.c ****   {
 575:Libraries/STM32F10x_StdPeriph_Driver/src/stm32f10x_usart.c ****     /* Disable the LIN mode by clearing the LINEN bit in the CR2 register */
 576:Libraries/STM32F10x_StdPeriph_Driver/src/stm32f10x_usart.c ****     USARTx->CR2 &= CR2_LINEN_Reset;
 1553              		.loc 1 576 0
 1554 003c 238A     		ldrh	r3, [r4, #16]
 1555 003e 23F48043 		bic	r3, r3, #16384
 1556 0042 1B04     		lsls	r3, r3, #16
 1557 0044 1B0C     		lsrs	r3, r3, #16
 1558 0046 2382     		strh	r3, [r4, #16]	@ movhi
 577:Libraries/STM32F10x_StdPeriph_Driver/src/stm32f10x_usart.c ****   }
 578:Libraries/STM32F10x_StdPeriph_Driver/src/stm32f10x_usart.c **** }
 1559              		.loc 1 578 0
 1560 0048 38BD     		pop	{r3, r4, r5, pc}
 1561              	.LVL142:
 1562              	.L170:
 566:Libraries/STM32F10x_StdPeriph_Driver/src/stm32f10x_usart.c ****   
 1563              		.loc 1 566 0 discriminator 1
 1564 004a 40F23621 		movw	r1, #566
 1565 004e 0548     		ldr	r0, .L171+4
 1566 0050 054B     		ldr	r3, .L171+8
 1567 0052 9847     		blx	r3
 1568              	.LVL143:
 1569              	.L166:
 571:Libraries/STM32F10x_StdPeriph_Driver/src/stm32f10x_usart.c ****   }
 1570              		.loc 1 571 0
 1571 0054 238A     		ldrh	r3, [r4, #16]
 1572 0056 43F48043 		orr	r3, r3, #16384
 1573 005a 2382     		strh	r3, [r4, #16]	@ movhi
 1574              		.loc 1 578 0
 1575 005c 38BD     		pop	{r3, r4, r5, pc}
 1576              	.LVL144:
 1577              	.L172:
 1578 005e 00BF     		.align	2
 1579              	.L171:
 1580 0060 00380140 		.word	1073821696
 1581 0064 00000000 		.word	.LC0
 1582 0068 00000000 		.word	assert_failed
 1583              		.cfi_endproc
 1584              	.LFE41:
 1586              		.section	.text.USART_SendData,"ax",%progbits
 1587              		.align	1
 1588              		.p2align 2,,3
 1589              		.global	USART_SendData
 1590              		.syntax unified
 1591              		.thumb
 1592              		.thumb_func
 1593              		.fpu softvfp
 1595              	USART_SendData:
 1596              	.LFB42:
 579:Libraries/STM32F10x_StdPeriph_Driver/src/stm32f10x_usart.c **** 
 580:Libraries/STM32F10x_StdPeriph_Driver/src/stm32f10x_usart.c **** /**
 581:Libraries/STM32F10x_StdPeriph_Driver/src/stm32f10x_usart.c ****   * @brief  Transmits single data through the USARTx peripheral.
 582:Libraries/STM32F10x_StdPeriph_Driver/src/stm32f10x_usart.c ****   * @param  USARTx: Select the USART or the UART peripheral. 
 583:Libraries/STM32F10x_StdPeriph_Driver/src/stm32f10x_usart.c ****   *   This parameter can be one of the following values:
 584:Libraries/STM32F10x_StdPeriph_Driver/src/stm32f10x_usart.c ****   *   USART1, USART2, USART3, UART4 or UART5.
 585:Libraries/STM32F10x_StdPeriph_Driver/src/stm32f10x_usart.c ****   * @param  Data: the data to transmit.
 586:Libraries/STM32F10x_StdPeriph_Driver/src/stm32f10x_usart.c ****   * @retval None
 587:Libraries/STM32F10x_StdPeriph_Driver/src/stm32f10x_usart.c ****   */
 588:Libraries/STM32F10x_StdPeriph_Driver/src/stm32f10x_usart.c **** void USART_SendData(USART_TypeDef* USARTx, uint16_t Data)
 589:Libraries/STM32F10x_StdPeriph_Driver/src/stm32f10x_usart.c **** {
 1597              		.loc 1 589 0
 1598              		.cfi_startproc
 1599              		@ args = 0, pretend = 0, frame = 0
 1600              		@ frame_needed = 0, uses_anonymous_args = 0
 1601              	.LVL145:
 1602 0000 38B5     		push	{r3, r4, r5, lr}
 1603              		.cfi_def_cfa_offset 16
 1604              		.cfi_offset 3, -16
 1605              		.cfi_offset 4, -12
 1606              		.cfi_offset 5, -8
 1607              		.cfi_offset 14, -4
 590:Libraries/STM32F10x_StdPeriph_Driver/src/stm32f10x_usart.c ****   /* Check the parameters */
 591:Libraries/STM32F10x_StdPeriph_Driver/src/stm32f10x_usart.c ****   assert_param(IS_USART_ALL_PERIPH(USARTx));
 1608              		.loc 1 591 0
 1609 0002 134B     		ldr	r3, .L177
 589:Libraries/STM32F10x_StdPeriph_Driver/src/stm32f10x_usart.c ****   /* Check the parameters */
 1610              		.loc 1 589 0
 1611 0004 0546     		mov	r5, r0
 1612              		.loc 1 591 0
 1613 0006 9842     		cmp	r0, r3
 589:Libraries/STM32F10x_StdPeriph_Driver/src/stm32f10x_usart.c ****   /* Check the parameters */
 1614              		.loc 1 589 0
 1615 0008 0C46     		mov	r4, r1
 1616              		.loc 1 591 0
 1617 000a 14D0     		beq	.L174
 1618              		.loc 1 591 0 is_stmt 0 discriminator 1
 1619 000c A3F57443 		sub	r3, r3, #62464
 1620 0010 9842     		cmp	r0, r3
 1621 0012 10D0     		beq	.L174
 1622              		.loc 1 591 0 discriminator 2
 1623 0014 03F58063 		add	r3, r3, #1024
 1624 0018 9842     		cmp	r0, r3
 1625 001a 0CD0     		beq	.L174
 1626              		.loc 1 591 0 discriminator 3
 1627 001c 03F58063 		add	r3, r3, #1024
 1628 0020 9842     		cmp	r0, r3
 1629 0022 08D0     		beq	.L174
 1630              		.loc 1 591 0 discriminator 4
 1631 0024 03F58063 		add	r3, r3, #1024
 1632 0028 9842     		cmp	r0, r3
 1633 002a 04D0     		beq	.L174
 1634              		.loc 1 591 0 discriminator 5
 1635 002c 40F24F21 		movw	r1, #591
 1636              	.LVL146:
 1637 0030 0848     		ldr	r0, .L177+4
 1638              	.LVL147:
 1639 0032 094B     		ldr	r3, .L177+8
 1640 0034 9847     		blx	r3
 1641              	.LVL148:
 1642              	.L174:
 592:Libraries/STM32F10x_StdPeriph_Driver/src/stm32f10x_usart.c ****   assert_param(IS_USART_DATA(Data)); 
 1643              		.loc 1 592 0 is_stmt 1
 1644 0036 B4F5007F 		cmp	r4, #512
 1645 003a 04D3     		bcc	.L175
 1646              		.loc 1 592 0 is_stmt 0 discriminator 1
 1647 003c 4FF41471 		mov	r1, #592
 1648 0040 0448     		ldr	r0, .L177+4
 1649 0042 054B     		ldr	r3, .L177+8
 1650 0044 9847     		blx	r3
 1651              	.LVL149:
 1652              	.L175:
 593:Libraries/STM32F10x_StdPeriph_Driver/src/stm32f10x_usart.c ****     
 594:Libraries/STM32F10x_StdPeriph_Driver/src/stm32f10x_usart.c ****   /* Transmit Data */
 595:Libraries/STM32F10x_StdPeriph_Driver/src/stm32f10x_usart.c ****   USARTx->DR = (Data & (uint16_t)0x01FF);
 1653              		.loc 1 595 0 is_stmt 1
 1654 0046 C4F30804 		ubfx	r4, r4, #0, #9
 1655 004a AC80     		strh	r4, [r5, #4]	@ movhi
 596:Libraries/STM32F10x_StdPeriph_Driver/src/stm32f10x_usart.c **** }
 1656              		.loc 1 596 0
 1657 004c 38BD     		pop	{r3, r4, r5, pc}
 1658              	.LVL150:
 1659              	.L178:
 1660 004e 00BF     		.align	2
 1661              	.L177:
 1662 0050 00380140 		.word	1073821696
 1663 0054 00000000 		.word	.LC0
 1664 0058 00000000 		.word	assert_failed
 1665              		.cfi_endproc
 1666              	.LFE42:
 1668              		.section	.text.USART_ReceiveData,"ax",%progbits
 1669              		.align	1
 1670              		.p2align 2,,3
 1671              		.global	USART_ReceiveData
 1672              		.syntax unified
 1673              		.thumb
 1674              		.thumb_func
 1675              		.fpu softvfp
 1677              	USART_ReceiveData:
 1678              	.LFB43:
 597:Libraries/STM32F10x_StdPeriph_Driver/src/stm32f10x_usart.c **** 
 598:Libraries/STM32F10x_StdPeriph_Driver/src/stm32f10x_usart.c **** /**
 599:Libraries/STM32F10x_StdPeriph_Driver/src/stm32f10x_usart.c ****   * @brief  Returns the most recent received data by the USARTx peripheral.
 600:Libraries/STM32F10x_StdPeriph_Driver/src/stm32f10x_usart.c ****   * @param  USARTx: Select the USART or the UART peripheral. 
 601:Libraries/STM32F10x_StdPeriph_Driver/src/stm32f10x_usart.c ****   *   This parameter can be one of the following values:
 602:Libraries/STM32F10x_StdPeriph_Driver/src/stm32f10x_usart.c ****   *   USART1, USART2, USART3, UART4 or UART5.
 603:Libraries/STM32F10x_StdPeriph_Driver/src/stm32f10x_usart.c ****   * @retval The received data.
 604:Libraries/STM32F10x_StdPeriph_Driver/src/stm32f10x_usart.c ****   */
 605:Libraries/STM32F10x_StdPeriph_Driver/src/stm32f10x_usart.c **** uint16_t USART_ReceiveData(USART_TypeDef* USARTx)
 606:Libraries/STM32F10x_StdPeriph_Driver/src/stm32f10x_usart.c **** {
 1679              		.loc 1 606 0
 1680              		.cfi_startproc
 1681              		@ args = 0, pretend = 0, frame = 0
 1682              		@ frame_needed = 0, uses_anonymous_args = 0
 1683              	.LVL151:
 607:Libraries/STM32F10x_StdPeriph_Driver/src/stm32f10x_usart.c ****   /* Check the parameters */
 608:Libraries/STM32F10x_StdPeriph_Driver/src/stm32f10x_usart.c ****   assert_param(IS_USART_ALL_PERIPH(USARTx));
 1684              		.loc 1 608 0
 1685 0000 0E4B     		ldr	r3, .L182
 606:Libraries/STM32F10x_StdPeriph_Driver/src/stm32f10x_usart.c ****   /* Check the parameters */
 1686              		.loc 1 606 0
 1687 0002 10B5     		push	{r4, lr}
 1688              		.cfi_def_cfa_offset 8
 1689              		.cfi_offset 4, -8
 1690              		.cfi_offset 14, -4
 1691              		.loc 1 608 0
 1692 0004 9842     		cmp	r0, r3
 606:Libraries/STM32F10x_StdPeriph_Driver/src/stm32f10x_usart.c ****   /* Check the parameters */
 1693              		.loc 1 606 0
 1694 0006 0446     		mov	r4, r0
 1695              		.loc 1 608 0
 1696 0008 14D0     		beq	.L180
 1697              		.loc 1 608 0 is_stmt 0 discriminator 1
 1698 000a A3F57443 		sub	r3, r3, #62464
 1699 000e 9842     		cmp	r0, r3
 1700 0010 10D0     		beq	.L180
 1701              		.loc 1 608 0 discriminator 2
 1702 0012 03F58063 		add	r3, r3, #1024
 1703 0016 9842     		cmp	r0, r3
 1704 0018 0CD0     		beq	.L180
 1705              		.loc 1 608 0 discriminator 3
 1706 001a 03F58063 		add	r3, r3, #1024
 1707 001e 9842     		cmp	r0, r3
 1708 0020 08D0     		beq	.L180
 1709              		.loc 1 608 0 discriminator 4
 1710 0022 03F58063 		add	r3, r3, #1024
 1711 0026 9842     		cmp	r0, r3
 1712 0028 04D0     		beq	.L180
 1713              		.loc 1 608 0 discriminator 5
 1714 002a 4FF41871 		mov	r1, #608
 1715 002e 0448     		ldr	r0, .L182+4
 1716              	.LVL152:
 1717 0030 044B     		ldr	r3, .L182+8
 1718 0032 9847     		blx	r3
 1719              	.LVL153:
 1720              	.L180:
 609:Libraries/STM32F10x_StdPeriph_Driver/src/stm32f10x_usart.c ****   
 610:Libraries/STM32F10x_StdPeriph_Driver/src/stm32f10x_usart.c ****   /* Receive Data */
 611:Libraries/STM32F10x_StdPeriph_Driver/src/stm32f10x_usart.c ****   return (uint16_t)(USARTx->DR & (uint16_t)0x01FF);
 1721              		.loc 1 611 0 is_stmt 1
 1722 0034 A088     		ldrh	r0, [r4, #4]
 612:Libraries/STM32F10x_StdPeriph_Driver/src/stm32f10x_usart.c **** }
 1723              		.loc 1 612 0
 1724 0036 C0F30800 		ubfx	r0, r0, #0, #9
 1725 003a 10BD     		pop	{r4, pc}
 1726              	.LVL154:
 1727              	.L183:
 1728              		.align	2
 1729              	.L182:
 1730 003c 00380140 		.word	1073821696
 1731 0040 00000000 		.word	.LC0
 1732 0044 00000000 		.word	assert_failed
 1733              		.cfi_endproc
 1734              	.LFE43:
 1736              		.section	.text.USART_SendBreak,"ax",%progbits
 1737              		.align	1
 1738              		.p2align 2,,3
 1739              		.global	USART_SendBreak
 1740              		.syntax unified
 1741              		.thumb
 1742              		.thumb_func
 1743              		.fpu softvfp
 1745              	USART_SendBreak:
 1746              	.LFB44:
 613:Libraries/STM32F10x_StdPeriph_Driver/src/stm32f10x_usart.c **** 
 614:Libraries/STM32F10x_StdPeriph_Driver/src/stm32f10x_usart.c **** /**
 615:Libraries/STM32F10x_StdPeriph_Driver/src/stm32f10x_usart.c ****   * @brief  Transmits break characters.
 616:Libraries/STM32F10x_StdPeriph_Driver/src/stm32f10x_usart.c ****   * @param  USARTx: Select the USART or the UART peripheral. 
 617:Libraries/STM32F10x_StdPeriph_Driver/src/stm32f10x_usart.c ****   *   This parameter can be one of the following values:
 618:Libraries/STM32F10x_StdPeriph_Driver/src/stm32f10x_usart.c ****   *   USART1, USART2, USART3, UART4 or UART5.
 619:Libraries/STM32F10x_StdPeriph_Driver/src/stm32f10x_usart.c ****   * @retval None
 620:Libraries/STM32F10x_StdPeriph_Driver/src/stm32f10x_usart.c ****   */
 621:Libraries/STM32F10x_StdPeriph_Driver/src/stm32f10x_usart.c **** void USART_SendBreak(USART_TypeDef* USARTx)
 622:Libraries/STM32F10x_StdPeriph_Driver/src/stm32f10x_usart.c **** {
 1747              		.loc 1 622 0
 1748              		.cfi_startproc
 1749              		@ args = 0, pretend = 0, frame = 0
 1750              		@ frame_needed = 0, uses_anonymous_args = 0
 1751              	.LVL155:
 623:Libraries/STM32F10x_StdPeriph_Driver/src/stm32f10x_usart.c ****   /* Check the parameters */
 624:Libraries/STM32F10x_StdPeriph_Driver/src/stm32f10x_usart.c ****   assert_param(IS_USART_ALL_PERIPH(USARTx));
 1752              		.loc 1 624 0
 1753 0000 0F4B     		ldr	r3, .L187
 622:Libraries/STM32F10x_StdPeriph_Driver/src/stm32f10x_usart.c ****   /* Check the parameters */
 1754              		.loc 1 622 0
 1755 0002 10B5     		push	{r4, lr}
 1756              		.cfi_def_cfa_offset 8
 1757              		.cfi_offset 4, -8
 1758              		.cfi_offset 14, -4
 1759              		.loc 1 624 0
 1760 0004 9842     		cmp	r0, r3
 622:Libraries/STM32F10x_StdPeriph_Driver/src/stm32f10x_usart.c ****   /* Check the parameters */
 1761              		.loc 1 622 0
 1762 0006 0446     		mov	r4, r0
 1763              		.loc 1 624 0
 1764 0008 14D0     		beq	.L185
 1765              		.loc 1 624 0 is_stmt 0 discriminator 1
 1766 000a A3F57443 		sub	r3, r3, #62464
 1767 000e 9842     		cmp	r0, r3
 1768 0010 10D0     		beq	.L185
 1769              		.loc 1 624 0 discriminator 2
 1770 0012 03F58063 		add	r3, r3, #1024
 1771 0016 9842     		cmp	r0, r3
 1772 0018 0CD0     		beq	.L185
 1773              		.loc 1 624 0 discriminator 3
 1774 001a 03F58063 		add	r3, r3, #1024
 1775 001e 9842     		cmp	r0, r3
 1776 0020 08D0     		beq	.L185
 1777              		.loc 1 624 0 discriminator 4
 1778 0022 03F58063 		add	r3, r3, #1024
 1779 0026 9842     		cmp	r0, r3
 1780 0028 04D0     		beq	.L185
 1781              		.loc 1 624 0 discriminator 5
 1782 002a 4FF41C71 		mov	r1, #624
 1783 002e 0548     		ldr	r0, .L187+4
 1784              	.LVL156:
 1785 0030 054B     		ldr	r3, .L187+8
 1786 0032 9847     		blx	r3
 1787              	.LVL157:
 1788              	.L185:
 625:Libraries/STM32F10x_StdPeriph_Driver/src/stm32f10x_usart.c ****   
 626:Libraries/STM32F10x_StdPeriph_Driver/src/stm32f10x_usart.c ****   /* Send break characters */
 627:Libraries/STM32F10x_StdPeriph_Driver/src/stm32f10x_usart.c ****   USARTx->CR1 |= CR1_SBK_Set;
 1789              		.loc 1 627 0 is_stmt 1
 1790 0034 A389     		ldrh	r3, [r4, #12]
 1791 0036 43F00103 		orr	r3, r3, #1
 1792 003a A381     		strh	r3, [r4, #12]	@ movhi
 628:Libraries/STM32F10x_StdPeriph_Driver/src/stm32f10x_usart.c **** }
 1793              		.loc 1 628 0
 1794 003c 10BD     		pop	{r4, pc}
 1795              	.LVL158:
 1796              	.L188:
 1797 003e 00BF     		.align	2
 1798              	.L187:
 1799 0040 00380140 		.word	1073821696
 1800 0044 00000000 		.word	.LC0
 1801 0048 00000000 		.word	assert_failed
 1802              		.cfi_endproc
 1803              	.LFE44:
 1805              		.section	.text.USART_SetGuardTime,"ax",%progbits
 1806              		.align	1
 1807              		.p2align 2,,3
 1808              		.global	USART_SetGuardTime
 1809              		.syntax unified
 1810              		.thumb
 1811              		.thumb_func
 1812              		.fpu softvfp
 1814              	USART_SetGuardTime:
 1815              	.LFB45:
 629:Libraries/STM32F10x_StdPeriph_Driver/src/stm32f10x_usart.c **** 
 630:Libraries/STM32F10x_StdPeriph_Driver/src/stm32f10x_usart.c **** /**
 631:Libraries/STM32F10x_StdPeriph_Driver/src/stm32f10x_usart.c ****   * @brief  Sets the specified USART guard time.
 632:Libraries/STM32F10x_StdPeriph_Driver/src/stm32f10x_usart.c ****   * @param  USARTx: where x can be 1, 2 or 3 to select the USART peripheral.
 633:Libraries/STM32F10x_StdPeriph_Driver/src/stm32f10x_usart.c ****   * @param  USART_GuardTime: specifies the guard time.
 634:Libraries/STM32F10x_StdPeriph_Driver/src/stm32f10x_usart.c ****   * @note The guard time bits are not available for UART4 and UART5.   
 635:Libraries/STM32F10x_StdPeriph_Driver/src/stm32f10x_usart.c ****   * @retval None
 636:Libraries/STM32F10x_StdPeriph_Driver/src/stm32f10x_usart.c ****   */
 637:Libraries/STM32F10x_StdPeriph_Driver/src/stm32f10x_usart.c **** void USART_SetGuardTime(USART_TypeDef* USARTx, uint8_t USART_GuardTime)
 638:Libraries/STM32F10x_StdPeriph_Driver/src/stm32f10x_usart.c **** {    
 1816              		.loc 1 638 0
 1817              		.cfi_startproc
 1818              		@ args = 0, pretend = 0, frame = 0
 1819              		@ frame_needed = 0, uses_anonymous_args = 0
 1820              	.LVL159:
 1821 0000 38B5     		push	{r3, r4, r5, lr}
 1822              		.cfi_def_cfa_offset 16
 1823              		.cfi_offset 3, -16
 1824              		.cfi_offset 4, -12
 1825              		.cfi_offset 5, -8
 1826              		.cfi_offset 14, -4
 639:Libraries/STM32F10x_StdPeriph_Driver/src/stm32f10x_usart.c ****   /* Check the parameters */
 640:Libraries/STM32F10x_StdPeriph_Driver/src/stm32f10x_usart.c ****   assert_param(IS_USART_123_PERIPH(USARTx));
 1827              		.loc 1 640 0
 1828 0002 0D4B     		ldr	r3, .L192
 638:Libraries/STM32F10x_StdPeriph_Driver/src/stm32f10x_usart.c ****   /* Check the parameters */
 1829              		.loc 1 638 0
 1830 0004 0446     		mov	r4, r0
 1831              		.loc 1 640 0
 1832 0006 9842     		cmp	r0, r3
 638:Libraries/STM32F10x_StdPeriph_Driver/src/stm32f10x_usart.c ****   /* Check the parameters */
 1833              		.loc 1 638 0
 1834 0008 0D46     		mov	r5, r1
 1835              		.loc 1 640 0
 1836 000a 0CD0     		beq	.L190
 1837              		.loc 1 640 0 is_stmt 0 discriminator 1
 1838 000c A3F57443 		sub	r3, r3, #62464
 1839 0010 9842     		cmp	r0, r3
 1840 0012 08D0     		beq	.L190
 1841              		.loc 1 640 0 discriminator 2
 1842 0014 03F58063 		add	r3, r3, #1024
 1843 0018 9842     		cmp	r0, r3
 1844 001a 04D0     		beq	.L190
 1845              		.loc 1 640 0 discriminator 3
 1846 001c 4FF42071 		mov	r1, #640
 1847              	.LVL160:
 1848 0020 0648     		ldr	r0, .L192+4
 1849              	.LVL161:
 1850 0022 074B     		ldr	r3, .L192+8
 1851 0024 9847     		blx	r3
 1852              	.LVL162:
 1853              	.L190:
 641:Libraries/STM32F10x_StdPeriph_Driver/src/stm32f10x_usart.c ****   
 642:Libraries/STM32F10x_StdPeriph_Driver/src/stm32f10x_usart.c ****   /* Clear the USART Guard time */
 643:Libraries/STM32F10x_StdPeriph_Driver/src/stm32f10x_usart.c ****   USARTx->GTPR &= GTPR_LSB_Mask;
 1854              		.loc 1 643 0 is_stmt 1
 1855 0026 238B     		ldrh	r3, [r4, #24]
 1856 0028 DBB2     		uxtb	r3, r3
 1857 002a 2383     		strh	r3, [r4, #24]	@ movhi
 644:Libraries/STM32F10x_StdPeriph_Driver/src/stm32f10x_usart.c ****   /* Set the USART guard time */
 645:Libraries/STM32F10x_StdPeriph_Driver/src/stm32f10x_usart.c ****   USARTx->GTPR |= (uint16_t)((uint16_t)USART_GuardTime << 0x08);
 1858              		.loc 1 645 0
 1859 002c 218B     		ldrh	r1, [r4, #24]
 1860 002e 41EA0521 		orr	r1, r1, r5, lsl #8
 1861 0032 2183     		strh	r1, [r4, #24]	@ movhi
 646:Libraries/STM32F10x_StdPeriph_Driver/src/stm32f10x_usart.c **** }
 1862              		.loc 1 646 0
 1863 0034 38BD     		pop	{r3, r4, r5, pc}
 1864              	.LVL163:
 1865              	.L193:
 1866 0036 00BF     		.align	2
 1867              	.L192:
 1868 0038 00380140 		.word	1073821696
 1869 003c 00000000 		.word	.LC0
 1870 0040 00000000 		.word	assert_failed
 1871              		.cfi_endproc
 1872              	.LFE45:
 1874              		.section	.text.USART_SetPrescaler,"ax",%progbits
 1875              		.align	1
 1876              		.p2align 2,,3
 1877              		.global	USART_SetPrescaler
 1878              		.syntax unified
 1879              		.thumb
 1880              		.thumb_func
 1881              		.fpu softvfp
 1883              	USART_SetPrescaler:
 1884              	.LFB46:
 647:Libraries/STM32F10x_StdPeriph_Driver/src/stm32f10x_usart.c **** 
 648:Libraries/STM32F10x_StdPeriph_Driver/src/stm32f10x_usart.c **** /**
 649:Libraries/STM32F10x_StdPeriph_Driver/src/stm32f10x_usart.c ****   * @brief  Sets the system clock prescaler.
 650:Libraries/STM32F10x_StdPeriph_Driver/src/stm32f10x_usart.c ****   * @param  USARTx: Select the USART or the UART peripheral. 
 651:Libraries/STM32F10x_StdPeriph_Driver/src/stm32f10x_usart.c ****   *   This parameter can be one of the following values:
 652:Libraries/STM32F10x_StdPeriph_Driver/src/stm32f10x_usart.c ****   *   USART1, USART2, USART3, UART4 or UART5.
 653:Libraries/STM32F10x_StdPeriph_Driver/src/stm32f10x_usart.c ****   * @param  USART_Prescaler: specifies the prescaler clock.  
 654:Libraries/STM32F10x_StdPeriph_Driver/src/stm32f10x_usart.c ****   * @note   The function is used for IrDA mode with UART4 and UART5.
 655:Libraries/STM32F10x_StdPeriph_Driver/src/stm32f10x_usart.c ****   * @retval None
 656:Libraries/STM32F10x_StdPeriph_Driver/src/stm32f10x_usart.c ****   */
 657:Libraries/STM32F10x_StdPeriph_Driver/src/stm32f10x_usart.c **** void USART_SetPrescaler(USART_TypeDef* USARTx, uint8_t USART_Prescaler)
 658:Libraries/STM32F10x_StdPeriph_Driver/src/stm32f10x_usart.c **** { 
 1885              		.loc 1 658 0
 1886              		.cfi_startproc
 1887              		@ args = 0, pretend = 0, frame = 0
 1888              		@ frame_needed = 0, uses_anonymous_args = 0
 1889              	.LVL164:
 1890 0000 38B5     		push	{r3, r4, r5, lr}
 1891              		.cfi_def_cfa_offset 16
 1892              		.cfi_offset 3, -16
 1893              		.cfi_offset 4, -12
 1894              		.cfi_offset 5, -8
 1895              		.cfi_offset 14, -4
 659:Libraries/STM32F10x_StdPeriph_Driver/src/stm32f10x_usart.c ****   /* Check the parameters */
 660:Libraries/STM32F10x_StdPeriph_Driver/src/stm32f10x_usart.c ****   assert_param(IS_USART_ALL_PERIPH(USARTx));
 1896              		.loc 1 660 0
 1897 0002 114B     		ldr	r3, .L197
 658:Libraries/STM32F10x_StdPeriph_Driver/src/stm32f10x_usart.c ****   /* Check the parameters */
 1898              		.loc 1 658 0
 1899 0004 0446     		mov	r4, r0
 1900              		.loc 1 660 0
 1901 0006 9842     		cmp	r0, r3
 658:Libraries/STM32F10x_StdPeriph_Driver/src/stm32f10x_usart.c ****   /* Check the parameters */
 1902              		.loc 1 658 0
 1903 0008 0D46     		mov	r5, r1
 1904              		.loc 1 660 0
 1905 000a 14D0     		beq	.L195
 1906              		.loc 1 660 0 is_stmt 0 discriminator 1
 1907 000c A3F57443 		sub	r3, r3, #62464
 1908 0010 9842     		cmp	r0, r3
 1909 0012 10D0     		beq	.L195
 1910              		.loc 1 660 0 discriminator 2
 1911 0014 03F58063 		add	r3, r3, #1024
 1912 0018 9842     		cmp	r0, r3
 1913 001a 0CD0     		beq	.L195
 1914              		.loc 1 660 0 discriminator 3
 1915 001c 03F58063 		add	r3, r3, #1024
 1916 0020 9842     		cmp	r0, r3
 1917 0022 08D0     		beq	.L195
 1918              		.loc 1 660 0 discriminator 4
 1919 0024 03F58063 		add	r3, r3, #1024
 1920 0028 9842     		cmp	r0, r3
 1921 002a 04D0     		beq	.L195
 1922              		.loc 1 660 0 discriminator 5
 1923 002c 4FF42571 		mov	r1, #660
 1924              	.LVL165:
 1925 0030 0648     		ldr	r0, .L197+4
 1926              	.LVL166:
 1927 0032 074B     		ldr	r3, .L197+8
 1928 0034 9847     		blx	r3
 1929              	.LVL167:
 1930              	.L195:
 661:Libraries/STM32F10x_StdPeriph_Driver/src/stm32f10x_usart.c ****   
 662:Libraries/STM32F10x_StdPeriph_Driver/src/stm32f10x_usart.c ****   /* Clear the USART prescaler */
 663:Libraries/STM32F10x_StdPeriph_Driver/src/stm32f10x_usart.c ****   USARTx->GTPR &= GTPR_MSB_Mask;
 1931              		.loc 1 663 0 is_stmt 1
 1932 0036 238B     		ldrh	r3, [r4, #24]
 1933 0038 03F47F43 		and	r3, r3, #65280
 1934 003c 2383     		strh	r3, [r4, #24]	@ movhi
 664:Libraries/STM32F10x_StdPeriph_Driver/src/stm32f10x_usart.c ****   /* Set the USART prescaler */
 665:Libraries/STM32F10x_StdPeriph_Driver/src/stm32f10x_usart.c ****   USARTx->GTPR |= USART_Prescaler;
 1935              		.loc 1 665 0
 1936 003e 238B     		ldrh	r3, [r4, #24]
 1937 0040 1D43     		orrs	r5, r5, r3
 1938 0042 2583     		strh	r5, [r4, #24]	@ movhi
 666:Libraries/STM32F10x_StdPeriph_Driver/src/stm32f10x_usart.c **** }
 1939              		.loc 1 666 0
 1940 0044 38BD     		pop	{r3, r4, r5, pc}
 1941              	.LVL168:
 1942              	.L198:
 1943 0046 00BF     		.align	2
 1944              	.L197:
 1945 0048 00380140 		.word	1073821696
 1946 004c 00000000 		.word	.LC0
 1947 0050 00000000 		.word	assert_failed
 1948              		.cfi_endproc
 1949              	.LFE46:
 1951              		.section	.text.USART_SmartCardCmd,"ax",%progbits
 1952              		.align	1
 1953              		.p2align 2,,3
 1954              		.global	USART_SmartCardCmd
 1955              		.syntax unified
 1956              		.thumb
 1957              		.thumb_func
 1958              		.fpu softvfp
 1960              	USART_SmartCardCmd:
 1961              	.LFB47:
 667:Libraries/STM32F10x_StdPeriph_Driver/src/stm32f10x_usart.c **** 
 668:Libraries/STM32F10x_StdPeriph_Driver/src/stm32f10x_usart.c **** /**
 669:Libraries/STM32F10x_StdPeriph_Driver/src/stm32f10x_usart.c ****   * @brief  Enables or disables the USARTs Smart Card mode.
 670:Libraries/STM32F10x_StdPeriph_Driver/src/stm32f10x_usart.c ****   * @param  USARTx: where x can be 1, 2 or 3 to select the USART peripheral.
 671:Libraries/STM32F10x_StdPeriph_Driver/src/stm32f10x_usart.c ****   * @param  NewState: new state of the Smart Card mode.
 672:Libraries/STM32F10x_StdPeriph_Driver/src/stm32f10x_usart.c ****   *   This parameter can be: ENABLE or DISABLE.     
 673:Libraries/STM32F10x_StdPeriph_Driver/src/stm32f10x_usart.c ****   * @note The Smart Card mode is not available for UART4 and UART5. 
 674:Libraries/STM32F10x_StdPeriph_Driver/src/stm32f10x_usart.c ****   * @retval None
 675:Libraries/STM32F10x_StdPeriph_Driver/src/stm32f10x_usart.c ****   */
 676:Libraries/STM32F10x_StdPeriph_Driver/src/stm32f10x_usart.c **** void USART_SmartCardCmd(USART_TypeDef* USARTx, FunctionalState NewState)
 677:Libraries/STM32F10x_StdPeriph_Driver/src/stm32f10x_usart.c **** {
 1962              		.loc 1 677 0
 1963              		.cfi_startproc
 1964              		@ args = 0, pretend = 0, frame = 0
 1965              		@ frame_needed = 0, uses_anonymous_args = 0
 1966              	.LVL169:
 1967 0000 38B5     		push	{r3, r4, r5, lr}
 1968              		.cfi_def_cfa_offset 16
 1969              		.cfi_offset 3, -16
 1970              		.cfi_offset 4, -12
 1971              		.cfi_offset 5, -8
 1972              		.cfi_offset 14, -4
 678:Libraries/STM32F10x_StdPeriph_Driver/src/stm32f10x_usart.c ****   /* Check the parameters */
 679:Libraries/STM32F10x_StdPeriph_Driver/src/stm32f10x_usart.c ****   assert_param(IS_USART_123_PERIPH(USARTx));
 1973              		.loc 1 679 0
 1974 0002 134B     		ldr	r3, .L207
 677:Libraries/STM32F10x_StdPeriph_Driver/src/stm32f10x_usart.c ****   /* Check the parameters */
 1975              		.loc 1 677 0
 1976 0004 0446     		mov	r4, r0
 1977              		.loc 1 679 0
 1978 0006 9842     		cmp	r0, r3
 677:Libraries/STM32F10x_StdPeriph_Driver/src/stm32f10x_usart.c ****   /* Check the parameters */
 1979              		.loc 1 677 0
 1980 0008 0D46     		mov	r5, r1
 1981              		.loc 1 679 0
 1982 000a 0CD0     		beq	.L200
 1983              		.loc 1 679 0 is_stmt 0 discriminator 1
 1984 000c A3F57443 		sub	r3, r3, #62464
 1985 0010 9842     		cmp	r0, r3
 1986 0012 08D0     		beq	.L200
 1987              		.loc 1 679 0 discriminator 2
 1988 0014 03F58063 		add	r3, r3, #1024
 1989 0018 9842     		cmp	r0, r3
 1990 001a 04D0     		beq	.L200
 1991              		.loc 1 679 0 discriminator 3
 1992 001c 40F2A721 		movw	r1, #679
 1993              	.LVL170:
 1994 0020 0C48     		ldr	r0, .L207+4
 1995              	.LVL171:
 1996 0022 0D4B     		ldr	r3, .L207+8
 1997 0024 9847     		blx	r3
 1998              	.LVL172:
 1999              	.L200:
 680:Libraries/STM32F10x_StdPeriph_Driver/src/stm32f10x_usart.c ****   assert_param(IS_FUNCTIONAL_STATE(NewState));
 2000              		.loc 1 680 0 is_stmt 1
 2001 0026 012D     		cmp	r5, #1
 2002 0028 07D8     		bhi	.L206
 681:Libraries/STM32F10x_StdPeriph_Driver/src/stm32f10x_usart.c ****   if (NewState != DISABLE)
 2003              		.loc 1 681 0
 2004 002a 5DB9     		cbnz	r5, .L202
 682:Libraries/STM32F10x_StdPeriph_Driver/src/stm32f10x_usart.c ****   {
 683:Libraries/STM32F10x_StdPeriph_Driver/src/stm32f10x_usart.c ****     /* Enable the SC mode by setting the SCEN bit in the CR3 register */
 684:Libraries/STM32F10x_StdPeriph_Driver/src/stm32f10x_usart.c ****     USARTx->CR3 |= CR3_SCEN_Set;
 685:Libraries/STM32F10x_StdPeriph_Driver/src/stm32f10x_usart.c ****   }
 686:Libraries/STM32F10x_StdPeriph_Driver/src/stm32f10x_usart.c ****   else
 687:Libraries/STM32F10x_StdPeriph_Driver/src/stm32f10x_usart.c ****   {
 688:Libraries/STM32F10x_StdPeriph_Driver/src/stm32f10x_usart.c ****     /* Disable the SC mode by clearing the SCEN bit in the CR3 register */
 689:Libraries/STM32F10x_StdPeriph_Driver/src/stm32f10x_usart.c ****     USARTx->CR3 &= CR3_SCEN_Reset;
 2005              		.loc 1 689 0
 2006 002c A38A     		ldrh	r3, [r4, #20]
 2007 002e 23F02003 		bic	r3, r3, #32
 2008 0032 1B04     		lsls	r3, r3, #16
 2009 0034 1B0C     		lsrs	r3, r3, #16
 2010 0036 A382     		strh	r3, [r4, #20]	@ movhi
 690:Libraries/STM32F10x_StdPeriph_Driver/src/stm32f10x_usart.c ****   }
 691:Libraries/STM32F10x_StdPeriph_Driver/src/stm32f10x_usart.c **** }
 2011              		.loc 1 691 0
 2012 0038 38BD     		pop	{r3, r4, r5, pc}
 2013              	.LVL173:
 2014              	.L206:
 680:Libraries/STM32F10x_StdPeriph_Driver/src/stm32f10x_usart.c ****   if (NewState != DISABLE)
 2015              		.loc 1 680 0 discriminator 1
 2016 003a 4FF42A71 		mov	r1, #680
 2017 003e 0548     		ldr	r0, .L207+4
 2018 0040 054B     		ldr	r3, .L207+8
 2019 0042 9847     		blx	r3
 2020              	.LVL174:
 2021              	.L202:
 684:Libraries/STM32F10x_StdPeriph_Driver/src/stm32f10x_usart.c ****   }
 2022              		.loc 1 684 0
 2023 0044 A38A     		ldrh	r3, [r4, #20]
 2024 0046 43F02003 		orr	r3, r3, #32
 2025 004a A382     		strh	r3, [r4, #20]	@ movhi
 2026              		.loc 1 691 0
 2027 004c 38BD     		pop	{r3, r4, r5, pc}
 2028              	.LVL175:
 2029              	.L208:
 2030 004e 00BF     		.align	2
 2031              	.L207:
 2032 0050 00380140 		.word	1073821696
 2033 0054 00000000 		.word	.LC0
 2034 0058 00000000 		.word	assert_failed
 2035              		.cfi_endproc
 2036              	.LFE47:
 2038              		.section	.text.USART_SmartCardNACKCmd,"ax",%progbits
 2039              		.align	1
 2040              		.p2align 2,,3
 2041              		.global	USART_SmartCardNACKCmd
 2042              		.syntax unified
 2043              		.thumb
 2044              		.thumb_func
 2045              		.fpu softvfp
 2047              	USART_SmartCardNACKCmd:
 2048              	.LFB48:
 692:Libraries/STM32F10x_StdPeriph_Driver/src/stm32f10x_usart.c **** 
 693:Libraries/STM32F10x_StdPeriph_Driver/src/stm32f10x_usart.c **** /**
 694:Libraries/STM32F10x_StdPeriph_Driver/src/stm32f10x_usart.c ****   * @brief  Enables or disables NACK transmission.
 695:Libraries/STM32F10x_StdPeriph_Driver/src/stm32f10x_usart.c ****   * @param  USARTx: where x can be 1, 2 or 3 to select the USART peripheral. 
 696:Libraries/STM32F10x_StdPeriph_Driver/src/stm32f10x_usart.c ****   * @param  NewState: new state of the NACK transmission.
 697:Libraries/STM32F10x_StdPeriph_Driver/src/stm32f10x_usart.c ****   *   This parameter can be: ENABLE or DISABLE.  
 698:Libraries/STM32F10x_StdPeriph_Driver/src/stm32f10x_usart.c ****   * @note The Smart Card mode is not available for UART4 and UART5.
 699:Libraries/STM32F10x_StdPeriph_Driver/src/stm32f10x_usart.c ****   * @retval None
 700:Libraries/STM32F10x_StdPeriph_Driver/src/stm32f10x_usart.c ****   */
 701:Libraries/STM32F10x_StdPeriph_Driver/src/stm32f10x_usart.c **** void USART_SmartCardNACKCmd(USART_TypeDef* USARTx, FunctionalState NewState)
 702:Libraries/STM32F10x_StdPeriph_Driver/src/stm32f10x_usart.c **** {
 2049              		.loc 1 702 0
 2050              		.cfi_startproc
 2051              		@ args = 0, pretend = 0, frame = 0
 2052              		@ frame_needed = 0, uses_anonymous_args = 0
 2053              	.LVL176:
 2054 0000 38B5     		push	{r3, r4, r5, lr}
 2055              		.cfi_def_cfa_offset 16
 2056              		.cfi_offset 3, -16
 2057              		.cfi_offset 4, -12
 2058              		.cfi_offset 5, -8
 2059              		.cfi_offset 14, -4
 703:Libraries/STM32F10x_StdPeriph_Driver/src/stm32f10x_usart.c ****   /* Check the parameters */
 704:Libraries/STM32F10x_StdPeriph_Driver/src/stm32f10x_usart.c ****   assert_param(IS_USART_123_PERIPH(USARTx));  
 2060              		.loc 1 704 0
 2061 0002 134B     		ldr	r3, .L217
 702:Libraries/STM32F10x_StdPeriph_Driver/src/stm32f10x_usart.c ****   /* Check the parameters */
 2062              		.loc 1 702 0
 2063 0004 0446     		mov	r4, r0
 2064              		.loc 1 704 0
 2065 0006 9842     		cmp	r0, r3
 702:Libraries/STM32F10x_StdPeriph_Driver/src/stm32f10x_usart.c ****   /* Check the parameters */
 2066              		.loc 1 702 0
 2067 0008 0D46     		mov	r5, r1
 2068              		.loc 1 704 0
 2069 000a 0CD0     		beq	.L210
 2070              		.loc 1 704 0 is_stmt 0 discriminator 1
 2071 000c A3F57443 		sub	r3, r3, #62464
 2072 0010 9842     		cmp	r0, r3
 2073 0012 08D0     		beq	.L210
 2074              		.loc 1 704 0 discriminator 2
 2075 0014 03F58063 		add	r3, r3, #1024
 2076 0018 9842     		cmp	r0, r3
 2077 001a 04D0     		beq	.L210
 2078              		.loc 1 704 0 discriminator 3
 2079 001c 4FF43071 		mov	r1, #704
 2080              	.LVL177:
 2081 0020 0C48     		ldr	r0, .L217+4
 2082              	.LVL178:
 2083 0022 0D4B     		ldr	r3, .L217+8
 2084 0024 9847     		blx	r3
 2085              	.LVL179:
 2086              	.L210:
 705:Libraries/STM32F10x_StdPeriph_Driver/src/stm32f10x_usart.c ****   assert_param(IS_FUNCTIONAL_STATE(NewState));
 2087              		.loc 1 705 0 is_stmt 1
 2088 0026 012D     		cmp	r5, #1
 2089 0028 07D8     		bhi	.L216
 706:Libraries/STM32F10x_StdPeriph_Driver/src/stm32f10x_usart.c ****   if (NewState != DISABLE)
 2090              		.loc 1 706 0
 2091 002a 5DB9     		cbnz	r5, .L212
 707:Libraries/STM32F10x_StdPeriph_Driver/src/stm32f10x_usart.c ****   {
 708:Libraries/STM32F10x_StdPeriph_Driver/src/stm32f10x_usart.c ****     /* Enable the NACK transmission by setting the NACK bit in the CR3 register */
 709:Libraries/STM32F10x_StdPeriph_Driver/src/stm32f10x_usart.c ****     USARTx->CR3 |= CR3_NACK_Set;
 710:Libraries/STM32F10x_StdPeriph_Driver/src/stm32f10x_usart.c ****   }
 711:Libraries/STM32F10x_StdPeriph_Driver/src/stm32f10x_usart.c ****   else
 712:Libraries/STM32F10x_StdPeriph_Driver/src/stm32f10x_usart.c ****   {
 713:Libraries/STM32F10x_StdPeriph_Driver/src/stm32f10x_usart.c ****     /* Disable the NACK transmission by clearing the NACK bit in the CR3 register */
 714:Libraries/STM32F10x_StdPeriph_Driver/src/stm32f10x_usart.c ****     USARTx->CR3 &= CR3_NACK_Reset;
 2092              		.loc 1 714 0
 2093 002c A38A     		ldrh	r3, [r4, #20]
 2094 002e 23F01003 		bic	r3, r3, #16
 2095 0032 1B04     		lsls	r3, r3, #16
 2096 0034 1B0C     		lsrs	r3, r3, #16
 2097 0036 A382     		strh	r3, [r4, #20]	@ movhi
 715:Libraries/STM32F10x_StdPeriph_Driver/src/stm32f10x_usart.c ****   }
 716:Libraries/STM32F10x_StdPeriph_Driver/src/stm32f10x_usart.c **** }
 2098              		.loc 1 716 0
 2099 0038 38BD     		pop	{r3, r4, r5, pc}
 2100              	.LVL180:
 2101              	.L216:
 705:Libraries/STM32F10x_StdPeriph_Driver/src/stm32f10x_usart.c ****   if (NewState != DISABLE)
 2102              		.loc 1 705 0 discriminator 1
 2103 003a 40F2C121 		movw	r1, #705
 2104 003e 0548     		ldr	r0, .L217+4
 2105 0040 054B     		ldr	r3, .L217+8
 2106 0042 9847     		blx	r3
 2107              	.LVL181:
 2108              	.L212:
 709:Libraries/STM32F10x_StdPeriph_Driver/src/stm32f10x_usart.c ****   }
 2109              		.loc 1 709 0
 2110 0044 A38A     		ldrh	r3, [r4, #20]
 2111 0046 43F01003 		orr	r3, r3, #16
 2112 004a A382     		strh	r3, [r4, #20]	@ movhi
 2113              		.loc 1 716 0
 2114 004c 38BD     		pop	{r3, r4, r5, pc}
 2115              	.LVL182:
 2116              	.L218:
 2117 004e 00BF     		.align	2
 2118              	.L217:
 2119 0050 00380140 		.word	1073821696
 2120 0054 00000000 		.word	.LC0
 2121 0058 00000000 		.word	assert_failed
 2122              		.cfi_endproc
 2123              	.LFE48:
 2125              		.section	.text.USART_HalfDuplexCmd,"ax",%progbits
 2126              		.align	1
 2127              		.p2align 2,,3
 2128              		.global	USART_HalfDuplexCmd
 2129              		.syntax unified
 2130              		.thumb
 2131              		.thumb_func
 2132              		.fpu softvfp
 2134              	USART_HalfDuplexCmd:
 2135              	.LFB49:
 717:Libraries/STM32F10x_StdPeriph_Driver/src/stm32f10x_usart.c **** 
 718:Libraries/STM32F10x_StdPeriph_Driver/src/stm32f10x_usart.c **** /**
 719:Libraries/STM32F10x_StdPeriph_Driver/src/stm32f10x_usart.c ****   * @brief  Enables or disables the USARTs Half Duplex communication.
 720:Libraries/STM32F10x_StdPeriph_Driver/src/stm32f10x_usart.c ****   * @param  USARTx: Select the USART or the UART peripheral. 
 721:Libraries/STM32F10x_StdPeriph_Driver/src/stm32f10x_usart.c ****   *   This parameter can be one of the following values:
 722:Libraries/STM32F10x_StdPeriph_Driver/src/stm32f10x_usart.c ****   *   USART1, USART2, USART3, UART4 or UART5.
 723:Libraries/STM32F10x_StdPeriph_Driver/src/stm32f10x_usart.c ****   * @param  NewState: new state of the USART Communication.
 724:Libraries/STM32F10x_StdPeriph_Driver/src/stm32f10x_usart.c ****   *   This parameter can be: ENABLE or DISABLE.
 725:Libraries/STM32F10x_StdPeriph_Driver/src/stm32f10x_usart.c ****   * @retval None
 726:Libraries/STM32F10x_StdPeriph_Driver/src/stm32f10x_usart.c ****   */
 727:Libraries/STM32F10x_StdPeriph_Driver/src/stm32f10x_usart.c **** void USART_HalfDuplexCmd(USART_TypeDef* USARTx, FunctionalState NewState)
 728:Libraries/STM32F10x_StdPeriph_Driver/src/stm32f10x_usart.c **** {
 2136              		.loc 1 728 0
 2137              		.cfi_startproc
 2138              		@ args = 0, pretend = 0, frame = 0
 2139              		@ frame_needed = 0, uses_anonymous_args = 0
 2140              	.LVL183:
 2141 0000 38B5     		push	{r3, r4, r5, lr}
 2142              		.cfi_def_cfa_offset 16
 2143              		.cfi_offset 3, -16
 2144              		.cfi_offset 4, -12
 2145              		.cfi_offset 5, -8
 2146              		.cfi_offset 14, -4
 729:Libraries/STM32F10x_StdPeriph_Driver/src/stm32f10x_usart.c ****   /* Check the parameters */
 730:Libraries/STM32F10x_StdPeriph_Driver/src/stm32f10x_usart.c ****   assert_param(IS_USART_ALL_PERIPH(USARTx));
 2147              		.loc 1 730 0
 2148 0002 174B     		ldr	r3, .L227
 728:Libraries/STM32F10x_StdPeriph_Driver/src/stm32f10x_usart.c ****   /* Check the parameters */
 2149              		.loc 1 728 0
 2150 0004 0446     		mov	r4, r0
 2151              		.loc 1 730 0
 2152 0006 9842     		cmp	r0, r3
 728:Libraries/STM32F10x_StdPeriph_Driver/src/stm32f10x_usart.c ****   /* Check the parameters */
 2153              		.loc 1 728 0
 2154 0008 0D46     		mov	r5, r1
 2155              		.loc 1 730 0
 2156 000a 14D0     		beq	.L220
 2157              		.loc 1 730 0 is_stmt 0 discriminator 1
 2158 000c A3F57443 		sub	r3, r3, #62464
 2159 0010 9842     		cmp	r0, r3
 2160 0012 10D0     		beq	.L220
 2161              		.loc 1 730 0 discriminator 2
 2162 0014 03F58063 		add	r3, r3, #1024
 2163 0018 9842     		cmp	r0, r3
 2164 001a 0CD0     		beq	.L220
 2165              		.loc 1 730 0 discriminator 3
 2166 001c 03F58063 		add	r3, r3, #1024
 2167 0020 9842     		cmp	r0, r3
 2168 0022 08D0     		beq	.L220
 2169              		.loc 1 730 0 discriminator 4
 2170 0024 03F58063 		add	r3, r3, #1024
 2171 0028 9842     		cmp	r0, r3
 2172 002a 04D0     		beq	.L220
 2173              		.loc 1 730 0 discriminator 5
 2174 002c 40F2DA21 		movw	r1, #730
 2175              	.LVL184:
 2176 0030 0C48     		ldr	r0, .L227+4
 2177              	.LVL185:
 2178 0032 0D4B     		ldr	r3, .L227+8
 2179 0034 9847     		blx	r3
 2180              	.LVL186:
 2181              	.L220:
 731:Libraries/STM32F10x_StdPeriph_Driver/src/stm32f10x_usart.c ****   assert_param(IS_FUNCTIONAL_STATE(NewState));
 2182              		.loc 1 731 0 is_stmt 1
 2183 0036 012D     		cmp	r5, #1
 2184 0038 07D8     		bhi	.L226
 732:Libraries/STM32F10x_StdPeriph_Driver/src/stm32f10x_usart.c ****   
 733:Libraries/STM32F10x_StdPeriph_Driver/src/stm32f10x_usart.c ****   if (NewState != DISABLE)
 2185              		.loc 1 733 0
 2186 003a 5DB9     		cbnz	r5, .L222
 734:Libraries/STM32F10x_StdPeriph_Driver/src/stm32f10x_usart.c ****   {
 735:Libraries/STM32F10x_StdPeriph_Driver/src/stm32f10x_usart.c ****     /* Enable the Half-Duplex mode by setting the HDSEL bit in the CR3 register */
 736:Libraries/STM32F10x_StdPeriph_Driver/src/stm32f10x_usart.c ****     USARTx->CR3 |= CR3_HDSEL_Set;
 737:Libraries/STM32F10x_StdPeriph_Driver/src/stm32f10x_usart.c ****   }
 738:Libraries/STM32F10x_StdPeriph_Driver/src/stm32f10x_usart.c ****   else
 739:Libraries/STM32F10x_StdPeriph_Driver/src/stm32f10x_usart.c ****   {
 740:Libraries/STM32F10x_StdPeriph_Driver/src/stm32f10x_usart.c ****     /* Disable the Half-Duplex mode by clearing the HDSEL bit in the CR3 register */
 741:Libraries/STM32F10x_StdPeriph_Driver/src/stm32f10x_usart.c ****     USARTx->CR3 &= CR3_HDSEL_Reset;
 2187              		.loc 1 741 0
 2188 003c A38A     		ldrh	r3, [r4, #20]
 2189 003e 23F00803 		bic	r3, r3, #8
 2190 0042 1B04     		lsls	r3, r3, #16
 2191 0044 1B0C     		lsrs	r3, r3, #16
 2192 0046 A382     		strh	r3, [r4, #20]	@ movhi
 742:Libraries/STM32F10x_StdPeriph_Driver/src/stm32f10x_usart.c ****   }
 743:Libraries/STM32F10x_StdPeriph_Driver/src/stm32f10x_usart.c **** }
 2193              		.loc 1 743 0
 2194 0048 38BD     		pop	{r3, r4, r5, pc}
 2195              	.LVL187:
 2196              	.L226:
 731:Libraries/STM32F10x_StdPeriph_Driver/src/stm32f10x_usart.c ****   
 2197              		.loc 1 731 0 discriminator 1
 2198 004a 40F2DB21 		movw	r1, #731
 2199 004e 0548     		ldr	r0, .L227+4
 2200 0050 054B     		ldr	r3, .L227+8
 2201 0052 9847     		blx	r3
 2202              	.LVL188:
 2203              	.L222:
 736:Libraries/STM32F10x_StdPeriph_Driver/src/stm32f10x_usart.c ****   }
 2204              		.loc 1 736 0
 2205 0054 A38A     		ldrh	r3, [r4, #20]
 2206 0056 43F00803 		orr	r3, r3, #8
 2207 005a A382     		strh	r3, [r4, #20]	@ movhi
 2208              		.loc 1 743 0
 2209 005c 38BD     		pop	{r3, r4, r5, pc}
 2210              	.LVL189:
 2211              	.L228:
 2212 005e 00BF     		.align	2
 2213              	.L227:
 2214 0060 00380140 		.word	1073821696
 2215 0064 00000000 		.word	.LC0
 2216 0068 00000000 		.word	assert_failed
 2217              		.cfi_endproc
 2218              	.LFE49:
 2220              		.section	.text.USART_OverSampling8Cmd,"ax",%progbits
 2221              		.align	1
 2222              		.p2align 2,,3
 2223              		.global	USART_OverSampling8Cmd
 2224              		.syntax unified
 2225              		.thumb
 2226              		.thumb_func
 2227              		.fpu softvfp
 2229              	USART_OverSampling8Cmd:
 2230              	.LFB50:
 744:Libraries/STM32F10x_StdPeriph_Driver/src/stm32f10x_usart.c **** 
 745:Libraries/STM32F10x_StdPeriph_Driver/src/stm32f10x_usart.c **** 
 746:Libraries/STM32F10x_StdPeriph_Driver/src/stm32f10x_usart.c **** /**
 747:Libraries/STM32F10x_StdPeriph_Driver/src/stm32f10x_usart.c ****   * @brief  Enables or disables the USART's 8x oversampling mode.
 748:Libraries/STM32F10x_StdPeriph_Driver/src/stm32f10x_usart.c ****   * @param  USARTx: Select the USART or the UART peripheral.
 749:Libraries/STM32F10x_StdPeriph_Driver/src/stm32f10x_usart.c ****   *   This parameter can be one of the following values:
 750:Libraries/STM32F10x_StdPeriph_Driver/src/stm32f10x_usart.c ****   *   USART1, USART2, USART3, UART4 or UART5.
 751:Libraries/STM32F10x_StdPeriph_Driver/src/stm32f10x_usart.c ****   * @param  NewState: new state of the USART one bit sampling methode.
 752:Libraries/STM32F10x_StdPeriph_Driver/src/stm32f10x_usart.c ****   *   This parameter can be: ENABLE or DISABLE.
 753:Libraries/STM32F10x_StdPeriph_Driver/src/stm32f10x_usart.c ****   * @note
 754:Libraries/STM32F10x_StdPeriph_Driver/src/stm32f10x_usart.c ****   *     This function has to be called before calling USART_Init()
 755:Libraries/STM32F10x_StdPeriph_Driver/src/stm32f10x_usart.c ****   *     function in order to have correct baudrate Divider value.   
 756:Libraries/STM32F10x_StdPeriph_Driver/src/stm32f10x_usart.c ****   * @retval None
 757:Libraries/STM32F10x_StdPeriph_Driver/src/stm32f10x_usart.c ****   */
 758:Libraries/STM32F10x_StdPeriph_Driver/src/stm32f10x_usart.c **** void USART_OverSampling8Cmd(USART_TypeDef* USARTx, FunctionalState NewState)
 759:Libraries/STM32F10x_StdPeriph_Driver/src/stm32f10x_usart.c **** {
 2231              		.loc 1 759 0
 2232              		.cfi_startproc
 2233              		@ args = 0, pretend = 0, frame = 0
 2234              		@ frame_needed = 0, uses_anonymous_args = 0
 2235              	.LVL190:
 2236 0000 38B5     		push	{r3, r4, r5, lr}
 2237              		.cfi_def_cfa_offset 16
 2238              		.cfi_offset 3, -16
 2239              		.cfi_offset 4, -12
 2240              		.cfi_offset 5, -8
 2241              		.cfi_offset 14, -4
 760:Libraries/STM32F10x_StdPeriph_Driver/src/stm32f10x_usart.c ****   /* Check the parameters */
 761:Libraries/STM32F10x_StdPeriph_Driver/src/stm32f10x_usart.c ****   assert_param(IS_USART_ALL_PERIPH(USARTx));
 2242              		.loc 1 761 0
 2243 0002 164B     		ldr	r3, .L237
 759:Libraries/STM32F10x_StdPeriph_Driver/src/stm32f10x_usart.c ****   /* Check the parameters */
 2244              		.loc 1 759 0
 2245 0004 0446     		mov	r4, r0
 2246              		.loc 1 761 0
 2247 0006 9842     		cmp	r0, r3
 759:Libraries/STM32F10x_StdPeriph_Driver/src/stm32f10x_usart.c ****   /* Check the parameters */
 2248              		.loc 1 759 0
 2249 0008 0D46     		mov	r5, r1
 2250              		.loc 1 761 0
 2251 000a 14D0     		beq	.L230
 2252              		.loc 1 761 0 is_stmt 0 discriminator 1
 2253 000c A3F57443 		sub	r3, r3, #62464
 2254 0010 9842     		cmp	r0, r3
 2255 0012 10D0     		beq	.L230
 2256              		.loc 1 761 0 discriminator 2
 2257 0014 03F58063 		add	r3, r3, #1024
 2258 0018 9842     		cmp	r0, r3
 2259 001a 0CD0     		beq	.L230
 2260              		.loc 1 761 0 discriminator 3
 2261 001c 03F58063 		add	r3, r3, #1024
 2262 0020 9842     		cmp	r0, r3
 2263 0022 08D0     		beq	.L230
 2264              		.loc 1 761 0 discriminator 4
 2265 0024 03F58063 		add	r3, r3, #1024
 2266 0028 9842     		cmp	r0, r3
 2267 002a 04D0     		beq	.L230
 2268              		.loc 1 761 0 discriminator 5
 2269 002c 40F2F921 		movw	r1, #761
 2270              	.LVL191:
 2271 0030 0B48     		ldr	r0, .L237+4
 2272              	.LVL192:
 2273 0032 0C4B     		ldr	r3, .L237+8
 2274 0034 9847     		blx	r3
 2275              	.LVL193:
 2276              	.L230:
 762:Libraries/STM32F10x_StdPeriph_Driver/src/stm32f10x_usart.c ****   assert_param(IS_FUNCTIONAL_STATE(NewState));
 2277              		.loc 1 762 0 is_stmt 1
 2278 0036 012D     		cmp	r5, #1
 2279 0038 05D8     		bhi	.L236
 763:Libraries/STM32F10x_StdPeriph_Driver/src/stm32f10x_usart.c ****   
 764:Libraries/STM32F10x_StdPeriph_Driver/src/stm32f10x_usart.c ****   if (NewState != DISABLE)
 2280              		.loc 1 764 0
 2281 003a 4DB9     		cbnz	r5, .L232
 765:Libraries/STM32F10x_StdPeriph_Driver/src/stm32f10x_usart.c ****   {
 766:Libraries/STM32F10x_StdPeriph_Driver/src/stm32f10x_usart.c ****     /* Enable the 8x Oversampling mode by setting the OVER8 bit in the CR1 register */
 767:Libraries/STM32F10x_StdPeriph_Driver/src/stm32f10x_usart.c ****     USARTx->CR1 |= CR1_OVER8_Set;
 768:Libraries/STM32F10x_StdPeriph_Driver/src/stm32f10x_usart.c ****   }
 769:Libraries/STM32F10x_StdPeriph_Driver/src/stm32f10x_usart.c ****   else
 770:Libraries/STM32F10x_StdPeriph_Driver/src/stm32f10x_usart.c ****   {
 771:Libraries/STM32F10x_StdPeriph_Driver/src/stm32f10x_usart.c ****     /* Disable the 8x Oversampling mode by clearing the OVER8 bit in the CR1 register */
 772:Libraries/STM32F10x_StdPeriph_Driver/src/stm32f10x_usart.c ****     USARTx->CR1 &= CR1_OVER8_Reset;
 2282              		.loc 1 772 0
 2283 003c A389     		ldrh	r3, [r4, #12]
 2284 003e C3F30E03 		ubfx	r3, r3, #0, #15
 2285 0042 A381     		strh	r3, [r4, #12]	@ movhi
 773:Libraries/STM32F10x_StdPeriph_Driver/src/stm32f10x_usart.c ****   }
 774:Libraries/STM32F10x_StdPeriph_Driver/src/stm32f10x_usart.c **** }
 2286              		.loc 1 774 0
 2287 0044 38BD     		pop	{r3, r4, r5, pc}
 2288              	.LVL194:
 2289              	.L236:
 762:Libraries/STM32F10x_StdPeriph_Driver/src/stm32f10x_usart.c ****   
 2290              		.loc 1 762 0 discriminator 1
 2291 0046 40F2FA21 		movw	r1, #762
 2292 004a 0548     		ldr	r0, .L237+4
 2293 004c 054B     		ldr	r3, .L237+8
 2294 004e 9847     		blx	r3
 2295              	.LVL195:
 2296              	.L232:
 767:Libraries/STM32F10x_StdPeriph_Driver/src/stm32f10x_usart.c ****   }
 2297              		.loc 1 767 0
 2298 0050 A389     		ldrh	r3, [r4, #12]
 2299 0052 43F40043 		orr	r3, r3, #32768
 2300 0056 A381     		strh	r3, [r4, #12]	@ movhi
 2301              		.loc 1 774 0
 2302 0058 38BD     		pop	{r3, r4, r5, pc}
 2303              	.LVL196:
 2304              	.L238:
 2305 005a 00BF     		.align	2
 2306              	.L237:
 2307 005c 00380140 		.word	1073821696
 2308 0060 00000000 		.word	.LC0
 2309 0064 00000000 		.word	assert_failed
 2310              		.cfi_endproc
 2311              	.LFE50:
 2313              		.section	.text.USART_OneBitMethodCmd,"ax",%progbits
 2314              		.align	1
 2315              		.p2align 2,,3
 2316              		.global	USART_OneBitMethodCmd
 2317              		.syntax unified
 2318              		.thumb
 2319              		.thumb_func
 2320              		.fpu softvfp
 2322              	USART_OneBitMethodCmd:
 2323              	.LFB51:
 775:Libraries/STM32F10x_StdPeriph_Driver/src/stm32f10x_usart.c **** 
 776:Libraries/STM32F10x_StdPeriph_Driver/src/stm32f10x_usart.c **** /**
 777:Libraries/STM32F10x_StdPeriph_Driver/src/stm32f10x_usart.c ****   * @brief  Enables or disables the USART's one bit sampling methode.
 778:Libraries/STM32F10x_StdPeriph_Driver/src/stm32f10x_usart.c ****   * @param  USARTx: Select the USART or the UART peripheral.
 779:Libraries/STM32F10x_StdPeriph_Driver/src/stm32f10x_usart.c ****   *   This parameter can be one of the following values:
 780:Libraries/STM32F10x_StdPeriph_Driver/src/stm32f10x_usart.c ****   *   USART1, USART2, USART3, UART4 or UART5.
 781:Libraries/STM32F10x_StdPeriph_Driver/src/stm32f10x_usart.c ****   * @param  NewState: new state of the USART one bit sampling methode.
 782:Libraries/STM32F10x_StdPeriph_Driver/src/stm32f10x_usart.c ****   *   This parameter can be: ENABLE or DISABLE.
 783:Libraries/STM32F10x_StdPeriph_Driver/src/stm32f10x_usart.c ****   * @retval None
 784:Libraries/STM32F10x_StdPeriph_Driver/src/stm32f10x_usart.c ****   */
 785:Libraries/STM32F10x_StdPeriph_Driver/src/stm32f10x_usart.c **** void USART_OneBitMethodCmd(USART_TypeDef* USARTx, FunctionalState NewState)
 786:Libraries/STM32F10x_StdPeriph_Driver/src/stm32f10x_usart.c **** {
 2324              		.loc 1 786 0
 2325              		.cfi_startproc
 2326              		@ args = 0, pretend = 0, frame = 0
 2327              		@ frame_needed = 0, uses_anonymous_args = 0
 2328              	.LVL197:
 2329 0000 38B5     		push	{r3, r4, r5, lr}
 2330              		.cfi_def_cfa_offset 16
 2331              		.cfi_offset 3, -16
 2332              		.cfi_offset 4, -12
 2333              		.cfi_offset 5, -8
 2334              		.cfi_offset 14, -4
 787:Libraries/STM32F10x_StdPeriph_Driver/src/stm32f10x_usart.c ****   /* Check the parameters */
 788:Libraries/STM32F10x_StdPeriph_Driver/src/stm32f10x_usart.c ****   assert_param(IS_USART_ALL_PERIPH(USARTx));
 2335              		.loc 1 788 0
 2336 0002 174B     		ldr	r3, .L247
 786:Libraries/STM32F10x_StdPeriph_Driver/src/stm32f10x_usart.c ****   /* Check the parameters */
 2337              		.loc 1 786 0
 2338 0004 0446     		mov	r4, r0
 2339              		.loc 1 788 0
 2340 0006 9842     		cmp	r0, r3
 786:Libraries/STM32F10x_StdPeriph_Driver/src/stm32f10x_usart.c ****   /* Check the parameters */
 2341              		.loc 1 786 0
 2342 0008 0D46     		mov	r5, r1
 2343              		.loc 1 788 0
 2344 000a 14D0     		beq	.L240
 2345              		.loc 1 788 0 is_stmt 0 discriminator 1
 2346 000c A3F57443 		sub	r3, r3, #62464
 2347 0010 9842     		cmp	r0, r3
 2348 0012 10D0     		beq	.L240
 2349              		.loc 1 788 0 discriminator 2
 2350 0014 03F58063 		add	r3, r3, #1024
 2351 0018 9842     		cmp	r0, r3
 2352 001a 0CD0     		beq	.L240
 2353              		.loc 1 788 0 discriminator 3
 2354 001c 03F58063 		add	r3, r3, #1024
 2355 0020 9842     		cmp	r0, r3
 2356 0022 08D0     		beq	.L240
 2357              		.loc 1 788 0 discriminator 4
 2358 0024 03F58063 		add	r3, r3, #1024
 2359 0028 9842     		cmp	r0, r3
 2360 002a 04D0     		beq	.L240
 2361              		.loc 1 788 0 discriminator 5
 2362 002c 4FF44571 		mov	r1, #788
 2363              	.LVL198:
 2364 0030 0C48     		ldr	r0, .L247+4
 2365              	.LVL199:
 2366 0032 0D4B     		ldr	r3, .L247+8
 2367 0034 9847     		blx	r3
 2368              	.LVL200:
 2369              	.L240:
 789:Libraries/STM32F10x_StdPeriph_Driver/src/stm32f10x_usart.c ****   assert_param(IS_FUNCTIONAL_STATE(NewState));
 2370              		.loc 1 789 0 is_stmt 1
 2371 0036 012D     		cmp	r5, #1
 2372 0038 07D8     		bhi	.L246
 790:Libraries/STM32F10x_StdPeriph_Driver/src/stm32f10x_usart.c ****   
 791:Libraries/STM32F10x_StdPeriph_Driver/src/stm32f10x_usart.c ****   if (NewState != DISABLE)
 2373              		.loc 1 791 0
 2374 003a 5DB9     		cbnz	r5, .L242
 792:Libraries/STM32F10x_StdPeriph_Driver/src/stm32f10x_usart.c ****   {
 793:Libraries/STM32F10x_StdPeriph_Driver/src/stm32f10x_usart.c ****     /* Enable the one bit method by setting the ONEBITE bit in the CR3 register */
 794:Libraries/STM32F10x_StdPeriph_Driver/src/stm32f10x_usart.c ****     USARTx->CR3 |= CR3_ONEBITE_Set;
 795:Libraries/STM32F10x_StdPeriph_Driver/src/stm32f10x_usart.c ****   }
 796:Libraries/STM32F10x_StdPeriph_Driver/src/stm32f10x_usart.c ****   else
 797:Libraries/STM32F10x_StdPeriph_Driver/src/stm32f10x_usart.c ****   {
 798:Libraries/STM32F10x_StdPeriph_Driver/src/stm32f10x_usart.c ****     /* Disable tthe one bit method by clearing the ONEBITE bit in the CR3 register */
 799:Libraries/STM32F10x_StdPeriph_Driver/src/stm32f10x_usart.c ****     USARTx->CR3 &= CR3_ONEBITE_Reset;
 2375              		.loc 1 799 0
 2376 003c A38A     		ldrh	r3, [r4, #20]
 2377 003e 23F40063 		bic	r3, r3, #2048
 2378 0042 1B04     		lsls	r3, r3, #16
 2379 0044 1B0C     		lsrs	r3, r3, #16
 2380 0046 A382     		strh	r3, [r4, #20]	@ movhi
 800:Libraries/STM32F10x_StdPeriph_Driver/src/stm32f10x_usart.c ****   }
 801:Libraries/STM32F10x_StdPeriph_Driver/src/stm32f10x_usart.c **** }
 2381              		.loc 1 801 0
 2382 0048 38BD     		pop	{r3, r4, r5, pc}
 2383              	.LVL201:
 2384              	.L246:
 789:Libraries/STM32F10x_StdPeriph_Driver/src/stm32f10x_usart.c ****   
 2385              		.loc 1 789 0 discriminator 1
 2386 004a 40F21531 		movw	r1, #789
 2387 004e 0548     		ldr	r0, .L247+4
 2388 0050 054B     		ldr	r3, .L247+8
 2389 0052 9847     		blx	r3
 2390              	.LVL202:
 2391              	.L242:
 794:Libraries/STM32F10x_StdPeriph_Driver/src/stm32f10x_usart.c ****   }
 2392              		.loc 1 794 0
 2393 0054 A38A     		ldrh	r3, [r4, #20]
 2394 0056 43F40063 		orr	r3, r3, #2048
 2395 005a A382     		strh	r3, [r4, #20]	@ movhi
 2396              		.loc 1 801 0
 2397 005c 38BD     		pop	{r3, r4, r5, pc}
 2398              	.LVL203:
 2399              	.L248:
 2400 005e 00BF     		.align	2
 2401              	.L247:
 2402 0060 00380140 		.word	1073821696
 2403 0064 00000000 		.word	.LC0
 2404 0068 00000000 		.word	assert_failed
 2405              		.cfi_endproc
 2406              	.LFE51:
 2408              		.section	.text.USART_IrDAConfig,"ax",%progbits
 2409              		.align	1
 2410              		.p2align 2,,3
 2411              		.global	USART_IrDAConfig
 2412              		.syntax unified
 2413              		.thumb
 2414              		.thumb_func
 2415              		.fpu softvfp
 2417              	USART_IrDAConfig:
 2418              	.LFB52:
 802:Libraries/STM32F10x_StdPeriph_Driver/src/stm32f10x_usart.c **** 
 803:Libraries/STM32F10x_StdPeriph_Driver/src/stm32f10x_usart.c **** /**
 804:Libraries/STM32F10x_StdPeriph_Driver/src/stm32f10x_usart.c ****   * @brief  Configures the USARTs IrDA interface.
 805:Libraries/STM32F10x_StdPeriph_Driver/src/stm32f10x_usart.c ****   * @param  USARTx: Select the USART or the UART peripheral. 
 806:Libraries/STM32F10x_StdPeriph_Driver/src/stm32f10x_usart.c ****   *   This parameter can be one of the following values:
 807:Libraries/STM32F10x_StdPeriph_Driver/src/stm32f10x_usart.c ****   *   USART1, USART2, USART3, UART4 or UART5.
 808:Libraries/STM32F10x_StdPeriph_Driver/src/stm32f10x_usart.c ****   * @param  USART_IrDAMode: specifies the IrDA mode.
 809:Libraries/STM32F10x_StdPeriph_Driver/src/stm32f10x_usart.c ****   *   This parameter can be one of the following values:
 810:Libraries/STM32F10x_StdPeriph_Driver/src/stm32f10x_usart.c ****   *     @arg USART_IrDAMode_LowPower
 811:Libraries/STM32F10x_StdPeriph_Driver/src/stm32f10x_usart.c ****   *     @arg USART_IrDAMode_Normal
 812:Libraries/STM32F10x_StdPeriph_Driver/src/stm32f10x_usart.c ****   * @retval None
 813:Libraries/STM32F10x_StdPeriph_Driver/src/stm32f10x_usart.c ****   */
 814:Libraries/STM32F10x_StdPeriph_Driver/src/stm32f10x_usart.c **** void USART_IrDAConfig(USART_TypeDef* USARTx, uint16_t USART_IrDAMode)
 815:Libraries/STM32F10x_StdPeriph_Driver/src/stm32f10x_usart.c **** {
 2419              		.loc 1 815 0
 2420              		.cfi_startproc
 2421              		@ args = 0, pretend = 0, frame = 0
 2422              		@ frame_needed = 0, uses_anonymous_args = 0
 2423              	.LVL204:
 2424 0000 38B5     		push	{r3, r4, r5, lr}
 2425              		.cfi_def_cfa_offset 16
 2426              		.cfi_offset 3, -16
 2427              		.cfi_offset 4, -12
 2428              		.cfi_offset 5, -8
 2429              		.cfi_offset 14, -4
 816:Libraries/STM32F10x_StdPeriph_Driver/src/stm32f10x_usart.c ****   /* Check the parameters */
 817:Libraries/STM32F10x_StdPeriph_Driver/src/stm32f10x_usart.c ****   assert_param(IS_USART_ALL_PERIPH(USARTx));
 2430              		.loc 1 817 0
 2431 0002 164B     		ldr	r3, .L257
 815:Libraries/STM32F10x_StdPeriph_Driver/src/stm32f10x_usart.c ****   /* Check the parameters */
 2432              		.loc 1 815 0
 2433 0004 0446     		mov	r4, r0
 2434              		.loc 1 817 0
 2435 0006 9842     		cmp	r0, r3
 815:Libraries/STM32F10x_StdPeriph_Driver/src/stm32f10x_usart.c ****   /* Check the parameters */
 2436              		.loc 1 815 0
 2437 0008 0D46     		mov	r5, r1
 2438              		.loc 1 817 0
 2439 000a 14D0     		beq	.L250
 2440              		.loc 1 817 0 is_stmt 0 discriminator 1
 2441 000c A3F57443 		sub	r3, r3, #62464
 2442 0010 9842     		cmp	r0, r3
 2443 0012 10D0     		beq	.L250
 2444              		.loc 1 817 0 discriminator 2
 2445 0014 03F58063 		add	r3, r3, #1024
 2446 0018 9842     		cmp	r0, r3
 2447 001a 0CD0     		beq	.L250
 2448              		.loc 1 817 0 discriminator 3
 2449 001c 03F58063 		add	r3, r3, #1024
 2450 0020 9842     		cmp	r0, r3
 2451 0022 08D0     		beq	.L250
 2452              		.loc 1 817 0 discriminator 4
 2453 0024 03F58063 		add	r3, r3, #1024
 2454 0028 9842     		cmp	r0, r3
 2455 002a 04D0     		beq	.L250
 2456              		.loc 1 817 0 discriminator 5
 2457 002c 40F23131 		movw	r1, #817
 2458              	.LVL205:
 2459 0030 0B48     		ldr	r0, .L257+4
 2460              	.LVL206:
 2461 0032 0C4B     		ldr	r3, .L257+8
 2462 0034 9847     		blx	r3
 2463              	.LVL207:
 2464              	.L250:
 818:Libraries/STM32F10x_StdPeriph_Driver/src/stm32f10x_usart.c ****   assert_param(IS_USART_IRDA_MODE(USART_IrDAMode));
 2465              		.loc 1 818 0 is_stmt 1
 2466 0036 25F00403 		bic	r3, r5, #4
 2467 003a 4BB9     		cbnz	r3, .L256
 2468              	.L251:
 819:Libraries/STM32F10x_StdPeriph_Driver/src/stm32f10x_usart.c ****     
 820:Libraries/STM32F10x_StdPeriph_Driver/src/stm32f10x_usart.c ****   USARTx->CR3 &= CR3_IRLP_Mask;
 2469              		.loc 1 820 0
 2470 003c A38A     		ldrh	r3, [r4, #20]
 2471 003e 23F00403 		bic	r3, r3, #4
 2472 0042 1B04     		lsls	r3, r3, #16
 2473 0044 1B0C     		lsrs	r3, r3, #16
 2474 0046 A382     		strh	r3, [r4, #20]	@ movhi
 821:Libraries/STM32F10x_StdPeriph_Driver/src/stm32f10x_usart.c ****   USARTx->CR3 |= USART_IrDAMode;
 2475              		.loc 1 821 0
 2476 0048 A38A     		ldrh	r3, [r4, #20]
 2477 004a 1D43     		orrs	r5, r5, r3
 2478 004c A582     		strh	r5, [r4, #20]	@ movhi
 822:Libraries/STM32F10x_StdPeriph_Driver/src/stm32f10x_usart.c **** }
 2479              		.loc 1 822 0
 2480 004e 38BD     		pop	{r3, r4, r5, pc}
 2481              	.LVL208:
 2482              	.L256:
 818:Libraries/STM32F10x_StdPeriph_Driver/src/stm32f10x_usart.c ****     
 2483              		.loc 1 818 0 discriminator 2
 2484 0050 40F23231 		movw	r1, #818
 2485 0054 034B     		ldr	r3, .L257+8
 2486 0056 0248     		ldr	r0, .L257+4
 2487 0058 9847     		blx	r3
 2488              	.LVL209:
 2489 005a EFE7     		b	.L251
 2490              	.L258:
 2491              		.align	2
 2492              	.L257:
 2493 005c 00380140 		.word	1073821696
 2494 0060 00000000 		.word	.LC0
 2495 0064 00000000 		.word	assert_failed
 2496              		.cfi_endproc
 2497              	.LFE52:
 2499              		.section	.text.USART_IrDACmd,"ax",%progbits
 2500              		.align	1
 2501              		.p2align 2,,3
 2502              		.global	USART_IrDACmd
 2503              		.syntax unified
 2504              		.thumb
 2505              		.thumb_func
 2506              		.fpu softvfp
 2508              	USART_IrDACmd:
 2509              	.LFB53:
 823:Libraries/STM32F10x_StdPeriph_Driver/src/stm32f10x_usart.c **** 
 824:Libraries/STM32F10x_StdPeriph_Driver/src/stm32f10x_usart.c **** /**
 825:Libraries/STM32F10x_StdPeriph_Driver/src/stm32f10x_usart.c ****   * @brief  Enables or disables the USARTs IrDA interface.
 826:Libraries/STM32F10x_StdPeriph_Driver/src/stm32f10x_usart.c ****   * @param  USARTx: Select the USART or the UART peripheral. 
 827:Libraries/STM32F10x_StdPeriph_Driver/src/stm32f10x_usart.c ****   *   This parameter can be one of the following values:
 828:Libraries/STM32F10x_StdPeriph_Driver/src/stm32f10x_usart.c ****   *   USART1, USART2, USART3, UART4 or UART5.
 829:Libraries/STM32F10x_StdPeriph_Driver/src/stm32f10x_usart.c ****   * @param  NewState: new state of the IrDA mode.
 830:Libraries/STM32F10x_StdPeriph_Driver/src/stm32f10x_usart.c ****   *   This parameter can be: ENABLE or DISABLE.
 831:Libraries/STM32F10x_StdPeriph_Driver/src/stm32f10x_usart.c ****   * @retval None
 832:Libraries/STM32F10x_StdPeriph_Driver/src/stm32f10x_usart.c ****   */
 833:Libraries/STM32F10x_StdPeriph_Driver/src/stm32f10x_usart.c **** void USART_IrDACmd(USART_TypeDef* USARTx, FunctionalState NewState)
 834:Libraries/STM32F10x_StdPeriph_Driver/src/stm32f10x_usart.c **** {
 2510              		.loc 1 834 0
 2511              		.cfi_startproc
 2512              		@ args = 0, pretend = 0, frame = 0
 2513              		@ frame_needed = 0, uses_anonymous_args = 0
 2514              	.LVL210:
 2515 0000 38B5     		push	{r3, r4, r5, lr}
 2516              		.cfi_def_cfa_offset 16
 2517              		.cfi_offset 3, -16
 2518              		.cfi_offset 4, -12
 2519              		.cfi_offset 5, -8
 2520              		.cfi_offset 14, -4
 835:Libraries/STM32F10x_StdPeriph_Driver/src/stm32f10x_usart.c ****   /* Check the parameters */
 836:Libraries/STM32F10x_StdPeriph_Driver/src/stm32f10x_usart.c ****   assert_param(IS_USART_ALL_PERIPH(USARTx));
 2521              		.loc 1 836 0
 2522 0002 174B     		ldr	r3, .L267
 834:Libraries/STM32F10x_StdPeriph_Driver/src/stm32f10x_usart.c ****   /* Check the parameters */
 2523              		.loc 1 834 0
 2524 0004 0446     		mov	r4, r0
 2525              		.loc 1 836 0
 2526 0006 9842     		cmp	r0, r3
 834:Libraries/STM32F10x_StdPeriph_Driver/src/stm32f10x_usart.c ****   /* Check the parameters */
 2527              		.loc 1 834 0
 2528 0008 0D46     		mov	r5, r1
 2529              		.loc 1 836 0
 2530 000a 14D0     		beq	.L260
 2531              		.loc 1 836 0 is_stmt 0 discriminator 1
 2532 000c A3F57443 		sub	r3, r3, #62464
 2533 0010 9842     		cmp	r0, r3
 2534 0012 10D0     		beq	.L260
 2535              		.loc 1 836 0 discriminator 2
 2536 0014 03F58063 		add	r3, r3, #1024
 2537 0018 9842     		cmp	r0, r3
 2538 001a 0CD0     		beq	.L260
 2539              		.loc 1 836 0 discriminator 3
 2540 001c 03F58063 		add	r3, r3, #1024
 2541 0020 9842     		cmp	r0, r3
 2542 0022 08D0     		beq	.L260
 2543              		.loc 1 836 0 discriminator 4
 2544 0024 03F58063 		add	r3, r3, #1024
 2545 0028 9842     		cmp	r0, r3
 2546 002a 04D0     		beq	.L260
 2547              		.loc 1 836 0 discriminator 5
 2548 002c 4FF45171 		mov	r1, #836
 2549              	.LVL211:
 2550 0030 0C48     		ldr	r0, .L267+4
 2551              	.LVL212:
 2552 0032 0D4B     		ldr	r3, .L267+8
 2553 0034 9847     		blx	r3
 2554              	.LVL213:
 2555              	.L260:
 837:Libraries/STM32F10x_StdPeriph_Driver/src/stm32f10x_usart.c ****   assert_param(IS_FUNCTIONAL_STATE(NewState));
 2556              		.loc 1 837 0 is_stmt 1
 2557 0036 012D     		cmp	r5, #1
 2558 0038 07D8     		bhi	.L266
 838:Libraries/STM32F10x_StdPeriph_Driver/src/stm32f10x_usart.c ****     
 839:Libraries/STM32F10x_StdPeriph_Driver/src/stm32f10x_usart.c ****   if (NewState != DISABLE)
 2559              		.loc 1 839 0
 2560 003a 5DB9     		cbnz	r5, .L262
 840:Libraries/STM32F10x_StdPeriph_Driver/src/stm32f10x_usart.c ****   {
 841:Libraries/STM32F10x_StdPeriph_Driver/src/stm32f10x_usart.c ****     /* Enable the IrDA mode by setting the IREN bit in the CR3 register */
 842:Libraries/STM32F10x_StdPeriph_Driver/src/stm32f10x_usart.c ****     USARTx->CR3 |= CR3_IREN_Set;
 843:Libraries/STM32F10x_StdPeriph_Driver/src/stm32f10x_usart.c ****   }
 844:Libraries/STM32F10x_StdPeriph_Driver/src/stm32f10x_usart.c ****   else
 845:Libraries/STM32F10x_StdPeriph_Driver/src/stm32f10x_usart.c ****   {
 846:Libraries/STM32F10x_StdPeriph_Driver/src/stm32f10x_usart.c ****     /* Disable the IrDA mode by clearing the IREN bit in the CR3 register */
 847:Libraries/STM32F10x_StdPeriph_Driver/src/stm32f10x_usart.c ****     USARTx->CR3 &= CR3_IREN_Reset;
 2561              		.loc 1 847 0
 2562 003c A38A     		ldrh	r3, [r4, #20]
 2563 003e 23F00203 		bic	r3, r3, #2
 2564 0042 1B04     		lsls	r3, r3, #16
 2565 0044 1B0C     		lsrs	r3, r3, #16
 2566 0046 A382     		strh	r3, [r4, #20]	@ movhi
 848:Libraries/STM32F10x_StdPeriph_Driver/src/stm32f10x_usart.c ****   }
 849:Libraries/STM32F10x_StdPeriph_Driver/src/stm32f10x_usart.c **** }
 2567              		.loc 1 849 0
 2568 0048 38BD     		pop	{r3, r4, r5, pc}
 2569              	.LVL214:
 2570              	.L266:
 837:Libraries/STM32F10x_StdPeriph_Driver/src/stm32f10x_usart.c ****     
 2571              		.loc 1 837 0 discriminator 1
 2572 004a 40F24531 		movw	r1, #837
 2573 004e 0548     		ldr	r0, .L267+4
 2574 0050 054B     		ldr	r3, .L267+8
 2575 0052 9847     		blx	r3
 2576              	.LVL215:
 2577              	.L262:
 842:Libraries/STM32F10x_StdPeriph_Driver/src/stm32f10x_usart.c ****   }
 2578              		.loc 1 842 0
 2579 0054 A38A     		ldrh	r3, [r4, #20]
 2580 0056 43F00203 		orr	r3, r3, #2
 2581 005a A382     		strh	r3, [r4, #20]	@ movhi
 2582              		.loc 1 849 0
 2583 005c 38BD     		pop	{r3, r4, r5, pc}
 2584              	.LVL216:
 2585              	.L268:
 2586 005e 00BF     		.align	2
 2587              	.L267:
 2588 0060 00380140 		.word	1073821696
 2589 0064 00000000 		.word	.LC0
 2590 0068 00000000 		.word	assert_failed
 2591              		.cfi_endproc
 2592              	.LFE53:
 2594              		.section	.text.USART_GetFlagStatus,"ax",%progbits
 2595              		.align	1
 2596              		.p2align 2,,3
 2597              		.global	USART_GetFlagStatus
 2598              		.syntax unified
 2599              		.thumb
 2600              		.thumb_func
 2601              		.fpu softvfp
 2603              	USART_GetFlagStatus:
 2604              	.LFB54:
 850:Libraries/STM32F10x_StdPeriph_Driver/src/stm32f10x_usart.c **** 
 851:Libraries/STM32F10x_StdPeriph_Driver/src/stm32f10x_usart.c **** /**
 852:Libraries/STM32F10x_StdPeriph_Driver/src/stm32f10x_usart.c ****   * @brief  Checks whether the specified USART flag is set or not.
 853:Libraries/STM32F10x_StdPeriph_Driver/src/stm32f10x_usart.c ****   * @param  USARTx: Select the USART or the UART peripheral. 
 854:Libraries/STM32F10x_StdPeriph_Driver/src/stm32f10x_usart.c ****   *   This parameter can be one of the following values:
 855:Libraries/STM32F10x_StdPeriph_Driver/src/stm32f10x_usart.c ****   *   USART1, USART2, USART3, UART4 or UART5.
 856:Libraries/STM32F10x_StdPeriph_Driver/src/stm32f10x_usart.c ****   * @param  USART_FLAG: specifies the flag to check.
 857:Libraries/STM32F10x_StdPeriph_Driver/src/stm32f10x_usart.c ****   *   This parameter can be one of the following values:
 858:Libraries/STM32F10x_StdPeriph_Driver/src/stm32f10x_usart.c ****   *     @arg USART_FLAG_CTS:  CTS Change flag (not available for UART4 and UART5)
 859:Libraries/STM32F10x_StdPeriph_Driver/src/stm32f10x_usart.c ****   *     @arg USART_FLAG_LBD:  LIN Break detection flag
 860:Libraries/STM32F10x_StdPeriph_Driver/src/stm32f10x_usart.c ****   *     @arg USART_FLAG_TXE:  Transmit data register empty flag
 861:Libraries/STM32F10x_StdPeriph_Driver/src/stm32f10x_usart.c ****   *     @arg USART_FLAG_TC:   Transmission Complete flag
 862:Libraries/STM32F10x_StdPeriph_Driver/src/stm32f10x_usart.c ****   *     @arg USART_FLAG_RXNE: Receive data register not empty flag
 863:Libraries/STM32F10x_StdPeriph_Driver/src/stm32f10x_usart.c ****   *     @arg USART_FLAG_IDLE: Idle Line detection flag
 864:Libraries/STM32F10x_StdPeriph_Driver/src/stm32f10x_usart.c ****   *     @arg USART_FLAG_ORE:  OverRun Error flag
 865:Libraries/STM32F10x_StdPeriph_Driver/src/stm32f10x_usart.c ****   *     @arg USART_FLAG_NE:   Noise Error flag
 866:Libraries/STM32F10x_StdPeriph_Driver/src/stm32f10x_usart.c ****   *     @arg USART_FLAG_FE:   Framing Error flag
 867:Libraries/STM32F10x_StdPeriph_Driver/src/stm32f10x_usart.c ****   *     @arg USART_FLAG_PE:   Parity Error flag
 868:Libraries/STM32F10x_StdPeriph_Driver/src/stm32f10x_usart.c ****   * @retval The new state of USART_FLAG (SET or RESET).
 869:Libraries/STM32F10x_StdPeriph_Driver/src/stm32f10x_usart.c ****   */
 870:Libraries/STM32F10x_StdPeriph_Driver/src/stm32f10x_usart.c **** FlagStatus USART_GetFlagStatus(USART_TypeDef* USARTx, uint16_t USART_FLAG)
 871:Libraries/STM32F10x_StdPeriph_Driver/src/stm32f10x_usart.c **** {
 2605              		.loc 1 871 0
 2606              		.cfi_startproc
 2607              		@ args = 0, pretend = 0, frame = 0
 2608              		@ frame_needed = 0, uses_anonymous_args = 0
 2609              	.LVL217:
 2610 0000 38B5     		push	{r3, r4, r5, lr}
 2611              		.cfi_def_cfa_offset 16
 2612              		.cfi_offset 3, -16
 2613              		.cfi_offset 4, -12
 2614              		.cfi_offset 5, -8
 2615              		.cfi_offset 14, -4
 872:Libraries/STM32F10x_StdPeriph_Driver/src/stm32f10x_usart.c ****   FlagStatus bitstatus = RESET;
 873:Libraries/STM32F10x_StdPeriph_Driver/src/stm32f10x_usart.c ****   /* Check the parameters */
 874:Libraries/STM32F10x_StdPeriph_Driver/src/stm32f10x_usart.c ****   assert_param(IS_USART_ALL_PERIPH(USARTx));
 2616              		.loc 1 874 0
 2617 0002 284B     		ldr	r3, .L295
 871:Libraries/STM32F10x_StdPeriph_Driver/src/stm32f10x_usart.c ****   FlagStatus bitstatus = RESET;
 2618              		.loc 1 871 0
 2619 0004 0446     		mov	r4, r0
 2620              		.loc 1 874 0
 2621 0006 9842     		cmp	r0, r3
 871:Libraries/STM32F10x_StdPeriph_Driver/src/stm32f10x_usart.c ****   FlagStatus bitstatus = RESET;
 2622              		.loc 1 871 0
 2623 0008 0D46     		mov	r5, r1
 2624              		.loc 1 874 0
 2625 000a 14D0     		beq	.L270
 2626              		.loc 1 874 0 is_stmt 0 discriminator 1
 2627 000c A3F57443 		sub	r3, r3, #62464
 2628 0010 9842     		cmp	r0, r3
 2629 0012 10D0     		beq	.L270
 2630              		.loc 1 874 0 discriminator 2
 2631 0014 03F58063 		add	r3, r3, #1024
 2632 0018 9842     		cmp	r0, r3
 2633 001a 0CD0     		beq	.L270
 2634              		.loc 1 874 0 discriminator 3
 2635 001c 03F58063 		add	r3, r3, #1024
 2636 0020 9842     		cmp	r0, r3
 2637 0022 08D0     		beq	.L270
 2638              		.loc 1 874 0 discriminator 4
 2639 0024 03F58063 		add	r3, r3, #1024
 2640 0028 9842     		cmp	r0, r3
 2641 002a 04D0     		beq	.L270
 2642              		.loc 1 874 0 discriminator 5
 2643 002c 40F26A31 		movw	r1, #874
 2644              	.LVL218:
 2645 0030 1D48     		ldr	r0, .L295+4
 2646              	.LVL219:
 2647 0032 1E4B     		ldr	r3, .L295+8
 2648 0034 9847     		blx	r3
 2649              	.LVL220:
 2650              	.L270:
 875:Libraries/STM32F10x_StdPeriph_Driver/src/stm32f10x_usart.c ****   assert_param(IS_USART_FLAG(USART_FLAG));
 2651              		.loc 1 875 0 is_stmt 1
 2652 0036 6B1E     		subs	r3, r5, #1
 2653 0038 9BB2     		uxth	r3, r3
 2654 003a 1F2B     		cmp	r3, #31
 2655 003c 1BD9     		bls	.L294
 2656              	.L271:
 2657              		.loc 1 875 0 is_stmt 0 discriminator 1
 2658 003e 802D     		cmp	r5, #128
 2659 0040 13D0     		beq	.L275
 2660              		.loc 1 875 0 discriminator 2
 2661 0042 402D     		cmp	r5, #64
 2662 0044 11D0     		beq	.L275
 2663              		.loc 1 875 0 discriminator 5
 2664 0046 B5F5807F 		cmp	r5, #256
 2665 004a 0ED0     		beq	.L275
 2666              		.loc 1 875 0 discriminator 6
 2667 004c B5F5007F 		cmp	r5, #512
 2668 0050 17D0     		beq	.L273
 2669              		.loc 1 875 0 discriminator 9
 2670 0052 082D     		cmp	r5, #8
 2671 0054 04D8     		bhi	.L274
 2672 0056 4FF48A73 		mov	r3, #276
 2673 005a EB40     		lsrs	r3, r3, r5
 2674 005c DB07     		lsls	r3, r3, #31
 2675 005e 04D4     		bmi	.L275
 2676              	.L274:
 2677              		.loc 1 875 0 discriminator 10
 2678 0060 40F26B31 		movw	r1, #875
 2679 0064 1048     		ldr	r0, .L295+4
 2680 0066 114B     		ldr	r3, .L295+8
 2681 0068 9847     		blx	r3
 2682              	.LVL221:
 2683              	.L275:
 876:Libraries/STM32F10x_StdPeriph_Driver/src/stm32f10x_usart.c ****   /* The CTS flag is not available for UART4 and UART5 */
 877:Libraries/STM32F10x_StdPeriph_Driver/src/stm32f10x_usart.c ****   if (USART_FLAG == USART_FLAG_CTS)
 878:Libraries/STM32F10x_StdPeriph_Driver/src/stm32f10x_usart.c ****   {
 879:Libraries/STM32F10x_StdPeriph_Driver/src/stm32f10x_usart.c ****     assert_param(IS_USART_123_PERIPH(USARTx));
 880:Libraries/STM32F10x_StdPeriph_Driver/src/stm32f10x_usart.c ****   }  
 881:Libraries/STM32F10x_StdPeriph_Driver/src/stm32f10x_usart.c ****   
 882:Libraries/STM32F10x_StdPeriph_Driver/src/stm32f10x_usart.c ****   if ((USARTx->SR & USART_FLAG) != (uint16_t)RESET)
 2684              		.loc 1 882 0 is_stmt 1
 2685 006a 2388     		ldrh	r3, [r4]
 2686              	.LVL222:
 2687 006c 1D42     		tst	r5, r3
 883:Libraries/STM32F10x_StdPeriph_Driver/src/stm32f10x_usart.c ****   {
 884:Libraries/STM32F10x_StdPeriph_Driver/src/stm32f10x_usart.c ****     bitstatus = SET;
 885:Libraries/STM32F10x_StdPeriph_Driver/src/stm32f10x_usart.c ****   }
 886:Libraries/STM32F10x_StdPeriph_Driver/src/stm32f10x_usart.c ****   else
 887:Libraries/STM32F10x_StdPeriph_Driver/src/stm32f10x_usart.c ****   {
 888:Libraries/STM32F10x_StdPeriph_Driver/src/stm32f10x_usart.c ****     bitstatus = RESET;
 889:Libraries/STM32F10x_StdPeriph_Driver/src/stm32f10x_usart.c ****   }
 890:Libraries/STM32F10x_StdPeriph_Driver/src/stm32f10x_usart.c ****   return bitstatus;
 2688              		.loc 1 890 0
 2689 006e 14BF     		ite	ne
 2690 0070 0120     		movne	r0, #1
 2691 0072 0020     		moveq	r0, #0
 891:Libraries/STM32F10x_StdPeriph_Driver/src/stm32f10x_usart.c **** }
 2692              		.loc 1 891 0
 2693 0074 38BD     		pop	{r3, r4, r5, pc}
 2694              	.LVL223:
 2695              	.L294:
 875:Libraries/STM32F10x_StdPeriph_Driver/src/stm32f10x_usart.c ****   /* The CTS flag is not available for UART4 and UART5 */
 2696              		.loc 1 875 0
 2697 0076 0E4A     		ldr	r2, .L295+12
 2698 0078 22FA03F3 		lsr	r3, r2, r3
 2699 007c DA07     		lsls	r2, r3, #31
 2700 007e F4D4     		bmi	.L275
 2701 0080 DDE7     		b	.L271
 2702              	.L273:
 879:Libraries/STM32F10x_StdPeriph_Driver/src/stm32f10x_usart.c ****   }  
 2703              		.loc 1 879 0
 2704 0082 084B     		ldr	r3, .L295
 2705 0084 9C42     		cmp	r4, r3
 2706 0086 F0D0     		beq	.L275
 879:Libraries/STM32F10x_StdPeriph_Driver/src/stm32f10x_usart.c ****   }  
 2707              		.loc 1 879 0 is_stmt 0 discriminator 1
 2708 0088 0A4B     		ldr	r3, .L295+16
 2709 008a 9C42     		cmp	r4, r3
 2710 008c EDD0     		beq	.L275
 879:Libraries/STM32F10x_StdPeriph_Driver/src/stm32f10x_usart.c ****   }  
 2711              		.loc 1 879 0 discriminator 2
 2712 008e 03F58063 		add	r3, r3, #1024
 2713 0092 9C42     		cmp	r4, r3
 2714 0094 E9D0     		beq	.L275
 879:Libraries/STM32F10x_StdPeriph_Driver/src/stm32f10x_usart.c ****   }  
 2715              		.loc 1 879 0 discriminator 3
 2716 0096 40F26F31 		movw	r1, #879
 2717 009a 044B     		ldr	r3, .L295+8
 2718 009c 0248     		ldr	r0, .L295+4
 2719 009e 9847     		blx	r3
 2720              	.LVL224:
 2721 00a0 E3E7     		b	.L275
 2722              	.L296:
 2723 00a2 00BF     		.align	2
 2724              	.L295:
 2725 00a4 00380140 		.word	1073821696
 2726 00a8 00000000 		.word	.LC0
 2727 00ac 00000000 		.word	assert_failed
 2728 00b0 01800080 		.word	-2147450879
 2729 00b4 00440040 		.word	1073759232
 2730              		.cfi_endproc
 2731              	.LFE54:
 2733              		.section	.text.USART_ClearFlag,"ax",%progbits
 2734              		.align	1
 2735              		.p2align 2,,3
 2736              		.global	USART_ClearFlag
 2737              		.syntax unified
 2738              		.thumb
 2739              		.thumb_func
 2740              		.fpu softvfp
 2742              	USART_ClearFlag:
 2743              	.LFB55:
 892:Libraries/STM32F10x_StdPeriph_Driver/src/stm32f10x_usart.c **** 
 893:Libraries/STM32F10x_StdPeriph_Driver/src/stm32f10x_usart.c **** /**
 894:Libraries/STM32F10x_StdPeriph_Driver/src/stm32f10x_usart.c ****   * @brief  Clears the USARTx's pending flags.
 895:Libraries/STM32F10x_StdPeriph_Driver/src/stm32f10x_usart.c ****   * @param  USARTx: Select the USART or the UART peripheral. 
 896:Libraries/STM32F10x_StdPeriph_Driver/src/stm32f10x_usart.c ****   *   This parameter can be one of the following values:
 897:Libraries/STM32F10x_StdPeriph_Driver/src/stm32f10x_usart.c ****   *   USART1, USART2, USART3, UART4 or UART5.
 898:Libraries/STM32F10x_StdPeriph_Driver/src/stm32f10x_usart.c ****   * @param  USART_FLAG: specifies the flag to clear.
 899:Libraries/STM32F10x_StdPeriph_Driver/src/stm32f10x_usart.c ****   *   This parameter can be any combination of the following values:
 900:Libraries/STM32F10x_StdPeriph_Driver/src/stm32f10x_usart.c ****   *     @arg USART_FLAG_CTS:  CTS Change flag (not available for UART4 and UART5).
 901:Libraries/STM32F10x_StdPeriph_Driver/src/stm32f10x_usart.c ****   *     @arg USART_FLAG_LBD:  LIN Break detection flag.
 902:Libraries/STM32F10x_StdPeriph_Driver/src/stm32f10x_usart.c ****   *     @arg USART_FLAG_TC:   Transmission Complete flag.
 903:Libraries/STM32F10x_StdPeriph_Driver/src/stm32f10x_usart.c ****   *     @arg USART_FLAG_RXNE: Receive data register not empty flag.
 904:Libraries/STM32F10x_StdPeriph_Driver/src/stm32f10x_usart.c ****   *   
 905:Libraries/STM32F10x_StdPeriph_Driver/src/stm32f10x_usart.c ****   * @note
 906:Libraries/STM32F10x_StdPeriph_Driver/src/stm32f10x_usart.c ****   *   - PE (Parity error), FE (Framing error), NE (Noise error), ORE (OverRun 
 907:Libraries/STM32F10x_StdPeriph_Driver/src/stm32f10x_usart.c ****   *     error) and IDLE (Idle line detected) flags are cleared by software 
 908:Libraries/STM32F10x_StdPeriph_Driver/src/stm32f10x_usart.c ****   *     sequence: a read operation to USART_SR register (USART_GetFlagStatus()) 
 909:Libraries/STM32F10x_StdPeriph_Driver/src/stm32f10x_usart.c ****   *     followed by a read operation to USART_DR register (USART_ReceiveData()).
 910:Libraries/STM32F10x_StdPeriph_Driver/src/stm32f10x_usart.c ****   *   - RXNE flag can be also cleared by a read to the USART_DR register 
 911:Libraries/STM32F10x_StdPeriph_Driver/src/stm32f10x_usart.c ****   *     (USART_ReceiveData()).
 912:Libraries/STM32F10x_StdPeriph_Driver/src/stm32f10x_usart.c ****   *   - TC flag can be also cleared by software sequence: a read operation to 
 913:Libraries/STM32F10x_StdPeriph_Driver/src/stm32f10x_usart.c ****   *     USART_SR register (USART_GetFlagStatus()) followed by a write operation
 914:Libraries/STM32F10x_StdPeriph_Driver/src/stm32f10x_usart.c ****   *     to USART_DR register (USART_SendData()).
 915:Libraries/STM32F10x_StdPeriph_Driver/src/stm32f10x_usart.c ****   *   - TXE flag is cleared only by a write to the USART_DR register 
 916:Libraries/STM32F10x_StdPeriph_Driver/src/stm32f10x_usart.c ****   *     (USART_SendData()).
 917:Libraries/STM32F10x_StdPeriph_Driver/src/stm32f10x_usart.c ****   * @retval None
 918:Libraries/STM32F10x_StdPeriph_Driver/src/stm32f10x_usart.c ****   */
 919:Libraries/STM32F10x_StdPeriph_Driver/src/stm32f10x_usart.c **** void USART_ClearFlag(USART_TypeDef* USARTx, uint16_t USART_FLAG)
 920:Libraries/STM32F10x_StdPeriph_Driver/src/stm32f10x_usart.c **** {
 2744              		.loc 1 920 0 is_stmt 1
 2745              		.cfi_startproc
 2746              		@ args = 0, pretend = 0, frame = 0
 2747              		@ frame_needed = 0, uses_anonymous_args = 0
 2748              	.LVL225:
 2749 0000 38B5     		push	{r3, r4, r5, lr}
 2750              		.cfi_def_cfa_offset 16
 2751              		.cfi_offset 3, -16
 2752              		.cfi_offset 4, -12
 2753              		.cfi_offset 5, -8
 2754              		.cfi_offset 14, -4
 921:Libraries/STM32F10x_StdPeriph_Driver/src/stm32f10x_usart.c ****   /* Check the parameters */
 922:Libraries/STM32F10x_StdPeriph_Driver/src/stm32f10x_usart.c ****   assert_param(IS_USART_ALL_PERIPH(USARTx));
 2755              		.loc 1 922 0
 2756 0002 1D4B     		ldr	r3, .L306
 920:Libraries/STM32F10x_StdPeriph_Driver/src/stm32f10x_usart.c ****   /* Check the parameters */
 2757              		.loc 1 920 0
 2758 0004 0546     		mov	r5, r0
 2759              		.loc 1 922 0
 2760 0006 9842     		cmp	r0, r3
 920:Libraries/STM32F10x_StdPeriph_Driver/src/stm32f10x_usart.c ****   /* Check the parameters */
 2761              		.loc 1 920 0
 2762 0008 0C46     		mov	r4, r1
 2763              		.loc 1 922 0
 2764 000a 14D0     		beq	.L298
 2765              		.loc 1 922 0 is_stmt 0 discriminator 1
 2766 000c A3F57443 		sub	r3, r3, #62464
 2767 0010 9842     		cmp	r0, r3
 2768 0012 10D0     		beq	.L298
 2769              		.loc 1 922 0 discriminator 2
 2770 0014 03F58063 		add	r3, r3, #1024
 2771 0018 9842     		cmp	r0, r3
 2772 001a 0CD0     		beq	.L298
 2773              		.loc 1 922 0 discriminator 3
 2774 001c 03F58063 		add	r3, r3, #1024
 2775 0020 9842     		cmp	r0, r3
 2776 0022 08D0     		beq	.L298
 2777              		.loc 1 922 0 discriminator 4
 2778 0024 03F58063 		add	r3, r3, #1024
 2779 0028 9842     		cmp	r0, r3
 2780 002a 04D0     		beq	.L298
 2781              		.loc 1 922 0 discriminator 5
 2782 002c 40F29A31 		movw	r1, #922
 2783              	.LVL226:
 2784 0030 1248     		ldr	r0, .L306+4
 2785              	.LVL227:
 2786 0032 134B     		ldr	r3, .L306+8
 2787 0034 9847     		blx	r3
 2788              	.LVL228:
 2789              	.L298:
 923:Libraries/STM32F10x_StdPeriph_Driver/src/stm32f10x_usart.c ****   assert_param(IS_USART_CLEAR_FLAG(USART_FLAG));
 2790              		.loc 1 923 0 is_stmt 1
 2791 0036 24F45873 		bic	r3, r4, #864
 2792 003a B3B9     		cbnz	r3, .L299
 2793              		.loc 1 923 0 is_stmt 0 discriminator 2
 2794 003c ACB1     		cbz	r4, .L299
 2795              	.L300:
 924:Libraries/STM32F10x_StdPeriph_Driver/src/stm32f10x_usart.c ****   /* The CTS flag is not available for UART4 and UART5 */
 925:Libraries/STM32F10x_StdPeriph_Driver/src/stm32f10x_usart.c ****   if ((USART_FLAG & USART_FLAG_CTS) == USART_FLAG_CTS)
 2796              		.loc 1 925 0 is_stmt 1
 2797 003e A305     		lsls	r3, r4, #22
 2798 0040 0FD5     		bpl	.L301
 926:Libraries/STM32F10x_StdPeriph_Driver/src/stm32f10x_usart.c ****   {
 927:Libraries/STM32F10x_StdPeriph_Driver/src/stm32f10x_usart.c ****     assert_param(IS_USART_123_PERIPH(USARTx));
 2799              		.loc 1 927 0
 2800 0042 0D4B     		ldr	r3, .L306
 2801 0044 9D42     		cmp	r5, r3
 2802 0046 0CD0     		beq	.L301
 2803              		.loc 1 927 0 is_stmt 0 discriminator 1
 2804 0048 A3F57443 		sub	r3, r3, #62464
 2805 004c 9D42     		cmp	r5, r3
 2806 004e 08D0     		beq	.L301
 2807              		.loc 1 927 0 discriminator 2
 2808 0050 03F58063 		add	r3, r3, #1024
 2809 0054 9D42     		cmp	r5, r3
 2810 0056 04D0     		beq	.L301
 2811              		.loc 1 927 0 discriminator 3
 2812 0058 40F29F31 		movw	r1, #927
 2813 005c 0748     		ldr	r0, .L306+4
 2814 005e 084B     		ldr	r3, .L306+8
 2815 0060 9847     		blx	r3
 2816              	.LVL229:
 2817              	.L301:
 928:Libraries/STM32F10x_StdPeriph_Driver/src/stm32f10x_usart.c ****   } 
 929:Libraries/STM32F10x_StdPeriph_Driver/src/stm32f10x_usart.c ****    
 930:Libraries/STM32F10x_StdPeriph_Driver/src/stm32f10x_usart.c ****   USARTx->SR = (uint16_t)~USART_FLAG;
 2818              		.loc 1 930 0 is_stmt 1
 2819 0062 E443     		mvns	r4, r4
 2820 0064 A4B2     		uxth	r4, r4
 2821 0066 2C80     		strh	r4, [r5]	@ movhi
 931:Libraries/STM32F10x_StdPeriph_Driver/src/stm32f10x_usart.c **** }
 2822              		.loc 1 931 0
 2823 0068 38BD     		pop	{r3, r4, r5, pc}
 2824              	.LVL230:
 2825              	.L299:
 923:Libraries/STM32F10x_StdPeriph_Driver/src/stm32f10x_usart.c ****   /* The CTS flag is not available for UART4 and UART5 */
 2826              		.loc 1 923 0 discriminator 3
 2827 006a 40F29B31 		movw	r1, #923
 2828 006e 044B     		ldr	r3, .L306+8
 2829 0070 0248     		ldr	r0, .L306+4
 2830 0072 9847     		blx	r3
 2831              	.LVL231:
 2832 0074 E3E7     		b	.L300
 2833              	.L307:
 2834 0076 00BF     		.align	2
 2835              	.L306:
 2836 0078 00380140 		.word	1073821696
 2837 007c 00000000 		.word	.LC0
 2838 0080 00000000 		.word	assert_failed
 2839              		.cfi_endproc
 2840              	.LFE55:
 2842              		.section	.text.USART_GetITStatus,"ax",%progbits
 2843              		.align	1
 2844              		.p2align 2,,3
 2845              		.global	USART_GetITStatus
 2846              		.syntax unified
 2847              		.thumb
 2848              		.thumb_func
 2849              		.fpu softvfp
 2851              	USART_GetITStatus:
 2852              	.LFB56:
 932:Libraries/STM32F10x_StdPeriph_Driver/src/stm32f10x_usart.c **** 
 933:Libraries/STM32F10x_StdPeriph_Driver/src/stm32f10x_usart.c **** /**
 934:Libraries/STM32F10x_StdPeriph_Driver/src/stm32f10x_usart.c ****   * @brief  Checks whether the specified USART interrupt has occurred or not.
 935:Libraries/STM32F10x_StdPeriph_Driver/src/stm32f10x_usart.c ****   * @param  USARTx: Select the USART or the UART peripheral. 
 936:Libraries/STM32F10x_StdPeriph_Driver/src/stm32f10x_usart.c ****   *   This parameter can be one of the following values:
 937:Libraries/STM32F10x_StdPeriph_Driver/src/stm32f10x_usart.c ****   *   USART1, USART2, USART3, UART4 or UART5.
 938:Libraries/STM32F10x_StdPeriph_Driver/src/stm32f10x_usart.c ****   * @param  USART_IT: specifies the USART interrupt source to check.
 939:Libraries/STM32F10x_StdPeriph_Driver/src/stm32f10x_usart.c ****   *   This parameter can be one of the following values:
 940:Libraries/STM32F10x_StdPeriph_Driver/src/stm32f10x_usart.c ****   *     @arg USART_IT_CTS:  CTS change interrupt (not available for UART4 and UART5)
 941:Libraries/STM32F10x_StdPeriph_Driver/src/stm32f10x_usart.c ****   *     @arg USART_IT_LBD:  LIN Break detection interrupt
 942:Libraries/STM32F10x_StdPeriph_Driver/src/stm32f10x_usart.c ****   *     @arg USART_IT_TXE:  Tansmit Data Register empty interrupt
 943:Libraries/STM32F10x_StdPeriph_Driver/src/stm32f10x_usart.c ****   *     @arg USART_IT_TC:   Transmission complete interrupt
 944:Libraries/STM32F10x_StdPeriph_Driver/src/stm32f10x_usart.c ****   *     @arg USART_IT_RXNE: Receive Data register not empty interrupt
 945:Libraries/STM32F10x_StdPeriph_Driver/src/stm32f10x_usart.c ****   *     @arg USART_IT_IDLE: Idle line detection interrupt
 946:Libraries/STM32F10x_StdPeriph_Driver/src/stm32f10x_usart.c ****   *     @arg USART_IT_ORE:  OverRun Error interrupt
 947:Libraries/STM32F10x_StdPeriph_Driver/src/stm32f10x_usart.c ****   *     @arg USART_IT_NE:   Noise Error interrupt
 948:Libraries/STM32F10x_StdPeriph_Driver/src/stm32f10x_usart.c ****   *     @arg USART_IT_FE:   Framing Error interrupt
 949:Libraries/STM32F10x_StdPeriph_Driver/src/stm32f10x_usart.c ****   *     @arg USART_IT_PE:   Parity Error interrupt
 950:Libraries/STM32F10x_StdPeriph_Driver/src/stm32f10x_usart.c ****   * @retval The new state of USART_IT (SET or RESET).
 951:Libraries/STM32F10x_StdPeriph_Driver/src/stm32f10x_usart.c ****   */
 952:Libraries/STM32F10x_StdPeriph_Driver/src/stm32f10x_usart.c **** ITStatus USART_GetITStatus(USART_TypeDef* USARTx, uint16_t USART_IT)
 953:Libraries/STM32F10x_StdPeriph_Driver/src/stm32f10x_usart.c **** {
 2853              		.loc 1 953 0
 2854              		.cfi_startproc
 2855              		@ args = 0, pretend = 0, frame = 0
 2856              		@ frame_needed = 0, uses_anonymous_args = 0
 2857              	.LVL232:
 954:Libraries/STM32F10x_StdPeriph_Driver/src/stm32f10x_usart.c ****   uint32_t bitpos = 0x00, itmask = 0x00, usartreg = 0x00;
 955:Libraries/STM32F10x_StdPeriph_Driver/src/stm32f10x_usart.c ****   ITStatus bitstatus = RESET;
 956:Libraries/STM32F10x_StdPeriph_Driver/src/stm32f10x_usart.c ****   /* Check the parameters */
 957:Libraries/STM32F10x_StdPeriph_Driver/src/stm32f10x_usart.c ****   assert_param(IS_USART_ALL_PERIPH(USARTx));
 2858              		.loc 1 957 0
 2859 0000 394B     		ldr	r3, .L336
 953:Libraries/STM32F10x_StdPeriph_Driver/src/stm32f10x_usart.c ****   uint32_t bitpos = 0x00, itmask = 0x00, usartreg = 0x00;
 2860              		.loc 1 953 0
 2861 0002 70B5     		push	{r4, r5, r6, lr}
 2862              		.cfi_def_cfa_offset 16
 2863              		.cfi_offset 4, -16
 2864              		.cfi_offset 5, -12
 2865              		.cfi_offset 6, -8
 2866              		.cfi_offset 14, -4
 2867              		.loc 1 957 0
 2868 0004 9842     		cmp	r0, r3
 953:Libraries/STM32F10x_StdPeriph_Driver/src/stm32f10x_usart.c ****   uint32_t bitpos = 0x00, itmask = 0x00, usartreg = 0x00;
 2869              		.loc 1 953 0
 2870 0006 0546     		mov	r5, r0
 2871 0008 0E46     		mov	r6, r1
 2872              		.loc 1 957 0
 2873 000a 14D0     		beq	.L309
 2874              		.loc 1 957 0 is_stmt 0 discriminator 1
 2875 000c A3F57443 		sub	r3, r3, #62464
 2876 0010 9842     		cmp	r0, r3
 2877 0012 10D0     		beq	.L309
 2878              		.loc 1 957 0 discriminator 2
 2879 0014 03F58063 		add	r3, r3, #1024
 2880 0018 9842     		cmp	r0, r3
 2881 001a 0CD0     		beq	.L309
 2882              		.loc 1 957 0 discriminator 3
 2883 001c 03F58063 		add	r3, r3, #1024
 2884 0020 9842     		cmp	r0, r3
 2885 0022 08D0     		beq	.L309
 2886              		.loc 1 957 0 discriminator 4
 2887 0024 03F58063 		add	r3, r3, #1024
 2888 0028 9842     		cmp	r0, r3
 2889 002a 04D0     		beq	.L309
 2890              		.loc 1 957 0 discriminator 5
 2891 002c 40F2BD31 		movw	r1, #957
 2892              	.LVL233:
 2893 0030 2E48     		ldr	r0, .L336+4
 2894              	.LVL234:
 2895 0032 2F4B     		ldr	r3, .L336+8
 2896 0034 9847     		blx	r3
 2897              	.LVL235:
 2898              	.L309:
 2899 0036 0123     		movs	r3, #1
 2900 0038 06F01F00 		and	r0, r6, #31
 958:Libraries/STM32F10x_StdPeriph_Driver/src/stm32f10x_usart.c ****   assert_param(IS_USART_GET_IT(USART_IT));
 2901              		.loc 1 958 0 is_stmt 1
 2902 003c 282E     		cmp	r6, #40
 2903 003e 03FA00F4 		lsl	r4, r3, r0
 2904 0042 30D0     		beq	.L310
 2905              		.loc 1 958 0 is_stmt 0 discriminator 1
 2906 0044 40F22773 		movw	r3, #1831
 2907 0048 9E42     		cmp	r6, r3
 2908 004a 2CD0     		beq	.L310
 2909              		.loc 1 958 0 discriminator 2
 2910 004c 40F22663 		movw	r3, #1574
 2911 0050 9E42     		cmp	r6, r3
 2912 0052 28D0     		beq	.L310
 2913              		.loc 1 958 0 discriminator 3
 2914 0054 40F22553 		movw	r3, #1317
 2915 0058 9E42     		cmp	r6, r3
 2916 005a 24D0     		beq	.L310
 2917              		.loc 1 958 0 discriminator 4
 2918 005c 40F22443 		movw	r3, #1060
 2919 0060 9E42     		cmp	r6, r3
 2920 0062 20D0     		beq	.L310
 2921              		.loc 1 958 0 discriminator 5
 2922 0064 40F64603 		movw	r3, #2118
 2923 0068 9E42     		cmp	r6, r3
 2924 006a 16D0     		beq	.L311
 2925              		.loc 1 958 0 discriminator 6
 2926 006c 40F66A13 		movw	r3, #2410
 2927 0070 9E42     		cmp	r6, r3
 2928 0072 26D0     		beq	.L312
 2929              		.loc 1 958 0 discriminator 8
 2930 0074 B6F5187F 		cmp	r6, #608
 2931 0078 32D0     		beq	.L313
 2932              		.loc 1 958 0 discriminator 9
 2933 007a 26F40073 		bic	r3, r6, #512
 2934 007e B3F5B07F 		cmp	r3, #352
 2935 0082 04D0     		beq	.L314
 2936              		.loc 1 958 0 discriminator 10
 2937 0084 40F2BE31 		movw	r1, #958
 2938 0088 1848     		ldr	r0, .L336+4
 2939 008a 194B     		ldr	r3, .L336+8
 2940 008c 9847     		blx	r3
 2941              	.LVL236:
 2942              	.L314:
 959:Libraries/STM32F10x_StdPeriph_Driver/src/stm32f10x_usart.c ****   /* The CTS interrupt is not available for UART4 and UART5 */ 
 960:Libraries/STM32F10x_StdPeriph_Driver/src/stm32f10x_usart.c ****   if (USART_IT == USART_IT_CTS)
 961:Libraries/STM32F10x_StdPeriph_Driver/src/stm32f10x_usart.c ****   {
 962:Libraries/STM32F10x_StdPeriph_Driver/src/stm32f10x_usart.c ****     assert_param(IS_USART_123_PERIPH(USARTx));
 963:Libraries/STM32F10x_StdPeriph_Driver/src/stm32f10x_usart.c ****   }   
 964:Libraries/STM32F10x_StdPeriph_Driver/src/stm32f10x_usart.c ****   
 965:Libraries/STM32F10x_StdPeriph_Driver/src/stm32f10x_usart.c ****   /* Get the USART register index */
 966:Libraries/STM32F10x_StdPeriph_Driver/src/stm32f10x_usart.c ****   usartreg = (((uint8_t)USART_IT) >> 0x05);
 2943              		.loc 1 966 0 is_stmt 1
 2944 008e C6F34213 		ubfx	r3, r6, #5, #3
 2945              	.LVL237:
 967:Libraries/STM32F10x_StdPeriph_Driver/src/stm32f10x_usart.c ****   /* Get the interrupt position */
 968:Libraries/STM32F10x_StdPeriph_Driver/src/stm32f10x_usart.c ****   itmask = USART_IT & IT_Mask;
 969:Libraries/STM32F10x_StdPeriph_Driver/src/stm32f10x_usart.c ****   itmask = (uint32_t)0x01 << itmask;
 970:Libraries/STM32F10x_StdPeriph_Driver/src/stm32f10x_usart.c ****   
 971:Libraries/STM32F10x_StdPeriph_Driver/src/stm32f10x_usart.c ****   if (usartreg == 0x01) /* The IT  is in CR1 register */
 2946              		.loc 1 971 0
 2947 0092 012B     		cmp	r3, #1
 2948 0094 07D0     		beq	.L310
 972:Libraries/STM32F10x_StdPeriph_Driver/src/stm32f10x_usart.c ****   {
 973:Libraries/STM32F10x_StdPeriph_Driver/src/stm32f10x_usart.c ****     itmask &= USARTx->CR1;
 974:Libraries/STM32F10x_StdPeriph_Driver/src/stm32f10x_usart.c ****   }
 975:Libraries/STM32F10x_StdPeriph_Driver/src/stm32f10x_usart.c ****   else if (usartreg == 0x02) /* The IT  is in CR2 register */
 2949              		.loc 1 975 0
 2950 0096 022B     		cmp	r3, #2
 2951 0098 22D1     		bne	.L313
 2952              	.LVL238:
 2953              	.L311:
 976:Libraries/STM32F10x_StdPeriph_Driver/src/stm32f10x_usart.c ****   {
 977:Libraries/STM32F10x_StdPeriph_Driver/src/stm32f10x_usart.c ****     itmask &= USARTx->CR2;
 2954              		.loc 1 977 0
 2955 009a 288A     		ldrh	r0, [r5, #16]
 978:Libraries/STM32F10x_StdPeriph_Driver/src/stm32f10x_usart.c ****   }
 979:Libraries/STM32F10x_StdPeriph_Driver/src/stm32f10x_usart.c ****   else /* The IT  is in CR3 register */
 980:Libraries/STM32F10x_StdPeriph_Driver/src/stm32f10x_usart.c ****   {
 981:Libraries/STM32F10x_StdPeriph_Driver/src/stm32f10x_usart.c ****     itmask &= USARTx->CR3;
 982:Libraries/STM32F10x_StdPeriph_Driver/src/stm32f10x_usart.c ****   }
 983:Libraries/STM32F10x_StdPeriph_Driver/src/stm32f10x_usart.c ****   
 984:Libraries/STM32F10x_StdPeriph_Driver/src/stm32f10x_usart.c ****   bitpos = USART_IT >> 0x08;
 985:Libraries/STM32F10x_StdPeriph_Driver/src/stm32f10x_usart.c ****   bitpos = (uint32_t)0x01 << bitpos;
 986:Libraries/STM32F10x_StdPeriph_Driver/src/stm32f10x_usart.c ****   bitpos &= USARTx->SR;
 2956              		.loc 1 986 0
 2957 009c 2B88     		ldrh	r3, [r5]
 977:Libraries/STM32F10x_StdPeriph_Driver/src/stm32f10x_usart.c ****   }
 2958              		.loc 1 977 0
 2959 009e 2040     		ands	r0, r0, r4
 2960              	.LVL239:
 2961              		.loc 1 986 0
 2962 00a0 9BB2     		uxth	r3, r3
 2963              	.LVL240:
 987:Libraries/STM32F10x_StdPeriph_Driver/src/stm32f10x_usart.c ****   if ((itmask != (uint16_t)RESET)&&(bitpos != (uint16_t)RESET))
 2964              		.loc 1 987 0
 2965 00a2 30B9     		cbnz	r0, .L335
 2966              	.LVL241:
 2967              	.L332:
 988:Libraries/STM32F10x_StdPeriph_Driver/src/stm32f10x_usart.c ****   {
 989:Libraries/STM32F10x_StdPeriph_Driver/src/stm32f10x_usart.c ****     bitstatus = SET;
 990:Libraries/STM32F10x_StdPeriph_Driver/src/stm32f10x_usart.c ****   }
 991:Libraries/STM32F10x_StdPeriph_Driver/src/stm32f10x_usart.c ****   else
 992:Libraries/STM32F10x_StdPeriph_Driver/src/stm32f10x_usart.c ****   {
 993:Libraries/STM32F10x_StdPeriph_Driver/src/stm32f10x_usart.c ****     bitstatus = RESET;
 994:Libraries/STM32F10x_StdPeriph_Driver/src/stm32f10x_usart.c ****   }
 995:Libraries/STM32F10x_StdPeriph_Driver/src/stm32f10x_usart.c ****   
 996:Libraries/STM32F10x_StdPeriph_Driver/src/stm32f10x_usart.c ****   return bitstatus;  
 997:Libraries/STM32F10x_StdPeriph_Driver/src/stm32f10x_usart.c **** }
 2968              		.loc 1 997 0
 2969 00a4 70BD     		pop	{r4, r5, r6, pc}
 2970              	.LVL242:
 2971              	.L310:
 973:Libraries/STM32F10x_StdPeriph_Driver/src/stm32f10x_usart.c ****   }
 2972              		.loc 1 973 0
 2973 00a6 A889     		ldrh	r0, [r5, #12]
 2974 00a8 2040     		ands	r0, r0, r4
 2975              	.LVL243:
 2976              	.L318:
 986:Libraries/STM32F10x_StdPeriph_Driver/src/stm32f10x_usart.c ****   if ((itmask != (uint16_t)RESET)&&(bitpos != (uint16_t)RESET))
 2977              		.loc 1 986 0
 2978 00aa 2B88     		ldrh	r3, [r5]
 2979 00ac 9BB2     		uxth	r3, r3
 2980              	.LVL244:
 987:Libraries/STM32F10x_StdPeriph_Driver/src/stm32f10x_usart.c ****   {
 2981              		.loc 1 987 0
 2982 00ae 0028     		cmp	r0, #0
 2983 00b0 F8D0     		beq	.L332
 2984              	.LVL245:
 2985              	.L335:
 985:Libraries/STM32F10x_StdPeriph_Driver/src/stm32f10x_usart.c ****   bitpos &= USARTx->SR;
 2986              		.loc 1 985 0 discriminator 1
 2987 00b2 0121     		movs	r1, #1
 984:Libraries/STM32F10x_StdPeriph_Driver/src/stm32f10x_usart.c ****   bitpos = (uint32_t)0x01 << bitpos;
 2988              		.loc 1 984 0 discriminator 1
 2989 00b4 360A     		lsrs	r6, r6, #8
 985:Libraries/STM32F10x_StdPeriph_Driver/src/stm32f10x_usart.c ****   bitpos &= USARTx->SR;
 2990              		.loc 1 985 0 discriminator 1
 2991 00b6 B140     		lsls	r1, r1, r6
 987:Libraries/STM32F10x_StdPeriph_Driver/src/stm32f10x_usart.c ****   {
 2992              		.loc 1 987 0 discriminator 1
 2993 00b8 0B42     		tst	r3, r1
 989:Libraries/STM32F10x_StdPeriph_Driver/src/stm32f10x_usart.c ****   }
 2994              		.loc 1 989 0 discriminator 1
 2995 00ba 14BF     		ite	ne
 2996 00bc 0120     		movne	r0, #1
 2997              	.LVL246:
 2998 00be 0020     		moveq	r0, #0
 2999              		.loc 1 997 0 discriminator 1
 3000 00c0 70BD     		pop	{r4, r5, r6, pc}
 3001              	.LVL247:
 3002              	.L312:
 962:Libraries/STM32F10x_StdPeriph_Driver/src/stm32f10x_usart.c ****   }   
 3003              		.loc 1 962 0
 3004 00c2 094B     		ldr	r3, .L336
 3005 00c4 9D42     		cmp	r5, r3
 3006 00c6 0BD0     		beq	.L313
 962:Libraries/STM32F10x_StdPeriph_Driver/src/stm32f10x_usart.c ****   }   
 3007              		.loc 1 962 0 is_stmt 0 discriminator 1
 3008 00c8 0A4B     		ldr	r3, .L336+12
 3009 00ca 9D42     		cmp	r5, r3
 3010 00cc 08D0     		beq	.L313
 962:Libraries/STM32F10x_StdPeriph_Driver/src/stm32f10x_usart.c ****   }   
 3011              		.loc 1 962 0 discriminator 2
 3012 00ce 03F58063 		add	r3, r3, #1024
 3013 00d2 9D42     		cmp	r5, r3
 3014 00d4 04D0     		beq	.L313
 962:Libraries/STM32F10x_StdPeriph_Driver/src/stm32f10x_usart.c ****   }   
 3015              		.loc 1 962 0 discriminator 3
 3016 00d6 40F2C231 		movw	r1, #962
 3017 00da 0448     		ldr	r0, .L336+4
 3018 00dc 044B     		ldr	r3, .L336+8
 3019 00de 9847     		blx	r3
 3020              	.LVL248:
 3021              	.L313:
 981:Libraries/STM32F10x_StdPeriph_Driver/src/stm32f10x_usart.c ****   }
 3022              		.loc 1 981 0 is_stmt 1
 3023 00e0 A88A     		ldrh	r0, [r5, #20]
 3024 00e2 2040     		ands	r0, r0, r4
 3025              	.LVL249:
 3026 00e4 E1E7     		b	.L318
 3027              	.L337:
 3028 00e6 00BF     		.align	2
 3029              	.L336:
 3030 00e8 00380140 		.word	1073821696
 3031 00ec 00000000 		.word	.LC0
 3032 00f0 00000000 		.word	assert_failed
 3033 00f4 00440040 		.word	1073759232
 3034              		.cfi_endproc
 3035              	.LFE56:
 3037              		.section	.text.USART_ClearITPendingBit,"ax",%progbits
 3038              		.align	1
 3039              		.p2align 2,,3
 3040              		.global	USART_ClearITPendingBit
 3041              		.syntax unified
 3042              		.thumb
 3043              		.thumb_func
 3044              		.fpu softvfp
 3046              	USART_ClearITPendingBit:
 3047              	.LFB57:
 998:Libraries/STM32F10x_StdPeriph_Driver/src/stm32f10x_usart.c **** 
 999:Libraries/STM32F10x_StdPeriph_Driver/src/stm32f10x_usart.c **** /**
1000:Libraries/STM32F10x_StdPeriph_Driver/src/stm32f10x_usart.c ****   * @brief  Clears the USARTxs interrupt pending bits.
1001:Libraries/STM32F10x_StdPeriph_Driver/src/stm32f10x_usart.c ****   * @param  USARTx: Select the USART or the UART peripheral. 
1002:Libraries/STM32F10x_StdPeriph_Driver/src/stm32f10x_usart.c ****   *   This parameter can be one of the following values:
1003:Libraries/STM32F10x_StdPeriph_Driver/src/stm32f10x_usart.c ****   *   USART1, USART2, USART3, UART4 or UART5.
1004:Libraries/STM32F10x_StdPeriph_Driver/src/stm32f10x_usart.c ****   * @param  USART_IT: specifies the interrupt pending bit to clear.
1005:Libraries/STM32F10x_StdPeriph_Driver/src/stm32f10x_usart.c ****   *   This parameter can be one of the following values:
1006:Libraries/STM32F10x_StdPeriph_Driver/src/stm32f10x_usart.c ****   *     @arg USART_IT_CTS:  CTS change interrupt (not available for UART4 and UART5)
1007:Libraries/STM32F10x_StdPeriph_Driver/src/stm32f10x_usart.c ****   *     @arg USART_IT_LBD:  LIN Break detection interrupt
1008:Libraries/STM32F10x_StdPeriph_Driver/src/stm32f10x_usart.c ****   *     @arg USART_IT_TC:   Transmission complete interrupt. 
1009:Libraries/STM32F10x_StdPeriph_Driver/src/stm32f10x_usart.c ****   *     @arg USART_IT_RXNE: Receive Data register not empty interrupt.
1010:Libraries/STM32F10x_StdPeriph_Driver/src/stm32f10x_usart.c ****   *   
1011:Libraries/STM32F10x_StdPeriph_Driver/src/stm32f10x_usart.c ****   * @note
1012:Libraries/STM32F10x_StdPeriph_Driver/src/stm32f10x_usart.c ****   *   - PE (Parity error), FE (Framing error), NE (Noise error), ORE (OverRun 
1013:Libraries/STM32F10x_StdPeriph_Driver/src/stm32f10x_usart.c ****   *     error) and IDLE (Idle line detected) pending bits are cleared by 
1014:Libraries/STM32F10x_StdPeriph_Driver/src/stm32f10x_usart.c ****   *     software sequence: a read operation to USART_SR register 
1015:Libraries/STM32F10x_StdPeriph_Driver/src/stm32f10x_usart.c ****   *     (USART_GetITStatus()) followed by a read operation to USART_DR register 
1016:Libraries/STM32F10x_StdPeriph_Driver/src/stm32f10x_usart.c ****   *     (USART_ReceiveData()).
1017:Libraries/STM32F10x_StdPeriph_Driver/src/stm32f10x_usart.c ****   *   - RXNE pending bit can be also cleared by a read to the USART_DR register 
1018:Libraries/STM32F10x_StdPeriph_Driver/src/stm32f10x_usart.c ****   *     (USART_ReceiveData()).
1019:Libraries/STM32F10x_StdPeriph_Driver/src/stm32f10x_usart.c ****   *   - TC pending bit can be also cleared by software sequence: a read 
1020:Libraries/STM32F10x_StdPeriph_Driver/src/stm32f10x_usart.c ****   *     operation to USART_SR register (USART_GetITStatus()) followed by a write 
1021:Libraries/STM32F10x_StdPeriph_Driver/src/stm32f10x_usart.c ****   *     operation to USART_DR register (USART_SendData()).
1022:Libraries/STM32F10x_StdPeriph_Driver/src/stm32f10x_usart.c ****   *   - TXE pending bit is cleared only by a write to the USART_DR register 
1023:Libraries/STM32F10x_StdPeriph_Driver/src/stm32f10x_usart.c ****   *     (USART_SendData()).
1024:Libraries/STM32F10x_StdPeriph_Driver/src/stm32f10x_usart.c ****   * @retval None
1025:Libraries/STM32F10x_StdPeriph_Driver/src/stm32f10x_usart.c ****   */
1026:Libraries/STM32F10x_StdPeriph_Driver/src/stm32f10x_usart.c **** void USART_ClearITPendingBit(USART_TypeDef* USARTx, uint16_t USART_IT)
1027:Libraries/STM32F10x_StdPeriph_Driver/src/stm32f10x_usart.c **** {
 3048              		.loc 1 1027 0
 3049              		.cfi_startproc
 3050              		@ args = 0, pretend = 0, frame = 0
 3051              		@ frame_needed = 0, uses_anonymous_args = 0
 3052              	.LVL250:
 3053 0000 38B5     		push	{r3, r4, r5, lr}
 3054              		.cfi_def_cfa_offset 16
 3055              		.cfi_offset 3, -16
 3056              		.cfi_offset 4, -12
 3057              		.cfi_offset 5, -8
 3058              		.cfi_offset 14, -4
1028:Libraries/STM32F10x_StdPeriph_Driver/src/stm32f10x_usart.c ****   uint16_t bitpos = 0x00, itmask = 0x00;
1029:Libraries/STM32F10x_StdPeriph_Driver/src/stm32f10x_usart.c ****   /* Check the parameters */
1030:Libraries/STM32F10x_StdPeriph_Driver/src/stm32f10x_usart.c ****   assert_param(IS_USART_ALL_PERIPH(USARTx));
 3059              		.loc 1 1030 0
 3060 0002 234B     		ldr	r3, .L347
1027:Libraries/STM32F10x_StdPeriph_Driver/src/stm32f10x_usart.c ****   uint16_t bitpos = 0x00, itmask = 0x00;
 3061              		.loc 1 1027 0
 3062 0004 0546     		mov	r5, r0
 3063              		.loc 1 1030 0
 3064 0006 9842     		cmp	r0, r3
1027:Libraries/STM32F10x_StdPeriph_Driver/src/stm32f10x_usart.c ****   uint16_t bitpos = 0x00, itmask = 0x00;
 3065              		.loc 1 1027 0
 3066 0008 0C46     		mov	r4, r1
 3067              		.loc 1 1030 0
 3068 000a 14D0     		beq	.L339
 3069              		.loc 1 1030 0 is_stmt 0 discriminator 1
 3070 000c A3F57443 		sub	r3, r3, #62464
 3071 0010 9842     		cmp	r0, r3
 3072 0012 10D0     		beq	.L339
 3073              		.loc 1 1030 0 discriminator 2
 3074 0014 03F58063 		add	r3, r3, #1024
 3075 0018 9842     		cmp	r0, r3
 3076 001a 0CD0     		beq	.L339
 3077              		.loc 1 1030 0 discriminator 3
 3078 001c 03F58063 		add	r3, r3, #1024
 3079 0020 9842     		cmp	r0, r3
 3080 0022 08D0     		beq	.L339
 3081              		.loc 1 1030 0 discriminator 4
 3082 0024 03F58063 		add	r3, r3, #1024
 3083 0028 9842     		cmp	r0, r3
 3084 002a 04D0     		beq	.L339
 3085              		.loc 1 1030 0 discriminator 5
 3086 002c 40F20641 		movw	r1, #1030
 3087              	.LVL251:
 3088 0030 1848     		ldr	r0, .L347+4
 3089              	.LVL252:
 3090 0032 194B     		ldr	r3, .L347+8
 3091 0034 9847     		blx	r3
 3092              	.LVL253:
 3093              	.L339:
1031:Libraries/STM32F10x_StdPeriph_Driver/src/stm32f10x_usart.c ****   assert_param(IS_USART_CLEAR_IT(USART_IT));
 3094              		.loc 1 1031 0 is_stmt 1
 3095 0036 40F22663 		movw	r3, #1574
 3096 003a 9C42     		cmp	r4, r3
 3097 003c 1AD0     		beq	.L343
 3098              		.loc 1 1031 0 is_stmt 0 discriminator 1
 3099 003e 40F22553 		movw	r3, #1317
 3100 0042 9C42     		cmp	r4, r3
 3101 0044 16D0     		beq	.L343
 3102              		.loc 1 1031 0 discriminator 2
 3103 0046 40F64603 		movw	r3, #2118
 3104 004a 9C42     		cmp	r4, r3
 3105 004c 12D0     		beq	.L343
 3106              		.loc 1 1031 0 discriminator 3
 3107 004e 40F66A13 		movw	r3, #2410
 3108 0052 9C42     		cmp	r4, r3
 3109 0054 15D1     		bne	.L346
1032:Libraries/STM32F10x_StdPeriph_Driver/src/stm32f10x_usart.c ****   /* The CTS interrupt is not available for UART4 and UART5 */
1033:Libraries/STM32F10x_StdPeriph_Driver/src/stm32f10x_usart.c ****   if (USART_IT == USART_IT_CTS)
1034:Libraries/STM32F10x_StdPeriph_Driver/src/stm32f10x_usart.c ****   {
1035:Libraries/STM32F10x_StdPeriph_Driver/src/stm32f10x_usart.c ****     assert_param(IS_USART_123_PERIPH(USARTx));
 3110              		.loc 1 1035 0 is_stmt 1
 3111 0056 0E4B     		ldr	r3, .L347
 3112 0058 9D42     		cmp	r5, r3
 3113 005a 0BD0     		beq	.L343
 3114              		.loc 1 1035 0 is_stmt 0 discriminator 1
 3115 005c 0F4B     		ldr	r3, .L347+12
 3116 005e 9D42     		cmp	r5, r3
 3117 0060 08D0     		beq	.L343
 3118              		.loc 1 1035 0 discriminator 2
 3119 0062 03F58063 		add	r3, r3, #1024
 3120 0066 9D42     		cmp	r5, r3
 3121 0068 04D0     		beq	.L343
 3122              		.loc 1 1035 0 discriminator 3
 3123 006a 40F20B41 		movw	r1, #1035
 3124 006e 0948     		ldr	r0, .L347+4
 3125 0070 094B     		ldr	r3, .L347+8
 3126 0072 9847     		blx	r3
 3127              	.LVL254:
 3128              	.L343:
1036:Libraries/STM32F10x_StdPeriph_Driver/src/stm32f10x_usart.c ****   }   
1037:Libraries/STM32F10x_StdPeriph_Driver/src/stm32f10x_usart.c ****   
1038:Libraries/STM32F10x_StdPeriph_Driver/src/stm32f10x_usart.c ****   bitpos = USART_IT >> 0x08;
1039:Libraries/STM32F10x_StdPeriph_Driver/src/stm32f10x_usart.c ****   itmask = ((uint16_t)0x01 << (uint16_t)bitpos);
 3129              		.loc 1 1039 0 is_stmt 1
 3130 0074 0123     		movs	r3, #1
 3131 0076 240A     		lsrs	r4, r4, #8
 3132              	.LVL255:
 3133 0078 A340     		lsls	r3, r3, r4
1040:Libraries/STM32F10x_StdPeriph_Driver/src/stm32f10x_usart.c ****   USARTx->SR = (uint16_t)~itmask;
 3134              		.loc 1 1040 0
 3135 007a DB43     		mvns	r3, r3
 3136 007c 9BB2     		uxth	r3, r3
 3137 007e 2B80     		strh	r3, [r5]	@ movhi
1041:Libraries/STM32F10x_StdPeriph_Driver/src/stm32f10x_usart.c **** }
 3138              		.loc 1 1041 0
 3139 0080 38BD     		pop	{r3, r4, r5, pc}
 3140              	.LVL256:
 3141              	.L346:
1031:Libraries/STM32F10x_StdPeriph_Driver/src/stm32f10x_usart.c ****   /* The CTS interrupt is not available for UART4 and UART5 */
 3142              		.loc 1 1031 0 discriminator 4
 3143 0082 40F20741 		movw	r1, #1031
 3144 0086 044B     		ldr	r3, .L347+8
 3145 0088 0248     		ldr	r0, .L347+4
 3146 008a 9847     		blx	r3
 3147              	.LVL257:
 3148 008c F2E7     		b	.L343
 3149              	.L348:
 3150 008e 00BF     		.align	2
 3151              	.L347:
 3152 0090 00380140 		.word	1073821696
 3153 0094 00000000 		.word	.LC0
 3154 0098 00000000 		.word	assert_failed
 3155 009c 00440040 		.word	1073759232
 3156              		.cfi_endproc
 3157              	.LFE57:
 3159              		.section	.rodata.USART_DeInit.str1.4,"aMS",%progbits,1
 3160              		.align	2
 3161              	.LC0:
 3162 0000 4C696272 		.ascii	"Libraries/STM32F10x_StdPeriph_Driver/src/stm32f10x_"
 3162      61726965 
 3162      732F5354 
 3162      4D333246 
 3162      3130785F 
 3163 0033 75736172 		.ascii	"usart.c\000"
 3163      742E6300 
 3164              		.text
 3165              	.Letext0:
 3166              		.file 2 "/home/bot-10/opt/gcc-arm-none-eabi-7-2017-q4-major/arm-none-eabi/include/machine/_default
 3167              		.file 3 "/home/bot-10/opt/gcc-arm-none-eabi-7-2017-q4-major/arm-none-eabi/include/sys/_stdint.h"
 3168              		.file 4 "./Libraries/CMSIS/CM3/CoreSupport/core_cm3.h"
 3169              		.file 5 "./Libraries/CMSIS/CM3/CoreSupport/system_stm32f10x.h"
 3170              		.file 6 "./Libraries/CMSIS/CM3/CoreSupport/stm32f10x.h"
 3171              		.file 7 "./Libraries/STM32F10x_StdPeriph_Driver/inc/stm32f10x_rcc.h"
 3172              		.file 8 "./Libraries/STM32F10x_StdPeriph_Driver/inc/stm32f10x_usart.h"