   1              		.cpu cortex-m3
   2              		.eabi_attribute 20, 1
   3              		.eabi_attribute 21, 1
   4              		.eabi_attribute 23, 3
   5              		.eabi_attribute 24, 1
   6              		.eabi_attribute 25, 1
   7              		.eabi_attribute 26, 1
   8              		.eabi_attribute 30, 2
   9              		.eabi_attribute 34, 1
  10              		.eabi_attribute 18, 4
  11              		.file	"stm32f10x_rcc.c"
  12              		.text
  13              	.Ltext0:
  14              		.cfi_sections	.debug_frame
  15              		.section	.text.RCC_DeInit,"ax",%progbits
  16              		.align	1
  17              		.p2align 2,,3
  18              		.global	RCC_DeInit
  19              		.syntax unified
  20              		.thumb
  21              		.thumb_func
  22              		.fpu softvfp
  24              	RCC_DeInit:
  25              	.LFB29:
  26              		.file 1 "Libraries/STM32F10x_StdPeriph_Driver/src/stm32f10x_rcc.c"
   1:Libraries/STM32F10x_StdPeriph_Driver/src/stm32f10x_rcc.c **** /**
   2:Libraries/STM32F10x_StdPeriph_Driver/src/stm32f10x_rcc.c ****   ******************************************************************************
   3:Libraries/STM32F10x_StdPeriph_Driver/src/stm32f10x_rcc.c ****   * @file    stm32f10x_rcc.c
   4:Libraries/STM32F10x_StdPeriph_Driver/src/stm32f10x_rcc.c ****   * @author  MCD Application Team
   5:Libraries/STM32F10x_StdPeriph_Driver/src/stm32f10x_rcc.c ****   * @version V3.3.0
   6:Libraries/STM32F10x_StdPeriph_Driver/src/stm32f10x_rcc.c ****   * @date    04/16/2010
   7:Libraries/STM32F10x_StdPeriph_Driver/src/stm32f10x_rcc.c ****   * @brief   This file provides all the RCC firmware functions.
   8:Libraries/STM32F10x_StdPeriph_Driver/src/stm32f10x_rcc.c ****   ******************************************************************************
   9:Libraries/STM32F10x_StdPeriph_Driver/src/stm32f10x_rcc.c ****   * @copy
  10:Libraries/STM32F10x_StdPeriph_Driver/src/stm32f10x_rcc.c ****   *
  11:Libraries/STM32F10x_StdPeriph_Driver/src/stm32f10x_rcc.c ****   * THE PRESENT FIRMWARE WHICH IS FOR GUIDANCE ONLY AIMS AT PROVIDING CUSTOMERS
  12:Libraries/STM32F10x_StdPeriph_Driver/src/stm32f10x_rcc.c ****   * WITH CODING INFORMATION REGARDING THEIR PRODUCTS IN ORDER FOR THEM TO SAVE
  13:Libraries/STM32F10x_StdPeriph_Driver/src/stm32f10x_rcc.c ****   * TIME. AS A RESULT, STMICROELECTRONICS SHALL NOT BE HELD LIABLE FOR ANY
  14:Libraries/STM32F10x_StdPeriph_Driver/src/stm32f10x_rcc.c ****   * DIRECT, INDIRECT OR CONSEQUENTIAL DAMAGES WITH RESPECT TO ANY CLAIMS ARISING
  15:Libraries/STM32F10x_StdPeriph_Driver/src/stm32f10x_rcc.c ****   * FROM THE CONTENT OF SUCH FIRMWARE AND/OR THE USE MADE BY CUSTOMERS OF THE
  16:Libraries/STM32F10x_StdPeriph_Driver/src/stm32f10x_rcc.c ****   * CODING INFORMATION CONTAINED HEREIN IN CONNECTION WITH THEIR PRODUCTS.
  17:Libraries/STM32F10x_StdPeriph_Driver/src/stm32f10x_rcc.c ****   *
  18:Libraries/STM32F10x_StdPeriph_Driver/src/stm32f10x_rcc.c ****   * <h2><center>&copy; COPYRIGHT 2010 STMicroelectronics</center></h2>
  19:Libraries/STM32F10x_StdPeriph_Driver/src/stm32f10x_rcc.c ****   */ 
  20:Libraries/STM32F10x_StdPeriph_Driver/src/stm32f10x_rcc.c **** 
  21:Libraries/STM32F10x_StdPeriph_Driver/src/stm32f10x_rcc.c **** /* Includes ------------------------------------------------------------------*/
  22:Libraries/STM32F10x_StdPeriph_Driver/src/stm32f10x_rcc.c **** #include "stm32f10x_rcc.h"
  23:Libraries/STM32F10x_StdPeriph_Driver/src/stm32f10x_rcc.c **** 
  24:Libraries/STM32F10x_StdPeriph_Driver/src/stm32f10x_rcc.c **** /** @addtogroup STM32F10x_StdPeriph_Driver
  25:Libraries/STM32F10x_StdPeriph_Driver/src/stm32f10x_rcc.c ****   * @{
  26:Libraries/STM32F10x_StdPeriph_Driver/src/stm32f10x_rcc.c ****   */
  27:Libraries/STM32F10x_StdPeriph_Driver/src/stm32f10x_rcc.c **** 
  28:Libraries/STM32F10x_StdPeriph_Driver/src/stm32f10x_rcc.c **** /** @defgroup RCC 
  29:Libraries/STM32F10x_StdPeriph_Driver/src/stm32f10x_rcc.c ****   * @brief RCC driver modules
  30:Libraries/STM32F10x_StdPeriph_Driver/src/stm32f10x_rcc.c ****   * @{
  31:Libraries/STM32F10x_StdPeriph_Driver/src/stm32f10x_rcc.c ****   */ 
  32:Libraries/STM32F10x_StdPeriph_Driver/src/stm32f10x_rcc.c **** 
  33:Libraries/STM32F10x_StdPeriph_Driver/src/stm32f10x_rcc.c **** /** @defgroup RCC_Private_TypesDefinitions
  34:Libraries/STM32F10x_StdPeriph_Driver/src/stm32f10x_rcc.c ****   * @{
  35:Libraries/STM32F10x_StdPeriph_Driver/src/stm32f10x_rcc.c ****   */
  36:Libraries/STM32F10x_StdPeriph_Driver/src/stm32f10x_rcc.c **** 
  37:Libraries/STM32F10x_StdPeriph_Driver/src/stm32f10x_rcc.c **** /**
  38:Libraries/STM32F10x_StdPeriph_Driver/src/stm32f10x_rcc.c ****   * @}
  39:Libraries/STM32F10x_StdPeriph_Driver/src/stm32f10x_rcc.c ****   */
  40:Libraries/STM32F10x_StdPeriph_Driver/src/stm32f10x_rcc.c **** 
  41:Libraries/STM32F10x_StdPeriph_Driver/src/stm32f10x_rcc.c **** /** @defgroup RCC_Private_Defines
  42:Libraries/STM32F10x_StdPeriph_Driver/src/stm32f10x_rcc.c ****   * @{
  43:Libraries/STM32F10x_StdPeriph_Driver/src/stm32f10x_rcc.c ****   */
  44:Libraries/STM32F10x_StdPeriph_Driver/src/stm32f10x_rcc.c **** 
  45:Libraries/STM32F10x_StdPeriph_Driver/src/stm32f10x_rcc.c **** /* ------------ RCC registers bit address in the alias region ----------- */
  46:Libraries/STM32F10x_StdPeriph_Driver/src/stm32f10x_rcc.c **** #define RCC_OFFSET                (RCC_BASE - PERIPH_BASE)
  47:Libraries/STM32F10x_StdPeriph_Driver/src/stm32f10x_rcc.c **** 
  48:Libraries/STM32F10x_StdPeriph_Driver/src/stm32f10x_rcc.c **** /* --- CR Register ---*/
  49:Libraries/STM32F10x_StdPeriph_Driver/src/stm32f10x_rcc.c **** 
  50:Libraries/STM32F10x_StdPeriph_Driver/src/stm32f10x_rcc.c **** /* Alias word address of HSION bit */
  51:Libraries/STM32F10x_StdPeriph_Driver/src/stm32f10x_rcc.c **** #define CR_OFFSET                 (RCC_OFFSET + 0x00)
  52:Libraries/STM32F10x_StdPeriph_Driver/src/stm32f10x_rcc.c **** #define HSION_BitNumber           0x00
  53:Libraries/STM32F10x_StdPeriph_Driver/src/stm32f10x_rcc.c **** #define CR_HSION_BB               (PERIPH_BB_BASE + (CR_OFFSET * 32) + (HSION_BitNumber * 4))
  54:Libraries/STM32F10x_StdPeriph_Driver/src/stm32f10x_rcc.c **** 
  55:Libraries/STM32F10x_StdPeriph_Driver/src/stm32f10x_rcc.c **** /* Alias word address of PLLON bit */
  56:Libraries/STM32F10x_StdPeriph_Driver/src/stm32f10x_rcc.c **** #define PLLON_BitNumber           0x18
  57:Libraries/STM32F10x_StdPeriph_Driver/src/stm32f10x_rcc.c **** #define CR_PLLON_BB               (PERIPH_BB_BASE + (CR_OFFSET * 32) + (PLLON_BitNumber * 4))
  58:Libraries/STM32F10x_StdPeriph_Driver/src/stm32f10x_rcc.c **** 
  59:Libraries/STM32F10x_StdPeriph_Driver/src/stm32f10x_rcc.c **** #ifdef STM32F10X_CL
  60:Libraries/STM32F10x_StdPeriph_Driver/src/stm32f10x_rcc.c ****  /* Alias word address of PLL2ON bit */
  61:Libraries/STM32F10x_StdPeriph_Driver/src/stm32f10x_rcc.c ****  #define PLL2ON_BitNumber          0x1A
  62:Libraries/STM32F10x_StdPeriph_Driver/src/stm32f10x_rcc.c ****  #define CR_PLL2ON_BB              (PERIPH_BB_BASE + (CR_OFFSET * 32) + (PLL2ON_BitNumber * 4))
  63:Libraries/STM32F10x_StdPeriph_Driver/src/stm32f10x_rcc.c **** 
  64:Libraries/STM32F10x_StdPeriph_Driver/src/stm32f10x_rcc.c ****  /* Alias word address of PLL3ON bit */
  65:Libraries/STM32F10x_StdPeriph_Driver/src/stm32f10x_rcc.c ****  #define PLL3ON_BitNumber          0x1C
  66:Libraries/STM32F10x_StdPeriph_Driver/src/stm32f10x_rcc.c ****  #define CR_PLL3ON_BB              (PERIPH_BB_BASE + (CR_OFFSET * 32) + (PLL3ON_BitNumber * 4))
  67:Libraries/STM32F10x_StdPeriph_Driver/src/stm32f10x_rcc.c **** #endif /* STM32F10X_CL */ 
  68:Libraries/STM32F10x_StdPeriph_Driver/src/stm32f10x_rcc.c **** 
  69:Libraries/STM32F10x_StdPeriph_Driver/src/stm32f10x_rcc.c **** /* Alias word address of CSSON bit */
  70:Libraries/STM32F10x_StdPeriph_Driver/src/stm32f10x_rcc.c **** #define CSSON_BitNumber           0x13
  71:Libraries/STM32F10x_StdPeriph_Driver/src/stm32f10x_rcc.c **** #define CR_CSSON_BB               (PERIPH_BB_BASE + (CR_OFFSET * 32) + (CSSON_BitNumber * 4))
  72:Libraries/STM32F10x_StdPeriph_Driver/src/stm32f10x_rcc.c **** 
  73:Libraries/STM32F10x_StdPeriph_Driver/src/stm32f10x_rcc.c **** /* --- CFGR Register ---*/
  74:Libraries/STM32F10x_StdPeriph_Driver/src/stm32f10x_rcc.c **** 
  75:Libraries/STM32F10x_StdPeriph_Driver/src/stm32f10x_rcc.c **** /* Alias word address of USBPRE bit */
  76:Libraries/STM32F10x_StdPeriph_Driver/src/stm32f10x_rcc.c **** #define CFGR_OFFSET               (RCC_OFFSET + 0x04)
  77:Libraries/STM32F10x_StdPeriph_Driver/src/stm32f10x_rcc.c **** 
  78:Libraries/STM32F10x_StdPeriph_Driver/src/stm32f10x_rcc.c **** #ifndef STM32F10X_CL
  79:Libraries/STM32F10x_StdPeriph_Driver/src/stm32f10x_rcc.c ****  #define USBPRE_BitNumber          0x16
  80:Libraries/STM32F10x_StdPeriph_Driver/src/stm32f10x_rcc.c ****  #define CFGR_USBPRE_BB            (PERIPH_BB_BASE + (CFGR_OFFSET * 32) + (USBPRE_BitNumber * 4))
  81:Libraries/STM32F10x_StdPeriph_Driver/src/stm32f10x_rcc.c **** #else
  82:Libraries/STM32F10x_StdPeriph_Driver/src/stm32f10x_rcc.c ****  #define OTGFSPRE_BitNumber        0x16
  83:Libraries/STM32F10x_StdPeriph_Driver/src/stm32f10x_rcc.c ****  #define CFGR_OTGFSPRE_BB          (PERIPH_BB_BASE + (CFGR_OFFSET * 32) + (OTGFSPRE_BitNumber * 4))
  84:Libraries/STM32F10x_StdPeriph_Driver/src/stm32f10x_rcc.c **** #endif /* STM32F10X_CL */ 
  85:Libraries/STM32F10x_StdPeriph_Driver/src/stm32f10x_rcc.c **** 
  86:Libraries/STM32F10x_StdPeriph_Driver/src/stm32f10x_rcc.c **** /* --- BDCR Register ---*/
  87:Libraries/STM32F10x_StdPeriph_Driver/src/stm32f10x_rcc.c **** 
  88:Libraries/STM32F10x_StdPeriph_Driver/src/stm32f10x_rcc.c **** /* Alias word address of RTCEN bit */
  89:Libraries/STM32F10x_StdPeriph_Driver/src/stm32f10x_rcc.c **** #define BDCR_OFFSET               (RCC_OFFSET + 0x20)
  90:Libraries/STM32F10x_StdPeriph_Driver/src/stm32f10x_rcc.c **** #define RTCEN_BitNumber           0x0F
  91:Libraries/STM32F10x_StdPeriph_Driver/src/stm32f10x_rcc.c **** #define BDCR_RTCEN_BB             (PERIPH_BB_BASE + (BDCR_OFFSET * 32) + (RTCEN_BitNumber * 4))
  92:Libraries/STM32F10x_StdPeriph_Driver/src/stm32f10x_rcc.c **** 
  93:Libraries/STM32F10x_StdPeriph_Driver/src/stm32f10x_rcc.c **** /* Alias word address of BDRST bit */
  94:Libraries/STM32F10x_StdPeriph_Driver/src/stm32f10x_rcc.c **** #define BDRST_BitNumber           0x10
  95:Libraries/STM32F10x_StdPeriph_Driver/src/stm32f10x_rcc.c **** #define BDCR_BDRST_BB             (PERIPH_BB_BASE + (BDCR_OFFSET * 32) + (BDRST_BitNumber * 4))
  96:Libraries/STM32F10x_StdPeriph_Driver/src/stm32f10x_rcc.c **** 
  97:Libraries/STM32F10x_StdPeriph_Driver/src/stm32f10x_rcc.c **** /* --- CSR Register ---*/
  98:Libraries/STM32F10x_StdPeriph_Driver/src/stm32f10x_rcc.c **** 
  99:Libraries/STM32F10x_StdPeriph_Driver/src/stm32f10x_rcc.c **** /* Alias word address of LSION bit */
 100:Libraries/STM32F10x_StdPeriph_Driver/src/stm32f10x_rcc.c **** #define CSR_OFFSET                (RCC_OFFSET + 0x24)
 101:Libraries/STM32F10x_StdPeriph_Driver/src/stm32f10x_rcc.c **** #define LSION_BitNumber           0x00
 102:Libraries/STM32F10x_StdPeriph_Driver/src/stm32f10x_rcc.c **** #define CSR_LSION_BB              (PERIPH_BB_BASE + (CSR_OFFSET * 32) + (LSION_BitNumber * 4))
 103:Libraries/STM32F10x_StdPeriph_Driver/src/stm32f10x_rcc.c **** 
 104:Libraries/STM32F10x_StdPeriph_Driver/src/stm32f10x_rcc.c **** #ifdef STM32F10X_CL
 105:Libraries/STM32F10x_StdPeriph_Driver/src/stm32f10x_rcc.c **** /* --- CFGR2 Register ---*/
 106:Libraries/STM32F10x_StdPeriph_Driver/src/stm32f10x_rcc.c **** 
 107:Libraries/STM32F10x_StdPeriph_Driver/src/stm32f10x_rcc.c ****  /* Alias word address of I2S2SRC bit */
 108:Libraries/STM32F10x_StdPeriph_Driver/src/stm32f10x_rcc.c ****  #define CFGR2_OFFSET              (RCC_OFFSET + 0x2C)
 109:Libraries/STM32F10x_StdPeriph_Driver/src/stm32f10x_rcc.c ****  #define I2S2SRC_BitNumber         0x11
 110:Libraries/STM32F10x_StdPeriph_Driver/src/stm32f10x_rcc.c ****  #define CFGR2_I2S2SRC_BB          (PERIPH_BB_BASE + (CFGR2_OFFSET * 32) + (I2S2SRC_BitNumber * 4))
 111:Libraries/STM32F10x_StdPeriph_Driver/src/stm32f10x_rcc.c **** 
 112:Libraries/STM32F10x_StdPeriph_Driver/src/stm32f10x_rcc.c ****  /* Alias word address of I2S3SRC bit */
 113:Libraries/STM32F10x_StdPeriph_Driver/src/stm32f10x_rcc.c ****  #define I2S3SRC_BitNumber         0x12
 114:Libraries/STM32F10x_StdPeriph_Driver/src/stm32f10x_rcc.c ****  #define CFGR2_I2S3SRC_BB          (PERIPH_BB_BASE + (CFGR2_OFFSET * 32) + (I2S3SRC_BitNumber * 4))
 115:Libraries/STM32F10x_StdPeriph_Driver/src/stm32f10x_rcc.c **** #endif /* STM32F10X_CL */
 116:Libraries/STM32F10x_StdPeriph_Driver/src/stm32f10x_rcc.c **** 
 117:Libraries/STM32F10x_StdPeriph_Driver/src/stm32f10x_rcc.c **** /* ---------------------- RCC registers bit mask ------------------------ */
 118:Libraries/STM32F10x_StdPeriph_Driver/src/stm32f10x_rcc.c **** 
 119:Libraries/STM32F10x_StdPeriph_Driver/src/stm32f10x_rcc.c **** /* CR register bit mask */
 120:Libraries/STM32F10x_StdPeriph_Driver/src/stm32f10x_rcc.c **** #define CR_HSEBYP_Reset           ((uint32_t)0xFFFBFFFF)
 121:Libraries/STM32F10x_StdPeriph_Driver/src/stm32f10x_rcc.c **** #define CR_HSEBYP_Set             ((uint32_t)0x00040000)
 122:Libraries/STM32F10x_StdPeriph_Driver/src/stm32f10x_rcc.c **** #define CR_HSEON_Reset            ((uint32_t)0xFFFEFFFF)
 123:Libraries/STM32F10x_StdPeriph_Driver/src/stm32f10x_rcc.c **** #define CR_HSEON_Set              ((uint32_t)0x00010000)
 124:Libraries/STM32F10x_StdPeriph_Driver/src/stm32f10x_rcc.c **** #define CR_HSITRIM_Mask           ((uint32_t)0xFFFFFF07)
 125:Libraries/STM32F10x_StdPeriph_Driver/src/stm32f10x_rcc.c **** 
 126:Libraries/STM32F10x_StdPeriph_Driver/src/stm32f10x_rcc.c **** /* CFGR register bit mask */
 127:Libraries/STM32F10x_StdPeriph_Driver/src/stm32f10x_rcc.c **** #if defined (STM32F10X_LD_VL) || defined (STM32F10X_MD_VL) || defined (STM32F10X_CL) 
 128:Libraries/STM32F10x_StdPeriph_Driver/src/stm32f10x_rcc.c ****  #define CFGR_PLL_Mask            ((uint32_t)0xFFC2FFFF)
 129:Libraries/STM32F10x_StdPeriph_Driver/src/stm32f10x_rcc.c **** #else
 130:Libraries/STM32F10x_StdPeriph_Driver/src/stm32f10x_rcc.c ****  #define CFGR_PLL_Mask            ((uint32_t)0xFFC0FFFF)
 131:Libraries/STM32F10x_StdPeriph_Driver/src/stm32f10x_rcc.c **** #endif /* STM32F10X_CL */ 
 132:Libraries/STM32F10x_StdPeriph_Driver/src/stm32f10x_rcc.c **** 
 133:Libraries/STM32F10x_StdPeriph_Driver/src/stm32f10x_rcc.c **** #define CFGR_PLLMull_Mask         ((uint32_t)0x003C0000)
 134:Libraries/STM32F10x_StdPeriph_Driver/src/stm32f10x_rcc.c **** #define CFGR_PLLSRC_Mask          ((uint32_t)0x00010000)
 135:Libraries/STM32F10x_StdPeriph_Driver/src/stm32f10x_rcc.c **** #define CFGR_PLLXTPRE_Mask        ((uint32_t)0x00020000)
 136:Libraries/STM32F10x_StdPeriph_Driver/src/stm32f10x_rcc.c **** #define CFGR_SWS_Mask             ((uint32_t)0x0000000C)
 137:Libraries/STM32F10x_StdPeriph_Driver/src/stm32f10x_rcc.c **** #define CFGR_SW_Mask              ((uint32_t)0xFFFFFFFC)
 138:Libraries/STM32F10x_StdPeriph_Driver/src/stm32f10x_rcc.c **** #define CFGR_HPRE_Reset_Mask      ((uint32_t)0xFFFFFF0F)
 139:Libraries/STM32F10x_StdPeriph_Driver/src/stm32f10x_rcc.c **** #define CFGR_HPRE_Set_Mask        ((uint32_t)0x000000F0)
 140:Libraries/STM32F10x_StdPeriph_Driver/src/stm32f10x_rcc.c **** #define CFGR_PPRE1_Reset_Mask     ((uint32_t)0xFFFFF8FF)
 141:Libraries/STM32F10x_StdPeriph_Driver/src/stm32f10x_rcc.c **** #define CFGR_PPRE1_Set_Mask       ((uint32_t)0x00000700)
 142:Libraries/STM32F10x_StdPeriph_Driver/src/stm32f10x_rcc.c **** #define CFGR_PPRE2_Reset_Mask     ((uint32_t)0xFFFFC7FF)
 143:Libraries/STM32F10x_StdPeriph_Driver/src/stm32f10x_rcc.c **** #define CFGR_PPRE2_Set_Mask       ((uint32_t)0x00003800)
 144:Libraries/STM32F10x_StdPeriph_Driver/src/stm32f10x_rcc.c **** #define CFGR_ADCPRE_Reset_Mask    ((uint32_t)0xFFFF3FFF)
 145:Libraries/STM32F10x_StdPeriph_Driver/src/stm32f10x_rcc.c **** #define CFGR_ADCPRE_Set_Mask      ((uint32_t)0x0000C000)
 146:Libraries/STM32F10x_StdPeriph_Driver/src/stm32f10x_rcc.c **** 
 147:Libraries/STM32F10x_StdPeriph_Driver/src/stm32f10x_rcc.c **** /* CSR register bit mask */
 148:Libraries/STM32F10x_StdPeriph_Driver/src/stm32f10x_rcc.c **** #define CSR_RMVF_Set              ((uint32_t)0x01000000)
 149:Libraries/STM32F10x_StdPeriph_Driver/src/stm32f10x_rcc.c **** 
 150:Libraries/STM32F10x_StdPeriph_Driver/src/stm32f10x_rcc.c **** #if defined (STM32F10X_LD_VL) || defined (STM32F10X_MD_VL) || defined (STM32F10X_CL) 
 151:Libraries/STM32F10x_StdPeriph_Driver/src/stm32f10x_rcc.c **** /* CFGR2 register bit mask */
 152:Libraries/STM32F10x_StdPeriph_Driver/src/stm32f10x_rcc.c ****  #define CFGR2_PREDIV1SRC         ((uint32_t)0x00010000)
 153:Libraries/STM32F10x_StdPeriph_Driver/src/stm32f10x_rcc.c ****  #define CFGR2_PREDIV1            ((uint32_t)0x0000000F)
 154:Libraries/STM32F10x_StdPeriph_Driver/src/stm32f10x_rcc.c **** #endif
 155:Libraries/STM32F10x_StdPeriph_Driver/src/stm32f10x_rcc.c **** #ifdef STM32F10X_CL
 156:Libraries/STM32F10x_StdPeriph_Driver/src/stm32f10x_rcc.c ****  #define CFGR2_PREDIV2            ((uint32_t)0x000000F0)
 157:Libraries/STM32F10x_StdPeriph_Driver/src/stm32f10x_rcc.c ****  #define CFGR2_PLL2MUL            ((uint32_t)0x00000F00)
 158:Libraries/STM32F10x_StdPeriph_Driver/src/stm32f10x_rcc.c ****  #define CFGR2_PLL3MUL            ((uint32_t)0x0000F000)
 159:Libraries/STM32F10x_StdPeriph_Driver/src/stm32f10x_rcc.c **** #endif /* STM32F10X_CL */ 
 160:Libraries/STM32F10x_StdPeriph_Driver/src/stm32f10x_rcc.c **** 
 161:Libraries/STM32F10x_StdPeriph_Driver/src/stm32f10x_rcc.c **** /* RCC Flag Mask */
 162:Libraries/STM32F10x_StdPeriph_Driver/src/stm32f10x_rcc.c **** #define FLAG_Mask                 ((uint8_t)0x1F)
 163:Libraries/STM32F10x_StdPeriph_Driver/src/stm32f10x_rcc.c **** 
 164:Libraries/STM32F10x_StdPeriph_Driver/src/stm32f10x_rcc.c **** #ifndef HSI_Value
 165:Libraries/STM32F10x_StdPeriph_Driver/src/stm32f10x_rcc.c **** /* Typical Value of the HSI in Hz */
 166:Libraries/STM32F10x_StdPeriph_Driver/src/stm32f10x_rcc.c ****  #define HSI_Value                 ((uint32_t)8000000)
 167:Libraries/STM32F10x_StdPeriph_Driver/src/stm32f10x_rcc.c **** #endif /* HSI_Value */
 168:Libraries/STM32F10x_StdPeriph_Driver/src/stm32f10x_rcc.c **** 
 169:Libraries/STM32F10x_StdPeriph_Driver/src/stm32f10x_rcc.c **** /* CIR register byte 2 (Bits[15:8]) base address */
 170:Libraries/STM32F10x_StdPeriph_Driver/src/stm32f10x_rcc.c **** #define CIR_BYTE2_ADDRESS         ((uint32_t)0x40021009)
 171:Libraries/STM32F10x_StdPeriph_Driver/src/stm32f10x_rcc.c **** 
 172:Libraries/STM32F10x_StdPeriph_Driver/src/stm32f10x_rcc.c **** /* CIR register byte 3 (Bits[23:16]) base address */
 173:Libraries/STM32F10x_StdPeriph_Driver/src/stm32f10x_rcc.c **** #define CIR_BYTE3_ADDRESS         ((uint32_t)0x4002100A)
 174:Libraries/STM32F10x_StdPeriph_Driver/src/stm32f10x_rcc.c **** 
 175:Libraries/STM32F10x_StdPeriph_Driver/src/stm32f10x_rcc.c **** /* CFGR register byte 4 (Bits[31:24]) base address */
 176:Libraries/STM32F10x_StdPeriph_Driver/src/stm32f10x_rcc.c **** #define CFGR_BYTE4_ADDRESS        ((uint32_t)0x40021007)
 177:Libraries/STM32F10x_StdPeriph_Driver/src/stm32f10x_rcc.c **** 
 178:Libraries/STM32F10x_StdPeriph_Driver/src/stm32f10x_rcc.c **** /* BDCR register base address */
 179:Libraries/STM32F10x_StdPeriph_Driver/src/stm32f10x_rcc.c **** #define BDCR_ADDRESS              (PERIPH_BASE + BDCR_OFFSET)
 180:Libraries/STM32F10x_StdPeriph_Driver/src/stm32f10x_rcc.c **** 
 181:Libraries/STM32F10x_StdPeriph_Driver/src/stm32f10x_rcc.c **** #ifndef HSEStartUp_TimeOut
 182:Libraries/STM32F10x_StdPeriph_Driver/src/stm32f10x_rcc.c **** /* Time out for HSE start up */
 183:Libraries/STM32F10x_StdPeriph_Driver/src/stm32f10x_rcc.c ****  #define HSEStartUp_TimeOut        ((uint16_t)0x0500)
 184:Libraries/STM32F10x_StdPeriph_Driver/src/stm32f10x_rcc.c **** #endif /* HSEStartUp_TimeOut */
 185:Libraries/STM32F10x_StdPeriph_Driver/src/stm32f10x_rcc.c **** 
 186:Libraries/STM32F10x_StdPeriph_Driver/src/stm32f10x_rcc.c **** /**
 187:Libraries/STM32F10x_StdPeriph_Driver/src/stm32f10x_rcc.c ****   * @}
 188:Libraries/STM32F10x_StdPeriph_Driver/src/stm32f10x_rcc.c ****   */ 
 189:Libraries/STM32F10x_StdPeriph_Driver/src/stm32f10x_rcc.c **** 
 190:Libraries/STM32F10x_StdPeriph_Driver/src/stm32f10x_rcc.c **** /** @defgroup RCC_Private_Macros
 191:Libraries/STM32F10x_StdPeriph_Driver/src/stm32f10x_rcc.c ****   * @{
 192:Libraries/STM32F10x_StdPeriph_Driver/src/stm32f10x_rcc.c ****   */ 
 193:Libraries/STM32F10x_StdPeriph_Driver/src/stm32f10x_rcc.c **** 
 194:Libraries/STM32F10x_StdPeriph_Driver/src/stm32f10x_rcc.c **** /**
 195:Libraries/STM32F10x_StdPeriph_Driver/src/stm32f10x_rcc.c ****   * @}
 196:Libraries/STM32F10x_StdPeriph_Driver/src/stm32f10x_rcc.c ****   */ 
 197:Libraries/STM32F10x_StdPeriph_Driver/src/stm32f10x_rcc.c **** 
 198:Libraries/STM32F10x_StdPeriph_Driver/src/stm32f10x_rcc.c **** /** @defgroup RCC_Private_Variables
 199:Libraries/STM32F10x_StdPeriph_Driver/src/stm32f10x_rcc.c ****   * @{
 200:Libraries/STM32F10x_StdPeriph_Driver/src/stm32f10x_rcc.c ****   */ 
 201:Libraries/STM32F10x_StdPeriph_Driver/src/stm32f10x_rcc.c **** 
 202:Libraries/STM32F10x_StdPeriph_Driver/src/stm32f10x_rcc.c **** static __I uint8_t APBAHBPrescTable[16] = {0, 0, 0, 0, 1, 2, 3, 4, 1, 2, 3, 4, 6, 7, 8, 9};
 203:Libraries/STM32F10x_StdPeriph_Driver/src/stm32f10x_rcc.c **** static __I uint8_t ADCPrescTable[4] = {2, 4, 6, 8};
 204:Libraries/STM32F10x_StdPeriph_Driver/src/stm32f10x_rcc.c **** 
 205:Libraries/STM32F10x_StdPeriph_Driver/src/stm32f10x_rcc.c **** /**
 206:Libraries/STM32F10x_StdPeriph_Driver/src/stm32f10x_rcc.c ****   * @}
 207:Libraries/STM32F10x_StdPeriph_Driver/src/stm32f10x_rcc.c ****   */
 208:Libraries/STM32F10x_StdPeriph_Driver/src/stm32f10x_rcc.c **** 
 209:Libraries/STM32F10x_StdPeriph_Driver/src/stm32f10x_rcc.c **** /** @defgroup RCC_Private_FunctionPrototypes
 210:Libraries/STM32F10x_StdPeriph_Driver/src/stm32f10x_rcc.c ****   * @{
 211:Libraries/STM32F10x_StdPeriph_Driver/src/stm32f10x_rcc.c ****   */
 212:Libraries/STM32F10x_StdPeriph_Driver/src/stm32f10x_rcc.c **** 
 213:Libraries/STM32F10x_StdPeriph_Driver/src/stm32f10x_rcc.c **** /**
 214:Libraries/STM32F10x_StdPeriph_Driver/src/stm32f10x_rcc.c ****   * @}
 215:Libraries/STM32F10x_StdPeriph_Driver/src/stm32f10x_rcc.c ****   */
 216:Libraries/STM32F10x_StdPeriph_Driver/src/stm32f10x_rcc.c **** 
 217:Libraries/STM32F10x_StdPeriph_Driver/src/stm32f10x_rcc.c **** /** @defgroup RCC_Private_Functions
 218:Libraries/STM32F10x_StdPeriph_Driver/src/stm32f10x_rcc.c ****   * @{
 219:Libraries/STM32F10x_StdPeriph_Driver/src/stm32f10x_rcc.c ****   */
 220:Libraries/STM32F10x_StdPeriph_Driver/src/stm32f10x_rcc.c **** 
 221:Libraries/STM32F10x_StdPeriph_Driver/src/stm32f10x_rcc.c **** /**
 222:Libraries/STM32F10x_StdPeriph_Driver/src/stm32f10x_rcc.c ****   * @brief  Resets the RCC clock configuration to the default reset state.
 223:Libraries/STM32F10x_StdPeriph_Driver/src/stm32f10x_rcc.c ****   * @param  None
 224:Libraries/STM32F10x_StdPeriph_Driver/src/stm32f10x_rcc.c ****   * @retval None
 225:Libraries/STM32F10x_StdPeriph_Driver/src/stm32f10x_rcc.c ****   */
 226:Libraries/STM32F10x_StdPeriph_Driver/src/stm32f10x_rcc.c **** void RCC_DeInit(void)
 227:Libraries/STM32F10x_StdPeriph_Driver/src/stm32f10x_rcc.c **** {
  27              		.loc 1 227 0
  28              		.cfi_startproc
  29              		@ args = 0, pretend = 0, frame = 0
  30              		@ frame_needed = 0, uses_anonymous_args = 0
  31              		@ link register save eliminated.
 228:Libraries/STM32F10x_StdPeriph_Driver/src/stm32f10x_rcc.c ****   /* Set HSION bit */
 229:Libraries/STM32F10x_StdPeriph_Driver/src/stm32f10x_rcc.c ****   RCC->CR |= (uint32_t)0x00000001;
 230:Libraries/STM32F10x_StdPeriph_Driver/src/stm32f10x_rcc.c **** 
 231:Libraries/STM32F10x_StdPeriph_Driver/src/stm32f10x_rcc.c ****   /* Reset SW, HPRE, PPRE1, PPRE2, ADCPRE and MCO bits */
 232:Libraries/STM32F10x_StdPeriph_Driver/src/stm32f10x_rcc.c **** #ifndef STM32F10X_CL
 233:Libraries/STM32F10x_StdPeriph_Driver/src/stm32f10x_rcc.c ****   RCC->CFGR &= (uint32_t)0xF8FF0000;
 234:Libraries/STM32F10x_StdPeriph_Driver/src/stm32f10x_rcc.c **** #else
 235:Libraries/STM32F10x_StdPeriph_Driver/src/stm32f10x_rcc.c ****   RCC->CFGR &= (uint32_t)0xF0FF0000;
 236:Libraries/STM32F10x_StdPeriph_Driver/src/stm32f10x_rcc.c **** #endif /* STM32F10X_CL */   
 237:Libraries/STM32F10x_StdPeriph_Driver/src/stm32f10x_rcc.c ****   
 238:Libraries/STM32F10x_StdPeriph_Driver/src/stm32f10x_rcc.c ****   /* Reset HSEON, CSSON and PLLON bits */
 239:Libraries/STM32F10x_StdPeriph_Driver/src/stm32f10x_rcc.c ****   RCC->CR &= (uint32_t)0xFEF6FFFF;
 240:Libraries/STM32F10x_StdPeriph_Driver/src/stm32f10x_rcc.c **** 
 241:Libraries/STM32F10x_StdPeriph_Driver/src/stm32f10x_rcc.c ****   /* Reset HSEBYP bit */
 242:Libraries/STM32F10x_StdPeriph_Driver/src/stm32f10x_rcc.c ****   RCC->CR &= (uint32_t)0xFFFBFFFF;
 243:Libraries/STM32F10x_StdPeriph_Driver/src/stm32f10x_rcc.c **** 
 244:Libraries/STM32F10x_StdPeriph_Driver/src/stm32f10x_rcc.c ****   /* Reset PLLSRC, PLLXTPRE, PLLMUL and USBPRE/OTGFSPRE bits */
 245:Libraries/STM32F10x_StdPeriph_Driver/src/stm32f10x_rcc.c ****   RCC->CFGR &= (uint32_t)0xFF80FFFF;
 246:Libraries/STM32F10x_StdPeriph_Driver/src/stm32f10x_rcc.c **** 
 247:Libraries/STM32F10x_StdPeriph_Driver/src/stm32f10x_rcc.c **** #ifdef STM32F10X_CL
 248:Libraries/STM32F10x_StdPeriph_Driver/src/stm32f10x_rcc.c ****   /* Reset PLL2ON and PLL3ON bits */
 249:Libraries/STM32F10x_StdPeriph_Driver/src/stm32f10x_rcc.c ****   RCC->CR &= (uint32_t)0xEBFFFFFF;
 250:Libraries/STM32F10x_StdPeriph_Driver/src/stm32f10x_rcc.c **** 
 251:Libraries/STM32F10x_StdPeriph_Driver/src/stm32f10x_rcc.c ****   /* Disable all interrupts and clear pending bits  */
 252:Libraries/STM32F10x_StdPeriph_Driver/src/stm32f10x_rcc.c ****   RCC->CIR = 0x00FF0000;
 253:Libraries/STM32F10x_StdPeriph_Driver/src/stm32f10x_rcc.c **** 
 254:Libraries/STM32F10x_StdPeriph_Driver/src/stm32f10x_rcc.c ****   /* Reset CFGR2 register */
 255:Libraries/STM32F10x_StdPeriph_Driver/src/stm32f10x_rcc.c ****   RCC->CFGR2 = 0x00000000;
 256:Libraries/STM32F10x_StdPeriph_Driver/src/stm32f10x_rcc.c **** #elif defined (STM32F10X_LD_VL) || defined (STM32F10X_MD_VL) 
 257:Libraries/STM32F10x_StdPeriph_Driver/src/stm32f10x_rcc.c ****   /* Disable all interrupts and clear pending bits  */
 258:Libraries/STM32F10x_StdPeriph_Driver/src/stm32f10x_rcc.c ****   RCC->CIR = 0x009F0000;
 259:Libraries/STM32F10x_StdPeriph_Driver/src/stm32f10x_rcc.c **** 
 260:Libraries/STM32F10x_StdPeriph_Driver/src/stm32f10x_rcc.c ****   /* Reset CFGR2 register */
 261:Libraries/STM32F10x_StdPeriph_Driver/src/stm32f10x_rcc.c ****   RCC->CFGR2 = 0x00000000;      
 262:Libraries/STM32F10x_StdPeriph_Driver/src/stm32f10x_rcc.c **** #else
 263:Libraries/STM32F10x_StdPeriph_Driver/src/stm32f10x_rcc.c ****   /* Disable all interrupts and clear pending bits  */
 264:Libraries/STM32F10x_StdPeriph_Driver/src/stm32f10x_rcc.c ****   RCC->CIR = 0x009F0000;
  32              		.loc 1 264 0
  33 0000 4FF41F00 		mov	r0, #10420224
 229:Libraries/STM32F10x_StdPeriph_Driver/src/stm32f10x_rcc.c **** 
  34              		.loc 1 229 0
  35 0004 0C4B     		ldr	r3, .L3
 233:Libraries/STM32F10x_StdPeriph_Driver/src/stm32f10x_rcc.c **** #else
  36              		.loc 1 233 0
  37 0006 0D4A     		ldr	r2, .L3+4
 229:Libraries/STM32F10x_StdPeriph_Driver/src/stm32f10x_rcc.c **** 
  38              		.loc 1 229 0
  39 0008 1968     		ldr	r1, [r3]
  40 000a 41F00101 		orr	r1, r1, #1
  41 000e 1960     		str	r1, [r3]
 233:Libraries/STM32F10x_StdPeriph_Driver/src/stm32f10x_rcc.c **** #else
  42              		.loc 1 233 0
  43 0010 5968     		ldr	r1, [r3, #4]
  44 0012 0A40     		ands	r2, r2, r1
  45 0014 5A60     		str	r2, [r3, #4]
 239:Libraries/STM32F10x_StdPeriph_Driver/src/stm32f10x_rcc.c **** 
  46              		.loc 1 239 0
  47 0016 1A68     		ldr	r2, [r3]
  48 0018 22F08472 		bic	r2, r2, #17301504
  49 001c 22F48032 		bic	r2, r2, #65536
  50 0020 1A60     		str	r2, [r3]
 242:Libraries/STM32F10x_StdPeriph_Driver/src/stm32f10x_rcc.c **** 
  51              		.loc 1 242 0
  52 0022 1A68     		ldr	r2, [r3]
  53 0024 22F48022 		bic	r2, r2, #262144
  54 0028 1A60     		str	r2, [r3]
 245:Libraries/STM32F10x_StdPeriph_Driver/src/stm32f10x_rcc.c **** 
  55              		.loc 1 245 0
  56 002a 5A68     		ldr	r2, [r3, #4]
  57 002c 22F4FE02 		bic	r2, r2, #8323072
  58 0030 5A60     		str	r2, [r3, #4]
  59              		.loc 1 264 0
  60 0032 9860     		str	r0, [r3, #8]
 265:Libraries/STM32F10x_StdPeriph_Driver/src/stm32f10x_rcc.c **** #endif /* STM32F10X_CL */
 266:Libraries/STM32F10x_StdPeriph_Driver/src/stm32f10x_rcc.c **** 
 267:Libraries/STM32F10x_StdPeriph_Driver/src/stm32f10x_rcc.c **** }
  61              		.loc 1 267 0
  62 0034 7047     		bx	lr
  63              	.L4:
  64 0036 00BF     		.align	2
  65              	.L3:
  66 0038 00100240 		.word	1073876992
  67 003c 0000FFF8 		.word	-117506048
  68              		.cfi_endproc
  69              	.LFE29:
  71              		.section	.text.RCC_HSEConfig,"ax",%progbits
  72              		.align	1
  73              		.p2align 2,,3
  74              		.global	RCC_HSEConfig
  75              		.syntax unified
  76              		.thumb
  77              		.thumb_func
  78              		.fpu softvfp
  80              	RCC_HSEConfig:
  81              	.LFB30:
 268:Libraries/STM32F10x_StdPeriph_Driver/src/stm32f10x_rcc.c **** 
 269:Libraries/STM32F10x_StdPeriph_Driver/src/stm32f10x_rcc.c **** /**
 270:Libraries/STM32F10x_StdPeriph_Driver/src/stm32f10x_rcc.c ****   * @brief  Configures the External High Speed oscillator (HSE).
 271:Libraries/STM32F10x_StdPeriph_Driver/src/stm32f10x_rcc.c ****   * @note   HSE can not be stopped if it is used directly or through the PLL as system clock.
 272:Libraries/STM32F10x_StdPeriph_Driver/src/stm32f10x_rcc.c ****   * @param  RCC_HSE: specifies the new state of the HSE.
 273:Libraries/STM32F10x_StdPeriph_Driver/src/stm32f10x_rcc.c ****   *   This parameter can be one of the following values:
 274:Libraries/STM32F10x_StdPeriph_Driver/src/stm32f10x_rcc.c ****   *     @arg RCC_HSE_OFF: HSE oscillator OFF
 275:Libraries/STM32F10x_StdPeriph_Driver/src/stm32f10x_rcc.c ****   *     @arg RCC_HSE_ON: HSE oscillator ON
 276:Libraries/STM32F10x_StdPeriph_Driver/src/stm32f10x_rcc.c ****   *     @arg RCC_HSE_Bypass: HSE oscillator bypassed with external clock
 277:Libraries/STM32F10x_StdPeriph_Driver/src/stm32f10x_rcc.c ****   * @retval None
 278:Libraries/STM32F10x_StdPeriph_Driver/src/stm32f10x_rcc.c ****   */
 279:Libraries/STM32F10x_StdPeriph_Driver/src/stm32f10x_rcc.c **** void RCC_HSEConfig(uint32_t RCC_HSE)
 280:Libraries/STM32F10x_StdPeriph_Driver/src/stm32f10x_rcc.c **** {
  82              		.loc 1 280 0
  83              		.cfi_startproc
  84              		@ args = 0, pretend = 0, frame = 0
  85              		@ frame_needed = 0, uses_anonymous_args = 0
  86              	.LVL0:
 281:Libraries/STM32F10x_StdPeriph_Driver/src/stm32f10x_rcc.c ****   /* Check the parameters */
 282:Libraries/STM32F10x_StdPeriph_Driver/src/stm32f10x_rcc.c ****   assert_param(IS_RCC_HSE(RCC_HSE));
  87              		.loc 1 282 0
  88 0000 A0B1     		cbz	r0, .L6
  89              		.loc 1 282 0 is_stmt 0 discriminator 1
  90 0002 B0F5803F 		cmp	r0, #65536
 280:Libraries/STM32F10x_StdPeriph_Driver/src/stm32f10x_rcc.c ****   /* Check the parameters */
  91              		.loc 1 280 0 is_stmt 1 discriminator 1
  92 0006 10B5     		push	{r4, lr}
  93              		.cfi_def_cfa_offset 8
  94              		.cfi_offset 4, -8
  95              		.cfi_offset 14, -4
  96              		.loc 1 282 0 discriminator 1
  97 0008 1AD0     		beq	.L7
  98              		.loc 1 282 0 is_stmt 0 discriminator 2
  99 000a B0F5802F 		cmp	r0, #262144
 100 000e 26D1     		bne	.L19
 283:Libraries/STM32F10x_StdPeriph_Driver/src/stm32f10x_rcc.c ****   /* Reset HSEON and HSEBYP bits before configuring the HSE ------------------*/
 284:Libraries/STM32F10x_StdPeriph_Driver/src/stm32f10x_rcc.c ****   /* Reset HSEON bit */
 285:Libraries/STM32F10x_StdPeriph_Driver/src/stm32f10x_rcc.c ****   RCC->CR &= CR_HSEON_Reset;
 101              		.loc 1 285 0 is_stmt 1
 102 0010 1C4B     		ldr	r3, .L20
 103 0012 1A68     		ldr	r2, [r3]
 104 0014 22F48032 		bic	r2, r2, #65536
 105 0018 1A60     		str	r2, [r3]
 286:Libraries/STM32F10x_StdPeriph_Driver/src/stm32f10x_rcc.c ****   /* Reset HSEBYP bit */
 287:Libraries/STM32F10x_StdPeriph_Driver/src/stm32f10x_rcc.c ****   RCC->CR &= CR_HSEBYP_Reset;
 106              		.loc 1 287 0
 107 001a 1A68     		ldr	r2, [r3]
 108 001c 22F48022 		bic	r2, r2, #262144
 109 0020 1A60     		str	r2, [r3]
 288:Libraries/STM32F10x_StdPeriph_Driver/src/stm32f10x_rcc.c ****   /* Configure HSE (RCC_HSE_OFF is already covered by the code section above) */
 289:Libraries/STM32F10x_StdPeriph_Driver/src/stm32f10x_rcc.c ****   switch(RCC_HSE)
 290:Libraries/STM32F10x_StdPeriph_Driver/src/stm32f10x_rcc.c ****   {
 291:Libraries/STM32F10x_StdPeriph_Driver/src/stm32f10x_rcc.c ****     case RCC_HSE_ON:
 292:Libraries/STM32F10x_StdPeriph_Driver/src/stm32f10x_rcc.c ****       /* Set HSEON bit */
 293:Libraries/STM32F10x_StdPeriph_Driver/src/stm32f10x_rcc.c ****       RCC->CR |= CR_HSEON_Set;
 294:Libraries/STM32F10x_StdPeriph_Driver/src/stm32f10x_rcc.c ****       break;
 295:Libraries/STM32F10x_StdPeriph_Driver/src/stm32f10x_rcc.c ****       
 296:Libraries/STM32F10x_StdPeriph_Driver/src/stm32f10x_rcc.c ****     case RCC_HSE_Bypass:
 297:Libraries/STM32F10x_StdPeriph_Driver/src/stm32f10x_rcc.c ****       /* Set HSEBYP and HSEON bits */
 298:Libraries/STM32F10x_StdPeriph_Driver/src/stm32f10x_rcc.c ****       RCC->CR |= CR_HSEBYP_Set | CR_HSEON_Set;
 110              		.loc 1 298 0
 111 0022 1A68     		ldr	r2, [r3]
 112 0024 42F4A022 		orr	r2, r2, #327680
 113 0028 1A60     		str	r2, [r3]
 299:Libraries/STM32F10x_StdPeriph_Driver/src/stm32f10x_rcc.c ****       break;
 300:Libraries/STM32F10x_StdPeriph_Driver/src/stm32f10x_rcc.c ****       
 301:Libraries/STM32F10x_StdPeriph_Driver/src/stm32f10x_rcc.c ****     default:
 302:Libraries/STM32F10x_StdPeriph_Driver/src/stm32f10x_rcc.c ****       break;
 303:Libraries/STM32F10x_StdPeriph_Driver/src/stm32f10x_rcc.c ****   }
 304:Libraries/STM32F10x_StdPeriph_Driver/src/stm32f10x_rcc.c **** }
 114              		.loc 1 304 0
 115 002a 10BD     		pop	{r4, pc}
 116              	.L6:
 117              		.cfi_def_cfa_offset 0
 118              		.cfi_restore 4
 119              		.cfi_restore 14
 285:Libraries/STM32F10x_StdPeriph_Driver/src/stm32f10x_rcc.c ****   /* Reset HSEBYP bit */
 120              		.loc 1 285 0
 121 002c 154B     		ldr	r3, .L20
 122 002e 1A68     		ldr	r2, [r3]
 123 0030 22F48032 		bic	r2, r2, #65536
 124 0034 1A60     		str	r2, [r3]
 287:Libraries/STM32F10x_StdPeriph_Driver/src/stm32f10x_rcc.c ****   /* Configure HSE (RCC_HSE_OFF is already covered by the code section above) */
 125              		.loc 1 287 0
 126 0036 1A68     		ldr	r2, [r3]
 127 0038 22F48022 		bic	r2, r2, #262144
 128 003c 1A60     		str	r2, [r3]
 129 003e 7047     		bx	lr
 130              	.L7:
 131              		.cfi_def_cfa_offset 8
 132              		.cfi_offset 4, -8
 133              		.cfi_offset 14, -4
 285:Libraries/STM32F10x_StdPeriph_Driver/src/stm32f10x_rcc.c ****   /* Reset HSEBYP bit */
 134              		.loc 1 285 0
 135 0040 104B     		ldr	r3, .L20
 136 0042 1A68     		ldr	r2, [r3]
 137 0044 22F48032 		bic	r2, r2, #65536
 138 0048 1A60     		str	r2, [r3]
 287:Libraries/STM32F10x_StdPeriph_Driver/src/stm32f10x_rcc.c ****   /* Configure HSE (RCC_HSE_OFF is already covered by the code section above) */
 139              		.loc 1 287 0
 140 004a 1A68     		ldr	r2, [r3]
 141 004c 22F48022 		bic	r2, r2, #262144
 142 0050 1A60     		str	r2, [r3]
 143              	.LVL1:
 144              	.L10:
 293:Libraries/STM32F10x_StdPeriph_Driver/src/stm32f10x_rcc.c ****       break;
 145              		.loc 1 293 0
 146 0052 0C4A     		ldr	r2, .L20
 147 0054 1368     		ldr	r3, [r2]
 148 0056 43F48033 		orr	r3, r3, #65536
 149 005a 1360     		str	r3, [r2]
 150              		.loc 1 304 0
 151 005c 10BD     		pop	{r4, pc}
 152              	.LVL2:
 153              	.L19:
 154 005e 0446     		mov	r4, r0
 282:Libraries/STM32F10x_StdPeriph_Driver/src/stm32f10x_rcc.c ****   /* Reset HSEON and HSEBYP bits before configuring the HSE ------------------*/
 155              		.loc 1 282 0 discriminator 3
 156 0060 094B     		ldr	r3, .L20+4
 157 0062 4FF48D71 		mov	r1, #282
 158 0066 0948     		ldr	r0, .L20+8
 159              	.LVL3:
 160 0068 9847     		blx	r3
 161              	.LVL4:
 285:Libraries/STM32F10x_StdPeriph_Driver/src/stm32f10x_rcc.c ****   /* Reset HSEBYP bit */
 162              		.loc 1 285 0 discriminator 3
 163 006a 064B     		ldr	r3, .L20
 289:Libraries/STM32F10x_StdPeriph_Driver/src/stm32f10x_rcc.c ****   {
 164              		.loc 1 289 0 discriminator 3
 165 006c B4F5803F 		cmp	r4, #65536
 285:Libraries/STM32F10x_StdPeriph_Driver/src/stm32f10x_rcc.c ****   /* Reset HSEBYP bit */
 166              		.loc 1 285 0 discriminator 3
 167 0070 1A68     		ldr	r2, [r3]
 168 0072 22F48032 		bic	r2, r2, #65536
 169 0076 1A60     		str	r2, [r3]
 287:Libraries/STM32F10x_StdPeriph_Driver/src/stm32f10x_rcc.c ****   /* Configure HSE (RCC_HSE_OFF is already covered by the code section above) */
 170              		.loc 1 287 0 discriminator 3
 171 0078 1A68     		ldr	r2, [r3]
 172 007a 22F48022 		bic	r2, r2, #262144
 173 007e 1A60     		str	r2, [r3]
 289:Libraries/STM32F10x_StdPeriph_Driver/src/stm32f10x_rcc.c ****   {
 174              		.loc 1 289 0 discriminator 3
 175 0080 E7D0     		beq	.L10
 176              		.loc 1 304 0
 177 0082 10BD     		pop	{r4, pc}
 178              	.LVL5:
 179              	.L21:
 180              		.align	2
 181              	.L20:
 182 0084 00100240 		.word	1073876992
 183 0088 00000000 		.word	assert_failed
 184 008c 00000000 		.word	.LC0
 185              		.cfi_endproc
 186              	.LFE30:
 188              		.section	.text.RCC_WaitForHSEStartUp,"ax",%progbits
 189              		.align	1
 190              		.p2align 2,,3
 191              		.global	RCC_WaitForHSEStartUp
 192              		.syntax unified
 193              		.thumb
 194              		.thumb_func
 195              		.fpu softvfp
 197              	RCC_WaitForHSEStartUp:
 198              	.LFB31:
 305:Libraries/STM32F10x_StdPeriph_Driver/src/stm32f10x_rcc.c **** 
 306:Libraries/STM32F10x_StdPeriph_Driver/src/stm32f10x_rcc.c **** /**
 307:Libraries/STM32F10x_StdPeriph_Driver/src/stm32f10x_rcc.c ****   * @brief  Waits for HSE start-up.
 308:Libraries/STM32F10x_StdPeriph_Driver/src/stm32f10x_rcc.c ****   * @param  None
 309:Libraries/STM32F10x_StdPeriph_Driver/src/stm32f10x_rcc.c ****   * @retval An ErrorStatus enumuration value:
 310:Libraries/STM32F10x_StdPeriph_Driver/src/stm32f10x_rcc.c ****   * - SUCCESS: HSE oscillator is stable and ready to use
 311:Libraries/STM32F10x_StdPeriph_Driver/src/stm32f10x_rcc.c ****   * - ERROR: HSE oscillator not yet ready
 312:Libraries/STM32F10x_StdPeriph_Driver/src/stm32f10x_rcc.c ****   */
 313:Libraries/STM32F10x_StdPeriph_Driver/src/stm32f10x_rcc.c **** ErrorStatus RCC_WaitForHSEStartUp(void)
 314:Libraries/STM32F10x_StdPeriph_Driver/src/stm32f10x_rcc.c **** {
 199              		.loc 1 314 0
 200              		.cfi_startproc
 201              		@ args = 0, pretend = 0, frame = 8
 202              		@ frame_needed = 0, uses_anonymous_args = 0
 203              		@ link register save eliminated.
 315:Libraries/STM32F10x_StdPeriph_Driver/src/stm32f10x_rcc.c ****   __IO uint32_t StartUpCounter = 0;
 204              		.loc 1 315 0
 205 0000 0023     		movs	r3, #0
 314:Libraries/STM32F10x_StdPeriph_Driver/src/stm32f10x_rcc.c ****   __IO uint32_t StartUpCounter = 0;
 206              		.loc 1 314 0
 207 0002 82B0     		sub	sp, sp, #8
 208              		.cfi_def_cfa_offset 8
 209              	.LBB6:
 210              	.LBB7:
 316:Libraries/STM32F10x_StdPeriph_Driver/src/stm32f10x_rcc.c ****   ErrorStatus status = ERROR;
 317:Libraries/STM32F10x_StdPeriph_Driver/src/stm32f10x_rcc.c ****   FlagStatus HSEStatus = RESET;
 318:Libraries/STM32F10x_StdPeriph_Driver/src/stm32f10x_rcc.c ****   
 319:Libraries/STM32F10x_StdPeriph_Driver/src/stm32f10x_rcc.c ****   /* Wait till HSE is ready and if Time out is reached exit */
 320:Libraries/STM32F10x_StdPeriph_Driver/src/stm32f10x_rcc.c ****   do
 321:Libraries/STM32F10x_StdPeriph_Driver/src/stm32f10x_rcc.c ****   {
 322:Libraries/STM32F10x_StdPeriph_Driver/src/stm32f10x_rcc.c ****     HSEStatus = RCC_GetFlagStatus(RCC_FLAG_HSERDY);
 323:Libraries/STM32F10x_StdPeriph_Driver/src/stm32f10x_rcc.c ****     StartUpCounter++;  
 324:Libraries/STM32F10x_StdPeriph_Driver/src/stm32f10x_rcc.c ****   } while((StartUpCounter != HSEStartUp_TimeOut) && (HSEStatus == RESET));
 325:Libraries/STM32F10x_StdPeriph_Driver/src/stm32f10x_rcc.c ****   
 326:Libraries/STM32F10x_StdPeriph_Driver/src/stm32f10x_rcc.c ****   if (RCC_GetFlagStatus(RCC_FLAG_HSERDY) != RESET)
 327:Libraries/STM32F10x_StdPeriph_Driver/src/stm32f10x_rcc.c ****   {
 328:Libraries/STM32F10x_StdPeriph_Driver/src/stm32f10x_rcc.c ****     status = SUCCESS;
 329:Libraries/STM32F10x_StdPeriph_Driver/src/stm32f10x_rcc.c ****   }
 330:Libraries/STM32F10x_StdPeriph_Driver/src/stm32f10x_rcc.c ****   else
 331:Libraries/STM32F10x_StdPeriph_Driver/src/stm32f10x_rcc.c ****   {
 332:Libraries/STM32F10x_StdPeriph_Driver/src/stm32f10x_rcc.c ****     status = ERROR;
 333:Libraries/STM32F10x_StdPeriph_Driver/src/stm32f10x_rcc.c ****   }  
 334:Libraries/STM32F10x_StdPeriph_Driver/src/stm32f10x_rcc.c ****   return (status);
 335:Libraries/STM32F10x_StdPeriph_Driver/src/stm32f10x_rcc.c **** }
 336:Libraries/STM32F10x_StdPeriph_Driver/src/stm32f10x_rcc.c **** 
 337:Libraries/STM32F10x_StdPeriph_Driver/src/stm32f10x_rcc.c **** /**
 338:Libraries/STM32F10x_StdPeriph_Driver/src/stm32f10x_rcc.c ****   * @brief  Adjusts the Internal High Speed oscillator (HSI) calibration value.
 339:Libraries/STM32F10x_StdPeriph_Driver/src/stm32f10x_rcc.c ****   * @param  HSICalibrationValue: specifies the calibration trimming value.
 340:Libraries/STM32F10x_StdPeriph_Driver/src/stm32f10x_rcc.c ****   *   This parameter must be a number between 0 and 0x1F.
 341:Libraries/STM32F10x_StdPeriph_Driver/src/stm32f10x_rcc.c ****   * @retval None
 342:Libraries/STM32F10x_StdPeriph_Driver/src/stm32f10x_rcc.c ****   */
 343:Libraries/STM32F10x_StdPeriph_Driver/src/stm32f10x_rcc.c **** void RCC_AdjustHSICalibrationValue(uint8_t HSICalibrationValue)
 344:Libraries/STM32F10x_StdPeriph_Driver/src/stm32f10x_rcc.c **** {
 345:Libraries/STM32F10x_StdPeriph_Driver/src/stm32f10x_rcc.c ****   uint32_t tmpreg = 0;
 346:Libraries/STM32F10x_StdPeriph_Driver/src/stm32f10x_rcc.c ****   /* Check the parameters */
 347:Libraries/STM32F10x_StdPeriph_Driver/src/stm32f10x_rcc.c ****   assert_param(IS_RCC_CALIBRATION_VALUE(HSICalibrationValue));
 348:Libraries/STM32F10x_StdPeriph_Driver/src/stm32f10x_rcc.c ****   tmpreg = RCC->CR;
 349:Libraries/STM32F10x_StdPeriph_Driver/src/stm32f10x_rcc.c ****   /* Clear HSITRIM[4:0] bits */
 350:Libraries/STM32F10x_StdPeriph_Driver/src/stm32f10x_rcc.c ****   tmpreg &= CR_HSITRIM_Mask;
 351:Libraries/STM32F10x_StdPeriph_Driver/src/stm32f10x_rcc.c ****   /* Set the HSITRIM[4:0] bits according to HSICalibrationValue value */
 352:Libraries/STM32F10x_StdPeriph_Driver/src/stm32f10x_rcc.c ****   tmpreg |= (uint32_t)HSICalibrationValue << 3;
 353:Libraries/STM32F10x_StdPeriph_Driver/src/stm32f10x_rcc.c ****   /* Store the new value */
 354:Libraries/STM32F10x_StdPeriph_Driver/src/stm32f10x_rcc.c ****   RCC->CR = tmpreg;
 355:Libraries/STM32F10x_StdPeriph_Driver/src/stm32f10x_rcc.c **** }
 356:Libraries/STM32F10x_StdPeriph_Driver/src/stm32f10x_rcc.c **** 
 357:Libraries/STM32F10x_StdPeriph_Driver/src/stm32f10x_rcc.c **** /**
 358:Libraries/STM32F10x_StdPeriph_Driver/src/stm32f10x_rcc.c ****   * @brief  Enables or disables the Internal High Speed oscillator (HSI).
 359:Libraries/STM32F10x_StdPeriph_Driver/src/stm32f10x_rcc.c ****   * @note   HSI can not be stopped if it is used directly or through the PLL as system clock.
 360:Libraries/STM32F10x_StdPeriph_Driver/src/stm32f10x_rcc.c ****   * @param  NewState: new state of the HSI. This parameter can be: ENABLE or DISABLE.
 361:Libraries/STM32F10x_StdPeriph_Driver/src/stm32f10x_rcc.c ****   * @retval None
 362:Libraries/STM32F10x_StdPeriph_Driver/src/stm32f10x_rcc.c ****   */
 363:Libraries/STM32F10x_StdPeriph_Driver/src/stm32f10x_rcc.c **** void RCC_HSICmd(FunctionalState NewState)
 364:Libraries/STM32F10x_StdPeriph_Driver/src/stm32f10x_rcc.c **** {
 365:Libraries/STM32F10x_StdPeriph_Driver/src/stm32f10x_rcc.c ****   /* Check the parameters */
 366:Libraries/STM32F10x_StdPeriph_Driver/src/stm32f10x_rcc.c ****   assert_param(IS_FUNCTIONAL_STATE(NewState));
 367:Libraries/STM32F10x_StdPeriph_Driver/src/stm32f10x_rcc.c ****   *(__IO uint32_t *) CR_HSION_BB = (uint32_t)NewState;
 368:Libraries/STM32F10x_StdPeriph_Driver/src/stm32f10x_rcc.c **** }
 369:Libraries/STM32F10x_StdPeriph_Driver/src/stm32f10x_rcc.c **** 
 370:Libraries/STM32F10x_StdPeriph_Driver/src/stm32f10x_rcc.c **** /**
 371:Libraries/STM32F10x_StdPeriph_Driver/src/stm32f10x_rcc.c ****   * @brief  Configures the PLL clock source and multiplication factor.
 372:Libraries/STM32F10x_StdPeriph_Driver/src/stm32f10x_rcc.c ****   * @note   This function must be used only when the PLL is disabled.
 373:Libraries/STM32F10x_StdPeriph_Driver/src/stm32f10x_rcc.c ****   * @param  RCC_PLLSource: specifies the PLL entry clock source.
 374:Libraries/STM32F10x_StdPeriph_Driver/src/stm32f10x_rcc.c ****   *   For @b STM32_Connectivity_line_devices or @b STM32_Value_line_devices, 
 375:Libraries/STM32F10x_StdPeriph_Driver/src/stm32f10x_rcc.c ****   *   this parameter can be one of the following values:
 376:Libraries/STM32F10x_StdPeriph_Driver/src/stm32f10x_rcc.c ****   *     @arg RCC_PLLSource_HSI_Div2: HSI oscillator clock divided by 2 selected as PLL clock entry
 377:Libraries/STM32F10x_StdPeriph_Driver/src/stm32f10x_rcc.c ****   *     @arg RCC_PLLSource_PREDIV1: PREDIV1 clock selected as PLL clock entry
 378:Libraries/STM32F10x_StdPeriph_Driver/src/stm32f10x_rcc.c ****   *   For @b other_STM32_devices, this parameter can be one of the following values:
 379:Libraries/STM32F10x_StdPeriph_Driver/src/stm32f10x_rcc.c ****   *     @arg RCC_PLLSource_HSI_Div2: HSI oscillator clock divided by 2 selected as PLL clock entry
 380:Libraries/STM32F10x_StdPeriph_Driver/src/stm32f10x_rcc.c ****   *     @arg RCC_PLLSource_HSE_Div1: HSE oscillator clock selected as PLL clock entry
 381:Libraries/STM32F10x_StdPeriph_Driver/src/stm32f10x_rcc.c ****   *     @arg RCC_PLLSource_HSE_Div2: HSE oscillator clock divided by 2 selected as PLL clock entry 
 382:Libraries/STM32F10x_StdPeriph_Driver/src/stm32f10x_rcc.c ****   * @param  RCC_PLLMul: specifies the PLL multiplication factor.
 383:Libraries/STM32F10x_StdPeriph_Driver/src/stm32f10x_rcc.c ****   *   For @b STM32_Connectivity_line_devices, this parameter can be RCC_PLLMul_x where x:{[4,9], 6_
 384:Libraries/STM32F10x_StdPeriph_Driver/src/stm32f10x_rcc.c ****   *   For @b other_STM32_devices, this parameter can be RCC_PLLMul_x where x:[2,16]  
 385:Libraries/STM32F10x_StdPeriph_Driver/src/stm32f10x_rcc.c ****   * @retval None
 386:Libraries/STM32F10x_StdPeriph_Driver/src/stm32f10x_rcc.c ****   */
 387:Libraries/STM32F10x_StdPeriph_Driver/src/stm32f10x_rcc.c **** void RCC_PLLConfig(uint32_t RCC_PLLSource, uint32_t RCC_PLLMul)
 388:Libraries/STM32F10x_StdPeriph_Driver/src/stm32f10x_rcc.c **** {
 389:Libraries/STM32F10x_StdPeriph_Driver/src/stm32f10x_rcc.c ****   uint32_t tmpreg = 0;
 390:Libraries/STM32F10x_StdPeriph_Driver/src/stm32f10x_rcc.c **** 
 391:Libraries/STM32F10x_StdPeriph_Driver/src/stm32f10x_rcc.c ****   /* Check the parameters */
 392:Libraries/STM32F10x_StdPeriph_Driver/src/stm32f10x_rcc.c ****   assert_param(IS_RCC_PLL_SOURCE(RCC_PLLSource));
 393:Libraries/STM32F10x_StdPeriph_Driver/src/stm32f10x_rcc.c ****   assert_param(IS_RCC_PLL_MUL(RCC_PLLMul));
 394:Libraries/STM32F10x_StdPeriph_Driver/src/stm32f10x_rcc.c **** 
 395:Libraries/STM32F10x_StdPeriph_Driver/src/stm32f10x_rcc.c ****   tmpreg = RCC->CFGR;
 396:Libraries/STM32F10x_StdPeriph_Driver/src/stm32f10x_rcc.c ****   /* Clear PLLSRC, PLLXTPRE and PLLMUL[3:0] bits */
 397:Libraries/STM32F10x_StdPeriph_Driver/src/stm32f10x_rcc.c ****   tmpreg &= CFGR_PLL_Mask;
 398:Libraries/STM32F10x_StdPeriph_Driver/src/stm32f10x_rcc.c ****   /* Set the PLL configuration bits */
 399:Libraries/STM32F10x_StdPeriph_Driver/src/stm32f10x_rcc.c ****   tmpreg |= RCC_PLLSource | RCC_PLLMul;
 400:Libraries/STM32F10x_StdPeriph_Driver/src/stm32f10x_rcc.c ****   /* Store the new value */
 401:Libraries/STM32F10x_StdPeriph_Driver/src/stm32f10x_rcc.c ****   RCC->CFGR = tmpreg;
 402:Libraries/STM32F10x_StdPeriph_Driver/src/stm32f10x_rcc.c **** }
 403:Libraries/STM32F10x_StdPeriph_Driver/src/stm32f10x_rcc.c **** 
 404:Libraries/STM32F10x_StdPeriph_Driver/src/stm32f10x_rcc.c **** /**
 405:Libraries/STM32F10x_StdPeriph_Driver/src/stm32f10x_rcc.c ****   * @brief  Enables or disables the PLL.
 406:Libraries/STM32F10x_StdPeriph_Driver/src/stm32f10x_rcc.c ****   * @note   The PLL can not be disabled if it is used as system clock.
 407:Libraries/STM32F10x_StdPeriph_Driver/src/stm32f10x_rcc.c ****   * @param  NewState: new state of the PLL. This parameter can be: ENABLE or DISABLE.
 408:Libraries/STM32F10x_StdPeriph_Driver/src/stm32f10x_rcc.c ****   * @retval None
 409:Libraries/STM32F10x_StdPeriph_Driver/src/stm32f10x_rcc.c ****   */
 410:Libraries/STM32F10x_StdPeriph_Driver/src/stm32f10x_rcc.c **** void RCC_PLLCmd(FunctionalState NewState)
 411:Libraries/STM32F10x_StdPeriph_Driver/src/stm32f10x_rcc.c **** {
 412:Libraries/STM32F10x_StdPeriph_Driver/src/stm32f10x_rcc.c ****   /* Check the parameters */
 413:Libraries/STM32F10x_StdPeriph_Driver/src/stm32f10x_rcc.c ****   assert_param(IS_FUNCTIONAL_STATE(NewState));
 414:Libraries/STM32F10x_StdPeriph_Driver/src/stm32f10x_rcc.c **** 
 415:Libraries/STM32F10x_StdPeriph_Driver/src/stm32f10x_rcc.c ****   *(__IO uint32_t *) CR_PLLON_BB = (uint32_t)NewState;
 416:Libraries/STM32F10x_StdPeriph_Driver/src/stm32f10x_rcc.c **** }
 417:Libraries/STM32F10x_StdPeriph_Driver/src/stm32f10x_rcc.c **** 
 418:Libraries/STM32F10x_StdPeriph_Driver/src/stm32f10x_rcc.c **** #if defined (STM32F10X_LD_VL) || defined (STM32F10X_MD_VL) || defined (STM32F10X_CL)
 419:Libraries/STM32F10x_StdPeriph_Driver/src/stm32f10x_rcc.c **** /**
 420:Libraries/STM32F10x_StdPeriph_Driver/src/stm32f10x_rcc.c ****   * @brief  Configures the PREDIV1 division factor.
 421:Libraries/STM32F10x_StdPeriph_Driver/src/stm32f10x_rcc.c ****   * @note 
 422:Libraries/STM32F10x_StdPeriph_Driver/src/stm32f10x_rcc.c ****   *   - This function must be used only when the PLL is disabled.
 423:Libraries/STM32F10x_StdPeriph_Driver/src/stm32f10x_rcc.c ****   *   - This function applies only to STM32 Connectivity line and Value line 
 424:Libraries/STM32F10x_StdPeriph_Driver/src/stm32f10x_rcc.c ****   *     devices.
 425:Libraries/STM32F10x_StdPeriph_Driver/src/stm32f10x_rcc.c ****   * @param  RCC_PREDIV1_Source: specifies the PREDIV1 clock source.
 426:Libraries/STM32F10x_StdPeriph_Driver/src/stm32f10x_rcc.c ****   *   This parameter can be one of the following values:
 427:Libraries/STM32F10x_StdPeriph_Driver/src/stm32f10x_rcc.c ****   *     @arg RCC_PREDIV1_Source_HSE: HSE selected as PREDIV1 clock
 428:Libraries/STM32F10x_StdPeriph_Driver/src/stm32f10x_rcc.c ****   *     @arg RCC_PREDIV1_Source_PLL2: PLL2 selected as PREDIV1 clock
 429:Libraries/STM32F10x_StdPeriph_Driver/src/stm32f10x_rcc.c ****   * @note 
 430:Libraries/STM32F10x_StdPeriph_Driver/src/stm32f10x_rcc.c ****   *   For @b STM32_Value_line_devices this parameter is always RCC_PREDIV1_Source_HSE  
 431:Libraries/STM32F10x_StdPeriph_Driver/src/stm32f10x_rcc.c ****   * @param  RCC_PREDIV1_Div: specifies the PREDIV1 clock division factor.
 432:Libraries/STM32F10x_StdPeriph_Driver/src/stm32f10x_rcc.c ****   *   This parameter can be RCC_PREDIV1_Divx where x:[1,16]
 433:Libraries/STM32F10x_StdPeriph_Driver/src/stm32f10x_rcc.c ****   * @retval None
 434:Libraries/STM32F10x_StdPeriph_Driver/src/stm32f10x_rcc.c ****   */
 435:Libraries/STM32F10x_StdPeriph_Driver/src/stm32f10x_rcc.c **** void RCC_PREDIV1Config(uint32_t RCC_PREDIV1_Source, uint32_t RCC_PREDIV1_Div)
 436:Libraries/STM32F10x_StdPeriph_Driver/src/stm32f10x_rcc.c **** {
 437:Libraries/STM32F10x_StdPeriph_Driver/src/stm32f10x_rcc.c ****   uint32_t tmpreg = 0;
 438:Libraries/STM32F10x_StdPeriph_Driver/src/stm32f10x_rcc.c ****   
 439:Libraries/STM32F10x_StdPeriph_Driver/src/stm32f10x_rcc.c ****   /* Check the parameters */
 440:Libraries/STM32F10x_StdPeriph_Driver/src/stm32f10x_rcc.c ****   assert_param(IS_RCC_PREDIV1_SOURCE(RCC_PREDIV1_Source));
 441:Libraries/STM32F10x_StdPeriph_Driver/src/stm32f10x_rcc.c ****   assert_param(IS_RCC_PREDIV1(RCC_PREDIV1_Div));
 442:Libraries/STM32F10x_StdPeriph_Driver/src/stm32f10x_rcc.c **** 
 443:Libraries/STM32F10x_StdPeriph_Driver/src/stm32f10x_rcc.c ****   tmpreg = RCC->CFGR2;
 444:Libraries/STM32F10x_StdPeriph_Driver/src/stm32f10x_rcc.c ****   /* Clear PREDIV1[3:0] and PREDIV1SRC bits */
 445:Libraries/STM32F10x_StdPeriph_Driver/src/stm32f10x_rcc.c ****   tmpreg &= ~(CFGR2_PREDIV1 | CFGR2_PREDIV1SRC);
 446:Libraries/STM32F10x_StdPeriph_Driver/src/stm32f10x_rcc.c ****   /* Set the PREDIV1 clock source and division factor */
 447:Libraries/STM32F10x_StdPeriph_Driver/src/stm32f10x_rcc.c ****   tmpreg |= RCC_PREDIV1_Source | RCC_PREDIV1_Div ;
 448:Libraries/STM32F10x_StdPeriph_Driver/src/stm32f10x_rcc.c ****   /* Store the new value */
 449:Libraries/STM32F10x_StdPeriph_Driver/src/stm32f10x_rcc.c ****   RCC->CFGR2 = tmpreg;
 450:Libraries/STM32F10x_StdPeriph_Driver/src/stm32f10x_rcc.c **** }
 451:Libraries/STM32F10x_StdPeriph_Driver/src/stm32f10x_rcc.c **** #endif
 452:Libraries/STM32F10x_StdPeriph_Driver/src/stm32f10x_rcc.c **** 
 453:Libraries/STM32F10x_StdPeriph_Driver/src/stm32f10x_rcc.c **** #ifdef STM32F10X_CL
 454:Libraries/STM32F10x_StdPeriph_Driver/src/stm32f10x_rcc.c **** /**
 455:Libraries/STM32F10x_StdPeriph_Driver/src/stm32f10x_rcc.c ****   * @brief  Configures the PREDIV2 division factor.
 456:Libraries/STM32F10x_StdPeriph_Driver/src/stm32f10x_rcc.c ****   * @note 
 457:Libraries/STM32F10x_StdPeriph_Driver/src/stm32f10x_rcc.c ****   *   - This function must be used only when both PLL2 and PLL3 are disabled.
 458:Libraries/STM32F10x_StdPeriph_Driver/src/stm32f10x_rcc.c ****   *   - This function applies only to STM32 Connectivity line devices.
 459:Libraries/STM32F10x_StdPeriph_Driver/src/stm32f10x_rcc.c ****   * @param  RCC_PREDIV2_Div: specifies the PREDIV2 clock division factor.
 460:Libraries/STM32F10x_StdPeriph_Driver/src/stm32f10x_rcc.c ****   *   This parameter can be RCC_PREDIV2_Divx where x:[1,16]
 461:Libraries/STM32F10x_StdPeriph_Driver/src/stm32f10x_rcc.c ****   * @retval None
 462:Libraries/STM32F10x_StdPeriph_Driver/src/stm32f10x_rcc.c ****   */
 463:Libraries/STM32F10x_StdPeriph_Driver/src/stm32f10x_rcc.c **** void RCC_PREDIV2Config(uint32_t RCC_PREDIV2_Div)
 464:Libraries/STM32F10x_StdPeriph_Driver/src/stm32f10x_rcc.c **** {
 465:Libraries/STM32F10x_StdPeriph_Driver/src/stm32f10x_rcc.c ****   uint32_t tmpreg = 0;
 466:Libraries/STM32F10x_StdPeriph_Driver/src/stm32f10x_rcc.c **** 
 467:Libraries/STM32F10x_StdPeriph_Driver/src/stm32f10x_rcc.c ****   /* Check the parameters */
 468:Libraries/STM32F10x_StdPeriph_Driver/src/stm32f10x_rcc.c ****   assert_param(IS_RCC_PREDIV2(RCC_PREDIV2_Div));
 469:Libraries/STM32F10x_StdPeriph_Driver/src/stm32f10x_rcc.c **** 
 470:Libraries/STM32F10x_StdPeriph_Driver/src/stm32f10x_rcc.c ****   tmpreg = RCC->CFGR2;
 471:Libraries/STM32F10x_StdPeriph_Driver/src/stm32f10x_rcc.c ****   /* Clear PREDIV2[3:0] bits */
 472:Libraries/STM32F10x_StdPeriph_Driver/src/stm32f10x_rcc.c ****   tmpreg &= ~CFGR2_PREDIV2;
 473:Libraries/STM32F10x_StdPeriph_Driver/src/stm32f10x_rcc.c ****   /* Set the PREDIV2 division factor */
 474:Libraries/STM32F10x_StdPeriph_Driver/src/stm32f10x_rcc.c ****   tmpreg |= RCC_PREDIV2_Div;
 475:Libraries/STM32F10x_StdPeriph_Driver/src/stm32f10x_rcc.c ****   /* Store the new value */
 476:Libraries/STM32F10x_StdPeriph_Driver/src/stm32f10x_rcc.c ****   RCC->CFGR2 = tmpreg;
 477:Libraries/STM32F10x_StdPeriph_Driver/src/stm32f10x_rcc.c **** }
 478:Libraries/STM32F10x_StdPeriph_Driver/src/stm32f10x_rcc.c **** 
 479:Libraries/STM32F10x_StdPeriph_Driver/src/stm32f10x_rcc.c **** /**
 480:Libraries/STM32F10x_StdPeriph_Driver/src/stm32f10x_rcc.c ****   * @brief  Configures the PLL2 multiplication factor.
 481:Libraries/STM32F10x_StdPeriph_Driver/src/stm32f10x_rcc.c ****   * @note
 482:Libraries/STM32F10x_StdPeriph_Driver/src/stm32f10x_rcc.c ****   *   - This function must be used only when the PLL2 is disabled.
 483:Libraries/STM32F10x_StdPeriph_Driver/src/stm32f10x_rcc.c ****   *   - This function applies only to STM32 Connectivity line devices.
 484:Libraries/STM32F10x_StdPeriph_Driver/src/stm32f10x_rcc.c ****   * @param  RCC_PLL2Mul: specifies the PLL2 multiplication factor.
 485:Libraries/STM32F10x_StdPeriph_Driver/src/stm32f10x_rcc.c ****   *   This parameter can be RCC_PLL2Mul_x where x:{[8,14], 16, 20}
 486:Libraries/STM32F10x_StdPeriph_Driver/src/stm32f10x_rcc.c ****   * @retval None
 487:Libraries/STM32F10x_StdPeriph_Driver/src/stm32f10x_rcc.c ****   */
 488:Libraries/STM32F10x_StdPeriph_Driver/src/stm32f10x_rcc.c **** void RCC_PLL2Config(uint32_t RCC_PLL2Mul)
 489:Libraries/STM32F10x_StdPeriph_Driver/src/stm32f10x_rcc.c **** {
 490:Libraries/STM32F10x_StdPeriph_Driver/src/stm32f10x_rcc.c ****   uint32_t tmpreg = 0;
 491:Libraries/STM32F10x_StdPeriph_Driver/src/stm32f10x_rcc.c **** 
 492:Libraries/STM32F10x_StdPeriph_Driver/src/stm32f10x_rcc.c ****   /* Check the parameters */
 493:Libraries/STM32F10x_StdPeriph_Driver/src/stm32f10x_rcc.c ****   assert_param(IS_RCC_PLL2_MUL(RCC_PLL2Mul));
 494:Libraries/STM32F10x_StdPeriph_Driver/src/stm32f10x_rcc.c **** 
 495:Libraries/STM32F10x_StdPeriph_Driver/src/stm32f10x_rcc.c ****   tmpreg = RCC->CFGR2;
 496:Libraries/STM32F10x_StdPeriph_Driver/src/stm32f10x_rcc.c ****   /* Clear PLL2Mul[3:0] bits */
 497:Libraries/STM32F10x_StdPeriph_Driver/src/stm32f10x_rcc.c ****   tmpreg &= ~CFGR2_PLL2MUL;
 498:Libraries/STM32F10x_StdPeriph_Driver/src/stm32f10x_rcc.c ****   /* Set the PLL2 configuration bits */
 499:Libraries/STM32F10x_StdPeriph_Driver/src/stm32f10x_rcc.c ****   tmpreg |= RCC_PLL2Mul;
 500:Libraries/STM32F10x_StdPeriph_Driver/src/stm32f10x_rcc.c ****   /* Store the new value */
 501:Libraries/STM32F10x_StdPeriph_Driver/src/stm32f10x_rcc.c ****   RCC->CFGR2 = tmpreg;
 502:Libraries/STM32F10x_StdPeriph_Driver/src/stm32f10x_rcc.c **** }
 503:Libraries/STM32F10x_StdPeriph_Driver/src/stm32f10x_rcc.c **** 
 504:Libraries/STM32F10x_StdPeriph_Driver/src/stm32f10x_rcc.c **** 
 505:Libraries/STM32F10x_StdPeriph_Driver/src/stm32f10x_rcc.c **** /**
 506:Libraries/STM32F10x_StdPeriph_Driver/src/stm32f10x_rcc.c ****   * @brief  Enables or disables the PLL2.
 507:Libraries/STM32F10x_StdPeriph_Driver/src/stm32f10x_rcc.c ****   * @note 
 508:Libraries/STM32F10x_StdPeriph_Driver/src/stm32f10x_rcc.c ****   *   - The PLL2 can not be disabled if it is used indirectly as system clock
 509:Libraries/STM32F10x_StdPeriph_Driver/src/stm32f10x_rcc.c ****   *     (i.e. it is used as PLL clock entry that is used as System clock).
 510:Libraries/STM32F10x_StdPeriph_Driver/src/stm32f10x_rcc.c ****   *   - This function applies only to STM32 Connectivity line devices.
 511:Libraries/STM32F10x_StdPeriph_Driver/src/stm32f10x_rcc.c ****   * @param  NewState: new state of the PLL2. This parameter can be: ENABLE or DISABLE.
 512:Libraries/STM32F10x_StdPeriph_Driver/src/stm32f10x_rcc.c ****   * @retval None
 513:Libraries/STM32F10x_StdPeriph_Driver/src/stm32f10x_rcc.c ****   */
 514:Libraries/STM32F10x_StdPeriph_Driver/src/stm32f10x_rcc.c **** void RCC_PLL2Cmd(FunctionalState NewState)
 515:Libraries/STM32F10x_StdPeriph_Driver/src/stm32f10x_rcc.c **** {
 516:Libraries/STM32F10x_StdPeriph_Driver/src/stm32f10x_rcc.c ****   /* Check the parameters */
 517:Libraries/STM32F10x_StdPeriph_Driver/src/stm32f10x_rcc.c ****   assert_param(IS_FUNCTIONAL_STATE(NewState));
 518:Libraries/STM32F10x_StdPeriph_Driver/src/stm32f10x_rcc.c **** 
 519:Libraries/STM32F10x_StdPeriph_Driver/src/stm32f10x_rcc.c ****   *(__IO uint32_t *) CR_PLL2ON_BB = (uint32_t)NewState;
 520:Libraries/STM32F10x_StdPeriph_Driver/src/stm32f10x_rcc.c **** }
 521:Libraries/STM32F10x_StdPeriph_Driver/src/stm32f10x_rcc.c **** 
 522:Libraries/STM32F10x_StdPeriph_Driver/src/stm32f10x_rcc.c **** 
 523:Libraries/STM32F10x_StdPeriph_Driver/src/stm32f10x_rcc.c **** /**
 524:Libraries/STM32F10x_StdPeriph_Driver/src/stm32f10x_rcc.c ****   * @brief  Configures the PLL3 multiplication factor.
 525:Libraries/STM32F10x_StdPeriph_Driver/src/stm32f10x_rcc.c ****   * @note 
 526:Libraries/STM32F10x_StdPeriph_Driver/src/stm32f10x_rcc.c ****   *   - This function must be used only when the PLL3 is disabled.
 527:Libraries/STM32F10x_StdPeriph_Driver/src/stm32f10x_rcc.c ****   *   - This function applies only to STM32 Connectivity line devices.
 528:Libraries/STM32F10x_StdPeriph_Driver/src/stm32f10x_rcc.c ****   * @param  RCC_PLL3Mul: specifies the PLL3 multiplication factor.
 529:Libraries/STM32F10x_StdPeriph_Driver/src/stm32f10x_rcc.c ****   *   This parameter can be RCC_PLL3Mul_x where x:{[8,14], 16, 20}
 530:Libraries/STM32F10x_StdPeriph_Driver/src/stm32f10x_rcc.c ****   * @retval None
 531:Libraries/STM32F10x_StdPeriph_Driver/src/stm32f10x_rcc.c ****   */
 532:Libraries/STM32F10x_StdPeriph_Driver/src/stm32f10x_rcc.c **** void RCC_PLL3Config(uint32_t RCC_PLL3Mul)
 533:Libraries/STM32F10x_StdPeriph_Driver/src/stm32f10x_rcc.c **** {
 534:Libraries/STM32F10x_StdPeriph_Driver/src/stm32f10x_rcc.c ****   uint32_t tmpreg = 0;
 535:Libraries/STM32F10x_StdPeriph_Driver/src/stm32f10x_rcc.c **** 
 536:Libraries/STM32F10x_StdPeriph_Driver/src/stm32f10x_rcc.c ****   /* Check the parameters */
 537:Libraries/STM32F10x_StdPeriph_Driver/src/stm32f10x_rcc.c ****   assert_param(IS_RCC_PLL3_MUL(RCC_PLL3Mul));
 538:Libraries/STM32F10x_StdPeriph_Driver/src/stm32f10x_rcc.c **** 
 539:Libraries/STM32F10x_StdPeriph_Driver/src/stm32f10x_rcc.c ****   tmpreg = RCC->CFGR2;
 540:Libraries/STM32F10x_StdPeriph_Driver/src/stm32f10x_rcc.c ****   /* Clear PLL3Mul[3:0] bits */
 541:Libraries/STM32F10x_StdPeriph_Driver/src/stm32f10x_rcc.c ****   tmpreg &= ~CFGR2_PLL3MUL;
 542:Libraries/STM32F10x_StdPeriph_Driver/src/stm32f10x_rcc.c ****   /* Set the PLL3 configuration bits */
 543:Libraries/STM32F10x_StdPeriph_Driver/src/stm32f10x_rcc.c ****   tmpreg |= RCC_PLL3Mul;
 544:Libraries/STM32F10x_StdPeriph_Driver/src/stm32f10x_rcc.c ****   /* Store the new value */
 545:Libraries/STM32F10x_StdPeriph_Driver/src/stm32f10x_rcc.c ****   RCC->CFGR2 = tmpreg;
 546:Libraries/STM32F10x_StdPeriph_Driver/src/stm32f10x_rcc.c **** }
 547:Libraries/STM32F10x_StdPeriph_Driver/src/stm32f10x_rcc.c **** 
 548:Libraries/STM32F10x_StdPeriph_Driver/src/stm32f10x_rcc.c **** 
 549:Libraries/STM32F10x_StdPeriph_Driver/src/stm32f10x_rcc.c **** /**
 550:Libraries/STM32F10x_StdPeriph_Driver/src/stm32f10x_rcc.c ****   * @brief  Enables or disables the PLL3.
 551:Libraries/STM32F10x_StdPeriph_Driver/src/stm32f10x_rcc.c ****   * @note   This function applies only to STM32 Connectivity line devices.
 552:Libraries/STM32F10x_StdPeriph_Driver/src/stm32f10x_rcc.c ****   * @param  NewState: new state of the PLL3. This parameter can be: ENABLE or DISABLE.
 553:Libraries/STM32F10x_StdPeriph_Driver/src/stm32f10x_rcc.c ****   * @retval None
 554:Libraries/STM32F10x_StdPeriph_Driver/src/stm32f10x_rcc.c ****   */
 555:Libraries/STM32F10x_StdPeriph_Driver/src/stm32f10x_rcc.c **** void RCC_PLL3Cmd(FunctionalState NewState)
 556:Libraries/STM32F10x_StdPeriph_Driver/src/stm32f10x_rcc.c **** {
 557:Libraries/STM32F10x_StdPeriph_Driver/src/stm32f10x_rcc.c ****   /* Check the parameters */
 558:Libraries/STM32F10x_StdPeriph_Driver/src/stm32f10x_rcc.c **** 
 559:Libraries/STM32F10x_StdPeriph_Driver/src/stm32f10x_rcc.c ****   assert_param(IS_FUNCTIONAL_STATE(NewState));
 560:Libraries/STM32F10x_StdPeriph_Driver/src/stm32f10x_rcc.c ****   *(__IO uint32_t *) CR_PLL3ON_BB = (uint32_t)NewState;
 561:Libraries/STM32F10x_StdPeriph_Driver/src/stm32f10x_rcc.c **** }
 562:Libraries/STM32F10x_StdPeriph_Driver/src/stm32f10x_rcc.c **** #endif /* STM32F10X_CL */
 563:Libraries/STM32F10x_StdPeriph_Driver/src/stm32f10x_rcc.c **** 
 564:Libraries/STM32F10x_StdPeriph_Driver/src/stm32f10x_rcc.c **** /**
 565:Libraries/STM32F10x_StdPeriph_Driver/src/stm32f10x_rcc.c ****   * @brief  Configures the system clock (SYSCLK).
 566:Libraries/STM32F10x_StdPeriph_Driver/src/stm32f10x_rcc.c ****   * @param  RCC_SYSCLKSource: specifies the clock source used as system clock.
 567:Libraries/STM32F10x_StdPeriph_Driver/src/stm32f10x_rcc.c ****   *   This parameter can be one of the following values:
 568:Libraries/STM32F10x_StdPeriph_Driver/src/stm32f10x_rcc.c ****   *     @arg RCC_SYSCLKSource_HSI: HSI selected as system clock
 569:Libraries/STM32F10x_StdPeriph_Driver/src/stm32f10x_rcc.c ****   *     @arg RCC_SYSCLKSource_HSE: HSE selected as system clock
 570:Libraries/STM32F10x_StdPeriph_Driver/src/stm32f10x_rcc.c ****   *     @arg RCC_SYSCLKSource_PLLCLK: PLL selected as system clock
 571:Libraries/STM32F10x_StdPeriph_Driver/src/stm32f10x_rcc.c ****   * @retval None
 572:Libraries/STM32F10x_StdPeriph_Driver/src/stm32f10x_rcc.c ****   */
 573:Libraries/STM32F10x_StdPeriph_Driver/src/stm32f10x_rcc.c **** void RCC_SYSCLKConfig(uint32_t RCC_SYSCLKSource)
 574:Libraries/STM32F10x_StdPeriph_Driver/src/stm32f10x_rcc.c **** {
 575:Libraries/STM32F10x_StdPeriph_Driver/src/stm32f10x_rcc.c ****   uint32_t tmpreg = 0;
 576:Libraries/STM32F10x_StdPeriph_Driver/src/stm32f10x_rcc.c ****   /* Check the parameters */
 577:Libraries/STM32F10x_StdPeriph_Driver/src/stm32f10x_rcc.c ****   assert_param(IS_RCC_SYSCLK_SOURCE(RCC_SYSCLKSource));
 578:Libraries/STM32F10x_StdPeriph_Driver/src/stm32f10x_rcc.c ****   tmpreg = RCC->CFGR;
 579:Libraries/STM32F10x_StdPeriph_Driver/src/stm32f10x_rcc.c ****   /* Clear SW[1:0] bits */
 580:Libraries/STM32F10x_StdPeriph_Driver/src/stm32f10x_rcc.c ****   tmpreg &= CFGR_SW_Mask;
 581:Libraries/STM32F10x_StdPeriph_Driver/src/stm32f10x_rcc.c ****   /* Set SW[1:0] bits according to RCC_SYSCLKSource value */
 582:Libraries/STM32F10x_StdPeriph_Driver/src/stm32f10x_rcc.c ****   tmpreg |= RCC_SYSCLKSource;
 583:Libraries/STM32F10x_StdPeriph_Driver/src/stm32f10x_rcc.c ****   /* Store the new value */
 584:Libraries/STM32F10x_StdPeriph_Driver/src/stm32f10x_rcc.c ****   RCC->CFGR = tmpreg;
 585:Libraries/STM32F10x_StdPeriph_Driver/src/stm32f10x_rcc.c **** }
 586:Libraries/STM32F10x_StdPeriph_Driver/src/stm32f10x_rcc.c **** 
 587:Libraries/STM32F10x_StdPeriph_Driver/src/stm32f10x_rcc.c **** /**
 588:Libraries/STM32F10x_StdPeriph_Driver/src/stm32f10x_rcc.c ****   * @brief  Returns the clock source used as system clock.
 589:Libraries/STM32F10x_StdPeriph_Driver/src/stm32f10x_rcc.c ****   * @param  None
 590:Libraries/STM32F10x_StdPeriph_Driver/src/stm32f10x_rcc.c ****   * @retval The clock source used as system clock. The returned value can
 591:Libraries/STM32F10x_StdPeriph_Driver/src/stm32f10x_rcc.c ****   *   be one of the following:
 592:Libraries/STM32F10x_StdPeriph_Driver/src/stm32f10x_rcc.c ****   *     - 0x00: HSI used as system clock
 593:Libraries/STM32F10x_StdPeriph_Driver/src/stm32f10x_rcc.c ****   *     - 0x04: HSE used as system clock
 594:Libraries/STM32F10x_StdPeriph_Driver/src/stm32f10x_rcc.c ****   *     - 0x08: PLL used as system clock
 595:Libraries/STM32F10x_StdPeriph_Driver/src/stm32f10x_rcc.c ****   */
 596:Libraries/STM32F10x_StdPeriph_Driver/src/stm32f10x_rcc.c **** uint8_t RCC_GetSYSCLKSource(void)
 597:Libraries/STM32F10x_StdPeriph_Driver/src/stm32f10x_rcc.c **** {
 598:Libraries/STM32F10x_StdPeriph_Driver/src/stm32f10x_rcc.c ****   return ((uint8_t)(RCC->CFGR & CFGR_SWS_Mask));
 599:Libraries/STM32F10x_StdPeriph_Driver/src/stm32f10x_rcc.c **** }
 600:Libraries/STM32F10x_StdPeriph_Driver/src/stm32f10x_rcc.c **** 
 601:Libraries/STM32F10x_StdPeriph_Driver/src/stm32f10x_rcc.c **** /**
 602:Libraries/STM32F10x_StdPeriph_Driver/src/stm32f10x_rcc.c ****   * @brief  Configures the AHB clock (HCLK).
 603:Libraries/STM32F10x_StdPeriph_Driver/src/stm32f10x_rcc.c ****   * @param  RCC_SYSCLK: defines the AHB clock divider. This clock is derived from 
 604:Libraries/STM32F10x_StdPeriph_Driver/src/stm32f10x_rcc.c ****   *   the system clock (SYSCLK).
 605:Libraries/STM32F10x_StdPeriph_Driver/src/stm32f10x_rcc.c ****   *   This parameter can be one of the following values:
 606:Libraries/STM32F10x_StdPeriph_Driver/src/stm32f10x_rcc.c ****   *     @arg RCC_SYSCLK_Div1: AHB clock = SYSCLK
 607:Libraries/STM32F10x_StdPeriph_Driver/src/stm32f10x_rcc.c ****   *     @arg RCC_SYSCLK_Div2: AHB clock = SYSCLK/2
 608:Libraries/STM32F10x_StdPeriph_Driver/src/stm32f10x_rcc.c ****   *     @arg RCC_SYSCLK_Div4: AHB clock = SYSCLK/4
 609:Libraries/STM32F10x_StdPeriph_Driver/src/stm32f10x_rcc.c ****   *     @arg RCC_SYSCLK_Div8: AHB clock = SYSCLK/8
 610:Libraries/STM32F10x_StdPeriph_Driver/src/stm32f10x_rcc.c ****   *     @arg RCC_SYSCLK_Div16: AHB clock = SYSCLK/16
 611:Libraries/STM32F10x_StdPeriph_Driver/src/stm32f10x_rcc.c ****   *     @arg RCC_SYSCLK_Div64: AHB clock = SYSCLK/64
 612:Libraries/STM32F10x_StdPeriph_Driver/src/stm32f10x_rcc.c ****   *     @arg RCC_SYSCLK_Div128: AHB clock = SYSCLK/128
 613:Libraries/STM32F10x_StdPeriph_Driver/src/stm32f10x_rcc.c ****   *     @arg RCC_SYSCLK_Div256: AHB clock = SYSCLK/256
 614:Libraries/STM32F10x_StdPeriph_Driver/src/stm32f10x_rcc.c ****   *     @arg RCC_SYSCLK_Div512: AHB clock = SYSCLK/512
 615:Libraries/STM32F10x_StdPeriph_Driver/src/stm32f10x_rcc.c ****   * @retval None
 616:Libraries/STM32F10x_StdPeriph_Driver/src/stm32f10x_rcc.c ****   */
 617:Libraries/STM32F10x_StdPeriph_Driver/src/stm32f10x_rcc.c **** void RCC_HCLKConfig(uint32_t RCC_SYSCLK)
 618:Libraries/STM32F10x_StdPeriph_Driver/src/stm32f10x_rcc.c **** {
 619:Libraries/STM32F10x_StdPeriph_Driver/src/stm32f10x_rcc.c ****   uint32_t tmpreg = 0;
 620:Libraries/STM32F10x_StdPeriph_Driver/src/stm32f10x_rcc.c ****   /* Check the parameters */
 621:Libraries/STM32F10x_StdPeriph_Driver/src/stm32f10x_rcc.c ****   assert_param(IS_RCC_HCLK(RCC_SYSCLK));
 622:Libraries/STM32F10x_StdPeriph_Driver/src/stm32f10x_rcc.c ****   tmpreg = RCC->CFGR;
 623:Libraries/STM32F10x_StdPeriph_Driver/src/stm32f10x_rcc.c ****   /* Clear HPRE[3:0] bits */
 624:Libraries/STM32F10x_StdPeriph_Driver/src/stm32f10x_rcc.c ****   tmpreg &= CFGR_HPRE_Reset_Mask;
 625:Libraries/STM32F10x_StdPeriph_Driver/src/stm32f10x_rcc.c ****   /* Set HPRE[3:0] bits according to RCC_SYSCLK value */
 626:Libraries/STM32F10x_StdPeriph_Driver/src/stm32f10x_rcc.c ****   tmpreg |= RCC_SYSCLK;
 627:Libraries/STM32F10x_StdPeriph_Driver/src/stm32f10x_rcc.c ****   /* Store the new value */
 628:Libraries/STM32F10x_StdPeriph_Driver/src/stm32f10x_rcc.c ****   RCC->CFGR = tmpreg;
 629:Libraries/STM32F10x_StdPeriph_Driver/src/stm32f10x_rcc.c **** }
 630:Libraries/STM32F10x_StdPeriph_Driver/src/stm32f10x_rcc.c **** 
 631:Libraries/STM32F10x_StdPeriph_Driver/src/stm32f10x_rcc.c **** /**
 632:Libraries/STM32F10x_StdPeriph_Driver/src/stm32f10x_rcc.c ****   * @brief  Configures the Low Speed APB clock (PCLK1).
 633:Libraries/STM32F10x_StdPeriph_Driver/src/stm32f10x_rcc.c ****   * @param  RCC_HCLK: defines the APB1 clock divider. This clock is derived from 
 634:Libraries/STM32F10x_StdPeriph_Driver/src/stm32f10x_rcc.c ****   *   the AHB clock (HCLK).
 635:Libraries/STM32F10x_StdPeriph_Driver/src/stm32f10x_rcc.c ****   *   This parameter can be one of the following values:
 636:Libraries/STM32F10x_StdPeriph_Driver/src/stm32f10x_rcc.c ****   *     @arg RCC_HCLK_Div1: APB1 clock = HCLK
 637:Libraries/STM32F10x_StdPeriph_Driver/src/stm32f10x_rcc.c ****   *     @arg RCC_HCLK_Div2: APB1 clock = HCLK/2
 638:Libraries/STM32F10x_StdPeriph_Driver/src/stm32f10x_rcc.c ****   *     @arg RCC_HCLK_Div4: APB1 clock = HCLK/4
 639:Libraries/STM32F10x_StdPeriph_Driver/src/stm32f10x_rcc.c ****   *     @arg RCC_HCLK_Div8: APB1 clock = HCLK/8
 640:Libraries/STM32F10x_StdPeriph_Driver/src/stm32f10x_rcc.c ****   *     @arg RCC_HCLK_Div16: APB1 clock = HCLK/16
 641:Libraries/STM32F10x_StdPeriph_Driver/src/stm32f10x_rcc.c ****   * @retval None
 642:Libraries/STM32F10x_StdPeriph_Driver/src/stm32f10x_rcc.c ****   */
 643:Libraries/STM32F10x_StdPeriph_Driver/src/stm32f10x_rcc.c **** void RCC_PCLK1Config(uint32_t RCC_HCLK)
 644:Libraries/STM32F10x_StdPeriph_Driver/src/stm32f10x_rcc.c **** {
 645:Libraries/STM32F10x_StdPeriph_Driver/src/stm32f10x_rcc.c ****   uint32_t tmpreg = 0;
 646:Libraries/STM32F10x_StdPeriph_Driver/src/stm32f10x_rcc.c ****   /* Check the parameters */
 647:Libraries/STM32F10x_StdPeriph_Driver/src/stm32f10x_rcc.c ****   assert_param(IS_RCC_PCLK(RCC_HCLK));
 648:Libraries/STM32F10x_StdPeriph_Driver/src/stm32f10x_rcc.c ****   tmpreg = RCC->CFGR;
 649:Libraries/STM32F10x_StdPeriph_Driver/src/stm32f10x_rcc.c ****   /* Clear PPRE1[2:0] bits */
 650:Libraries/STM32F10x_StdPeriph_Driver/src/stm32f10x_rcc.c ****   tmpreg &= CFGR_PPRE1_Reset_Mask;
 651:Libraries/STM32F10x_StdPeriph_Driver/src/stm32f10x_rcc.c ****   /* Set PPRE1[2:0] bits according to RCC_HCLK value */
 652:Libraries/STM32F10x_StdPeriph_Driver/src/stm32f10x_rcc.c ****   tmpreg |= RCC_HCLK;
 653:Libraries/STM32F10x_StdPeriph_Driver/src/stm32f10x_rcc.c ****   /* Store the new value */
 654:Libraries/STM32F10x_StdPeriph_Driver/src/stm32f10x_rcc.c ****   RCC->CFGR = tmpreg;
 655:Libraries/STM32F10x_StdPeriph_Driver/src/stm32f10x_rcc.c **** }
 656:Libraries/STM32F10x_StdPeriph_Driver/src/stm32f10x_rcc.c **** 
 657:Libraries/STM32F10x_StdPeriph_Driver/src/stm32f10x_rcc.c **** /**
 658:Libraries/STM32F10x_StdPeriph_Driver/src/stm32f10x_rcc.c ****   * @brief  Configures the High Speed APB clock (PCLK2).
 659:Libraries/STM32F10x_StdPeriph_Driver/src/stm32f10x_rcc.c ****   * @param  RCC_HCLK: defines the APB2 clock divider. This clock is derived from 
 660:Libraries/STM32F10x_StdPeriph_Driver/src/stm32f10x_rcc.c ****   *   the AHB clock (HCLK).
 661:Libraries/STM32F10x_StdPeriph_Driver/src/stm32f10x_rcc.c ****   *   This parameter can be one of the following values:
 662:Libraries/STM32F10x_StdPeriph_Driver/src/stm32f10x_rcc.c ****   *     @arg RCC_HCLK_Div1: APB2 clock = HCLK
 663:Libraries/STM32F10x_StdPeriph_Driver/src/stm32f10x_rcc.c ****   *     @arg RCC_HCLK_Div2: APB2 clock = HCLK/2
 664:Libraries/STM32F10x_StdPeriph_Driver/src/stm32f10x_rcc.c ****   *     @arg RCC_HCLK_Div4: APB2 clock = HCLK/4
 665:Libraries/STM32F10x_StdPeriph_Driver/src/stm32f10x_rcc.c ****   *     @arg RCC_HCLK_Div8: APB2 clock = HCLK/8
 666:Libraries/STM32F10x_StdPeriph_Driver/src/stm32f10x_rcc.c ****   *     @arg RCC_HCLK_Div16: APB2 clock = HCLK/16
 667:Libraries/STM32F10x_StdPeriph_Driver/src/stm32f10x_rcc.c ****   * @retval None
 668:Libraries/STM32F10x_StdPeriph_Driver/src/stm32f10x_rcc.c ****   */
 669:Libraries/STM32F10x_StdPeriph_Driver/src/stm32f10x_rcc.c **** void RCC_PCLK2Config(uint32_t RCC_HCLK)
 670:Libraries/STM32F10x_StdPeriph_Driver/src/stm32f10x_rcc.c **** {
 671:Libraries/STM32F10x_StdPeriph_Driver/src/stm32f10x_rcc.c ****   uint32_t tmpreg = 0;
 672:Libraries/STM32F10x_StdPeriph_Driver/src/stm32f10x_rcc.c ****   /* Check the parameters */
 673:Libraries/STM32F10x_StdPeriph_Driver/src/stm32f10x_rcc.c ****   assert_param(IS_RCC_PCLK(RCC_HCLK));
 674:Libraries/STM32F10x_StdPeriph_Driver/src/stm32f10x_rcc.c ****   tmpreg = RCC->CFGR;
 675:Libraries/STM32F10x_StdPeriph_Driver/src/stm32f10x_rcc.c ****   /* Clear PPRE2[2:0] bits */
 676:Libraries/STM32F10x_StdPeriph_Driver/src/stm32f10x_rcc.c ****   tmpreg &= CFGR_PPRE2_Reset_Mask;
 677:Libraries/STM32F10x_StdPeriph_Driver/src/stm32f10x_rcc.c ****   /* Set PPRE2[2:0] bits according to RCC_HCLK value */
 678:Libraries/STM32F10x_StdPeriph_Driver/src/stm32f10x_rcc.c ****   tmpreg |= RCC_HCLK << 3;
 679:Libraries/STM32F10x_StdPeriph_Driver/src/stm32f10x_rcc.c ****   /* Store the new value */
 680:Libraries/STM32F10x_StdPeriph_Driver/src/stm32f10x_rcc.c ****   RCC->CFGR = tmpreg;
 681:Libraries/STM32F10x_StdPeriph_Driver/src/stm32f10x_rcc.c **** }
 682:Libraries/STM32F10x_StdPeriph_Driver/src/stm32f10x_rcc.c **** 
 683:Libraries/STM32F10x_StdPeriph_Driver/src/stm32f10x_rcc.c **** /**
 684:Libraries/STM32F10x_StdPeriph_Driver/src/stm32f10x_rcc.c ****   * @brief  Enables or disables the specified RCC interrupts.
 685:Libraries/STM32F10x_StdPeriph_Driver/src/stm32f10x_rcc.c ****   * @param  RCC_IT: specifies the RCC interrupt sources to be enabled or disabled.
 686:Libraries/STM32F10x_StdPeriph_Driver/src/stm32f10x_rcc.c ****   * 
 687:Libraries/STM32F10x_StdPeriph_Driver/src/stm32f10x_rcc.c ****   *   For @b STM32_Connectivity_line_devices, this parameter can be any combination
 688:Libraries/STM32F10x_StdPeriph_Driver/src/stm32f10x_rcc.c ****   *   of the following values        
 689:Libraries/STM32F10x_StdPeriph_Driver/src/stm32f10x_rcc.c ****   *     @arg RCC_IT_LSIRDY: LSI ready interrupt
 690:Libraries/STM32F10x_StdPeriph_Driver/src/stm32f10x_rcc.c ****   *     @arg RCC_IT_LSERDY: LSE ready interrupt
 691:Libraries/STM32F10x_StdPeriph_Driver/src/stm32f10x_rcc.c ****   *     @arg RCC_IT_HSIRDY: HSI ready interrupt
 692:Libraries/STM32F10x_StdPeriph_Driver/src/stm32f10x_rcc.c ****   *     @arg RCC_IT_HSERDY: HSE ready interrupt
 693:Libraries/STM32F10x_StdPeriph_Driver/src/stm32f10x_rcc.c ****   *     @arg RCC_IT_PLLRDY: PLL ready interrupt
 694:Libraries/STM32F10x_StdPeriph_Driver/src/stm32f10x_rcc.c ****   *     @arg RCC_IT_PLL2RDY: PLL2 ready interrupt
 695:Libraries/STM32F10x_StdPeriph_Driver/src/stm32f10x_rcc.c ****   *     @arg RCC_IT_PLL3RDY: PLL3 ready interrupt
 696:Libraries/STM32F10x_StdPeriph_Driver/src/stm32f10x_rcc.c ****   * 
 697:Libraries/STM32F10x_StdPeriph_Driver/src/stm32f10x_rcc.c ****   *   For @b other_STM32_devices, this parameter can be any combination of the 
 698:Libraries/STM32F10x_StdPeriph_Driver/src/stm32f10x_rcc.c ****   *   following values        
 699:Libraries/STM32F10x_StdPeriph_Driver/src/stm32f10x_rcc.c ****   *     @arg RCC_IT_LSIRDY: LSI ready interrupt
 700:Libraries/STM32F10x_StdPeriph_Driver/src/stm32f10x_rcc.c ****   *     @arg RCC_IT_LSERDY: LSE ready interrupt
 701:Libraries/STM32F10x_StdPeriph_Driver/src/stm32f10x_rcc.c ****   *     @arg RCC_IT_HSIRDY: HSI ready interrupt
 702:Libraries/STM32F10x_StdPeriph_Driver/src/stm32f10x_rcc.c ****   *     @arg RCC_IT_HSERDY: HSE ready interrupt
 703:Libraries/STM32F10x_StdPeriph_Driver/src/stm32f10x_rcc.c ****   *     @arg RCC_IT_PLLRDY: PLL ready interrupt
 704:Libraries/STM32F10x_StdPeriph_Driver/src/stm32f10x_rcc.c ****   *       
 705:Libraries/STM32F10x_StdPeriph_Driver/src/stm32f10x_rcc.c ****   * @param  NewState: new state of the specified RCC interrupts.
 706:Libraries/STM32F10x_StdPeriph_Driver/src/stm32f10x_rcc.c ****   *   This parameter can be: ENABLE or DISABLE.
 707:Libraries/STM32F10x_StdPeriph_Driver/src/stm32f10x_rcc.c ****   * @retval None
 708:Libraries/STM32F10x_StdPeriph_Driver/src/stm32f10x_rcc.c ****   */
 709:Libraries/STM32F10x_StdPeriph_Driver/src/stm32f10x_rcc.c **** void RCC_ITConfig(uint8_t RCC_IT, FunctionalState NewState)
 710:Libraries/STM32F10x_StdPeriph_Driver/src/stm32f10x_rcc.c **** {
 711:Libraries/STM32F10x_StdPeriph_Driver/src/stm32f10x_rcc.c ****   /* Check the parameters */
 712:Libraries/STM32F10x_StdPeriph_Driver/src/stm32f10x_rcc.c ****   assert_param(IS_RCC_IT(RCC_IT));
 713:Libraries/STM32F10x_StdPeriph_Driver/src/stm32f10x_rcc.c ****   assert_param(IS_FUNCTIONAL_STATE(NewState));
 714:Libraries/STM32F10x_StdPeriph_Driver/src/stm32f10x_rcc.c ****   if (NewState != DISABLE)
 715:Libraries/STM32F10x_StdPeriph_Driver/src/stm32f10x_rcc.c ****   {
 716:Libraries/STM32F10x_StdPeriph_Driver/src/stm32f10x_rcc.c ****     /* Perform Byte access to RCC_CIR bits to enable the selected interrupts */
 717:Libraries/STM32F10x_StdPeriph_Driver/src/stm32f10x_rcc.c ****     *(__IO uint8_t *) CIR_BYTE2_ADDRESS |= RCC_IT;
 718:Libraries/STM32F10x_StdPeriph_Driver/src/stm32f10x_rcc.c ****   }
 719:Libraries/STM32F10x_StdPeriph_Driver/src/stm32f10x_rcc.c ****   else
 720:Libraries/STM32F10x_StdPeriph_Driver/src/stm32f10x_rcc.c ****   {
 721:Libraries/STM32F10x_StdPeriph_Driver/src/stm32f10x_rcc.c ****     /* Perform Byte access to RCC_CIR bits to disable the selected interrupts */
 722:Libraries/STM32F10x_StdPeriph_Driver/src/stm32f10x_rcc.c ****     *(__IO uint8_t *) CIR_BYTE2_ADDRESS &= (uint8_t)~RCC_IT;
 723:Libraries/STM32F10x_StdPeriph_Driver/src/stm32f10x_rcc.c ****   }
 724:Libraries/STM32F10x_StdPeriph_Driver/src/stm32f10x_rcc.c **** }
 725:Libraries/STM32F10x_StdPeriph_Driver/src/stm32f10x_rcc.c **** 
 726:Libraries/STM32F10x_StdPeriph_Driver/src/stm32f10x_rcc.c **** #ifndef STM32F10X_CL
 727:Libraries/STM32F10x_StdPeriph_Driver/src/stm32f10x_rcc.c **** /**
 728:Libraries/STM32F10x_StdPeriph_Driver/src/stm32f10x_rcc.c ****   * @brief  Configures the USB clock (USBCLK).
 729:Libraries/STM32F10x_StdPeriph_Driver/src/stm32f10x_rcc.c ****   * @param  RCC_USBCLKSource: specifies the USB clock source. This clock is 
 730:Libraries/STM32F10x_StdPeriph_Driver/src/stm32f10x_rcc.c ****   *   derived from the PLL output.
 731:Libraries/STM32F10x_StdPeriph_Driver/src/stm32f10x_rcc.c ****   *   This parameter can be one of the following values:
 732:Libraries/STM32F10x_StdPeriph_Driver/src/stm32f10x_rcc.c ****   *     @arg RCC_USBCLKSource_PLLCLK_1Div5: PLL clock divided by 1,5 selected as USB 
 733:Libraries/STM32F10x_StdPeriph_Driver/src/stm32f10x_rcc.c ****   *                                     clock source
 734:Libraries/STM32F10x_StdPeriph_Driver/src/stm32f10x_rcc.c ****   *     @arg RCC_USBCLKSource_PLLCLK_Div1: PLL clock selected as USB clock source
 735:Libraries/STM32F10x_StdPeriph_Driver/src/stm32f10x_rcc.c ****   * @retval None
 736:Libraries/STM32F10x_StdPeriph_Driver/src/stm32f10x_rcc.c ****   */
 737:Libraries/STM32F10x_StdPeriph_Driver/src/stm32f10x_rcc.c **** void RCC_USBCLKConfig(uint32_t RCC_USBCLKSource)
 738:Libraries/STM32F10x_StdPeriph_Driver/src/stm32f10x_rcc.c **** {
 739:Libraries/STM32F10x_StdPeriph_Driver/src/stm32f10x_rcc.c ****   /* Check the parameters */
 740:Libraries/STM32F10x_StdPeriph_Driver/src/stm32f10x_rcc.c ****   assert_param(IS_RCC_USBCLK_SOURCE(RCC_USBCLKSource));
 741:Libraries/STM32F10x_StdPeriph_Driver/src/stm32f10x_rcc.c **** 
 742:Libraries/STM32F10x_StdPeriph_Driver/src/stm32f10x_rcc.c ****   *(__IO uint32_t *) CFGR_USBPRE_BB = RCC_USBCLKSource;
 743:Libraries/STM32F10x_StdPeriph_Driver/src/stm32f10x_rcc.c **** }
 744:Libraries/STM32F10x_StdPeriph_Driver/src/stm32f10x_rcc.c **** #else
 745:Libraries/STM32F10x_StdPeriph_Driver/src/stm32f10x_rcc.c **** /**
 746:Libraries/STM32F10x_StdPeriph_Driver/src/stm32f10x_rcc.c ****   * @brief  Configures the USB OTG FS clock (OTGFSCLK).
 747:Libraries/STM32F10x_StdPeriph_Driver/src/stm32f10x_rcc.c ****   *   This function applies only to STM32 Connectivity line devices.
 748:Libraries/STM32F10x_StdPeriph_Driver/src/stm32f10x_rcc.c ****   * @param  RCC_OTGFSCLKSource: specifies the USB OTG FS clock source.
 749:Libraries/STM32F10x_StdPeriph_Driver/src/stm32f10x_rcc.c ****   *   This clock is derived from the PLL output.
 750:Libraries/STM32F10x_StdPeriph_Driver/src/stm32f10x_rcc.c ****   *   This parameter can be one of the following values:
 751:Libraries/STM32F10x_StdPeriph_Driver/src/stm32f10x_rcc.c ****   *     @arg  RCC_OTGFSCLKSource_PLLVCO_Div3: PLL VCO clock divided by 2 selected as USB OTG FS clo
 752:Libraries/STM32F10x_StdPeriph_Driver/src/stm32f10x_rcc.c ****   *     @arg  RCC_OTGFSCLKSource_PLLVCO_Div2: PLL VCO clock divided by 2 selected as USB OTG FS clo
 753:Libraries/STM32F10x_StdPeriph_Driver/src/stm32f10x_rcc.c ****   * @retval None
 754:Libraries/STM32F10x_StdPeriph_Driver/src/stm32f10x_rcc.c ****   */
 755:Libraries/STM32F10x_StdPeriph_Driver/src/stm32f10x_rcc.c **** void RCC_OTGFSCLKConfig(uint32_t RCC_OTGFSCLKSource)
 756:Libraries/STM32F10x_StdPeriph_Driver/src/stm32f10x_rcc.c **** {
 757:Libraries/STM32F10x_StdPeriph_Driver/src/stm32f10x_rcc.c ****   /* Check the parameters */
 758:Libraries/STM32F10x_StdPeriph_Driver/src/stm32f10x_rcc.c ****   assert_param(IS_RCC_OTGFSCLK_SOURCE(RCC_OTGFSCLKSource));
 759:Libraries/STM32F10x_StdPeriph_Driver/src/stm32f10x_rcc.c **** 
 760:Libraries/STM32F10x_StdPeriph_Driver/src/stm32f10x_rcc.c ****   *(__IO uint32_t *) CFGR_OTGFSPRE_BB = RCC_OTGFSCLKSource;
 761:Libraries/STM32F10x_StdPeriph_Driver/src/stm32f10x_rcc.c **** }
 762:Libraries/STM32F10x_StdPeriph_Driver/src/stm32f10x_rcc.c **** #endif /* STM32F10X_CL */ 
 763:Libraries/STM32F10x_StdPeriph_Driver/src/stm32f10x_rcc.c **** 
 764:Libraries/STM32F10x_StdPeriph_Driver/src/stm32f10x_rcc.c **** /**
 765:Libraries/STM32F10x_StdPeriph_Driver/src/stm32f10x_rcc.c ****   * @brief  Configures the ADC clock (ADCCLK).
 766:Libraries/STM32F10x_StdPeriph_Driver/src/stm32f10x_rcc.c ****   * @param  RCC_PCLK2: defines the ADC clock divider. This clock is derived from 
 767:Libraries/STM32F10x_StdPeriph_Driver/src/stm32f10x_rcc.c ****   *   the APB2 clock (PCLK2).
 768:Libraries/STM32F10x_StdPeriph_Driver/src/stm32f10x_rcc.c ****   *   This parameter can be one of the following values:
 769:Libraries/STM32F10x_StdPeriph_Driver/src/stm32f10x_rcc.c ****   *     @arg RCC_PCLK2_Div2: ADC clock = PCLK2/2
 770:Libraries/STM32F10x_StdPeriph_Driver/src/stm32f10x_rcc.c ****   *     @arg RCC_PCLK2_Div4: ADC clock = PCLK2/4
 771:Libraries/STM32F10x_StdPeriph_Driver/src/stm32f10x_rcc.c ****   *     @arg RCC_PCLK2_Div6: ADC clock = PCLK2/6
 772:Libraries/STM32F10x_StdPeriph_Driver/src/stm32f10x_rcc.c ****   *     @arg RCC_PCLK2_Div8: ADC clock = PCLK2/8
 773:Libraries/STM32F10x_StdPeriph_Driver/src/stm32f10x_rcc.c ****   * @retval None
 774:Libraries/STM32F10x_StdPeriph_Driver/src/stm32f10x_rcc.c ****   */
 775:Libraries/STM32F10x_StdPeriph_Driver/src/stm32f10x_rcc.c **** void RCC_ADCCLKConfig(uint32_t RCC_PCLK2)
 776:Libraries/STM32F10x_StdPeriph_Driver/src/stm32f10x_rcc.c **** {
 777:Libraries/STM32F10x_StdPeriph_Driver/src/stm32f10x_rcc.c ****   uint32_t tmpreg = 0;
 778:Libraries/STM32F10x_StdPeriph_Driver/src/stm32f10x_rcc.c ****   /* Check the parameters */
 779:Libraries/STM32F10x_StdPeriph_Driver/src/stm32f10x_rcc.c ****   assert_param(IS_RCC_ADCCLK(RCC_PCLK2));
 780:Libraries/STM32F10x_StdPeriph_Driver/src/stm32f10x_rcc.c ****   tmpreg = RCC->CFGR;
 781:Libraries/STM32F10x_StdPeriph_Driver/src/stm32f10x_rcc.c ****   /* Clear ADCPRE[1:0] bits */
 782:Libraries/STM32F10x_StdPeriph_Driver/src/stm32f10x_rcc.c ****   tmpreg &= CFGR_ADCPRE_Reset_Mask;
 783:Libraries/STM32F10x_StdPeriph_Driver/src/stm32f10x_rcc.c ****   /* Set ADCPRE[1:0] bits according to RCC_PCLK2 value */
 784:Libraries/STM32F10x_StdPeriph_Driver/src/stm32f10x_rcc.c ****   tmpreg |= RCC_PCLK2;
 785:Libraries/STM32F10x_StdPeriph_Driver/src/stm32f10x_rcc.c ****   /* Store the new value */
 786:Libraries/STM32F10x_StdPeriph_Driver/src/stm32f10x_rcc.c ****   RCC->CFGR = tmpreg;
 787:Libraries/STM32F10x_StdPeriph_Driver/src/stm32f10x_rcc.c **** }
 788:Libraries/STM32F10x_StdPeriph_Driver/src/stm32f10x_rcc.c **** 
 789:Libraries/STM32F10x_StdPeriph_Driver/src/stm32f10x_rcc.c **** #ifdef STM32F10X_CL
 790:Libraries/STM32F10x_StdPeriph_Driver/src/stm32f10x_rcc.c **** /**
 791:Libraries/STM32F10x_StdPeriph_Driver/src/stm32f10x_rcc.c ****   * @brief  Configures the I2S2 clock source(I2S2CLK).
 792:Libraries/STM32F10x_StdPeriph_Driver/src/stm32f10x_rcc.c ****   * @note
 793:Libraries/STM32F10x_StdPeriph_Driver/src/stm32f10x_rcc.c ****   *   - This function must be called before enabling I2S2 APB clock.
 794:Libraries/STM32F10x_StdPeriph_Driver/src/stm32f10x_rcc.c ****   *   - This function applies only to STM32 Connectivity line devices.
 795:Libraries/STM32F10x_StdPeriph_Driver/src/stm32f10x_rcc.c ****   * @param  RCC_I2S2CLKSource: specifies the I2S2 clock source.
 796:Libraries/STM32F10x_StdPeriph_Driver/src/stm32f10x_rcc.c ****   *   This parameter can be one of the following values:
 797:Libraries/STM32F10x_StdPeriph_Driver/src/stm32f10x_rcc.c ****   *     @arg RCC_I2S2CLKSource_SYSCLK: system clock selected as I2S2 clock entry
 798:Libraries/STM32F10x_StdPeriph_Driver/src/stm32f10x_rcc.c ****   *     @arg RCC_I2S2CLKSource_PLL3_VCO: PLL3 VCO clock selected as I2S2 clock entry
 799:Libraries/STM32F10x_StdPeriph_Driver/src/stm32f10x_rcc.c ****   * @retval None
 800:Libraries/STM32F10x_StdPeriph_Driver/src/stm32f10x_rcc.c ****   */
 801:Libraries/STM32F10x_StdPeriph_Driver/src/stm32f10x_rcc.c **** void RCC_I2S2CLKConfig(uint32_t RCC_I2S2CLKSource)
 802:Libraries/STM32F10x_StdPeriph_Driver/src/stm32f10x_rcc.c **** {
 803:Libraries/STM32F10x_StdPeriph_Driver/src/stm32f10x_rcc.c ****   /* Check the parameters */
 804:Libraries/STM32F10x_StdPeriph_Driver/src/stm32f10x_rcc.c ****   assert_param(IS_RCC_I2S2CLK_SOURCE(RCC_I2S2CLKSource));
 805:Libraries/STM32F10x_StdPeriph_Driver/src/stm32f10x_rcc.c **** 
 806:Libraries/STM32F10x_StdPeriph_Driver/src/stm32f10x_rcc.c ****   *(__IO uint32_t *) CFGR2_I2S2SRC_BB = RCC_I2S2CLKSource;
 807:Libraries/STM32F10x_StdPeriph_Driver/src/stm32f10x_rcc.c **** }
 808:Libraries/STM32F10x_StdPeriph_Driver/src/stm32f10x_rcc.c **** 
 809:Libraries/STM32F10x_StdPeriph_Driver/src/stm32f10x_rcc.c **** /**
 810:Libraries/STM32F10x_StdPeriph_Driver/src/stm32f10x_rcc.c ****   * @brief  Configures the I2S3 clock source(I2S2CLK).
 811:Libraries/STM32F10x_StdPeriph_Driver/src/stm32f10x_rcc.c ****   * @note
 812:Libraries/STM32F10x_StdPeriph_Driver/src/stm32f10x_rcc.c ****   *   - This function must be called before enabling I2S3 APB clock.
 813:Libraries/STM32F10x_StdPeriph_Driver/src/stm32f10x_rcc.c ****   *   - This function applies only to STM32 Connectivity line devices.
 814:Libraries/STM32F10x_StdPeriph_Driver/src/stm32f10x_rcc.c ****   * @param  RCC_I2S3CLKSource: specifies the I2S3 clock source.
 815:Libraries/STM32F10x_StdPeriph_Driver/src/stm32f10x_rcc.c ****   *   This parameter can be one of the following values:
 816:Libraries/STM32F10x_StdPeriph_Driver/src/stm32f10x_rcc.c ****   *     @arg RCC_I2S3CLKSource_SYSCLK: system clock selected as I2S3 clock entry
 817:Libraries/STM32F10x_StdPeriph_Driver/src/stm32f10x_rcc.c ****   *     @arg RCC_I2S3CLKSource_PLL3_VCO: PLL3 VCO clock selected as I2S3 clock entry
 818:Libraries/STM32F10x_StdPeriph_Driver/src/stm32f10x_rcc.c ****   * @retval None
 819:Libraries/STM32F10x_StdPeriph_Driver/src/stm32f10x_rcc.c ****   */
 820:Libraries/STM32F10x_StdPeriph_Driver/src/stm32f10x_rcc.c **** void RCC_I2S3CLKConfig(uint32_t RCC_I2S3CLKSource)
 821:Libraries/STM32F10x_StdPeriph_Driver/src/stm32f10x_rcc.c **** {
 822:Libraries/STM32F10x_StdPeriph_Driver/src/stm32f10x_rcc.c ****   /* Check the parameters */
 823:Libraries/STM32F10x_StdPeriph_Driver/src/stm32f10x_rcc.c ****   assert_param(IS_RCC_I2S3CLK_SOURCE(RCC_I2S3CLKSource));
 824:Libraries/STM32F10x_StdPeriph_Driver/src/stm32f10x_rcc.c **** 
 825:Libraries/STM32F10x_StdPeriph_Driver/src/stm32f10x_rcc.c ****   *(__IO uint32_t *) CFGR2_I2S3SRC_BB = RCC_I2S3CLKSource;
 826:Libraries/STM32F10x_StdPeriph_Driver/src/stm32f10x_rcc.c **** }
 827:Libraries/STM32F10x_StdPeriph_Driver/src/stm32f10x_rcc.c **** #endif /* STM32F10X_CL */
 828:Libraries/STM32F10x_StdPeriph_Driver/src/stm32f10x_rcc.c **** 
 829:Libraries/STM32F10x_StdPeriph_Driver/src/stm32f10x_rcc.c **** /**
 830:Libraries/STM32F10x_StdPeriph_Driver/src/stm32f10x_rcc.c ****   * @brief  Configures the External Low Speed oscillator (LSE).
 831:Libraries/STM32F10x_StdPeriph_Driver/src/stm32f10x_rcc.c ****   * @param  RCC_LSE: specifies the new state of the LSE.
 832:Libraries/STM32F10x_StdPeriph_Driver/src/stm32f10x_rcc.c ****   *   This parameter can be one of the following values:
 833:Libraries/STM32F10x_StdPeriph_Driver/src/stm32f10x_rcc.c ****   *     @arg RCC_LSE_OFF: LSE oscillator OFF
 834:Libraries/STM32F10x_StdPeriph_Driver/src/stm32f10x_rcc.c ****   *     @arg RCC_LSE_ON: LSE oscillator ON
 835:Libraries/STM32F10x_StdPeriph_Driver/src/stm32f10x_rcc.c ****   *     @arg RCC_LSE_Bypass: LSE oscillator bypassed with external clock
 836:Libraries/STM32F10x_StdPeriph_Driver/src/stm32f10x_rcc.c ****   * @retval None
 837:Libraries/STM32F10x_StdPeriph_Driver/src/stm32f10x_rcc.c ****   */
 838:Libraries/STM32F10x_StdPeriph_Driver/src/stm32f10x_rcc.c **** void RCC_LSEConfig(uint8_t RCC_LSE)
 839:Libraries/STM32F10x_StdPeriph_Driver/src/stm32f10x_rcc.c **** {
 840:Libraries/STM32F10x_StdPeriph_Driver/src/stm32f10x_rcc.c ****   /* Check the parameters */
 841:Libraries/STM32F10x_StdPeriph_Driver/src/stm32f10x_rcc.c ****   assert_param(IS_RCC_LSE(RCC_LSE));
 842:Libraries/STM32F10x_StdPeriph_Driver/src/stm32f10x_rcc.c ****   /* Reset LSEON and LSEBYP bits before configuring the LSE ------------------*/
 843:Libraries/STM32F10x_StdPeriph_Driver/src/stm32f10x_rcc.c ****   /* Reset LSEON bit */
 844:Libraries/STM32F10x_StdPeriph_Driver/src/stm32f10x_rcc.c ****   *(__IO uint8_t *) BDCR_ADDRESS = RCC_LSE_OFF;
 845:Libraries/STM32F10x_StdPeriph_Driver/src/stm32f10x_rcc.c ****   /* Reset LSEBYP bit */
 846:Libraries/STM32F10x_StdPeriph_Driver/src/stm32f10x_rcc.c ****   *(__IO uint8_t *) BDCR_ADDRESS = RCC_LSE_OFF;
 847:Libraries/STM32F10x_StdPeriph_Driver/src/stm32f10x_rcc.c ****   /* Configure LSE (RCC_LSE_OFF is already covered by the code section above) */
 848:Libraries/STM32F10x_StdPeriph_Driver/src/stm32f10x_rcc.c ****   switch(RCC_LSE)
 849:Libraries/STM32F10x_StdPeriph_Driver/src/stm32f10x_rcc.c ****   {
 850:Libraries/STM32F10x_StdPeriph_Driver/src/stm32f10x_rcc.c ****     case RCC_LSE_ON:
 851:Libraries/STM32F10x_StdPeriph_Driver/src/stm32f10x_rcc.c ****       /* Set LSEON bit */
 852:Libraries/STM32F10x_StdPeriph_Driver/src/stm32f10x_rcc.c ****       *(__IO uint8_t *) BDCR_ADDRESS = RCC_LSE_ON;
 853:Libraries/STM32F10x_StdPeriph_Driver/src/stm32f10x_rcc.c ****       break;
 854:Libraries/STM32F10x_StdPeriph_Driver/src/stm32f10x_rcc.c ****       
 855:Libraries/STM32F10x_StdPeriph_Driver/src/stm32f10x_rcc.c ****     case RCC_LSE_Bypass:
 856:Libraries/STM32F10x_StdPeriph_Driver/src/stm32f10x_rcc.c ****       /* Set LSEBYP and LSEON bits */
 857:Libraries/STM32F10x_StdPeriph_Driver/src/stm32f10x_rcc.c ****       *(__IO uint8_t *) BDCR_ADDRESS = RCC_LSE_Bypass | RCC_LSE_ON;
 858:Libraries/STM32F10x_StdPeriph_Driver/src/stm32f10x_rcc.c ****       break;            
 859:Libraries/STM32F10x_StdPeriph_Driver/src/stm32f10x_rcc.c ****       
 860:Libraries/STM32F10x_StdPeriph_Driver/src/stm32f10x_rcc.c ****     default:
 861:Libraries/STM32F10x_StdPeriph_Driver/src/stm32f10x_rcc.c ****       break;      
 862:Libraries/STM32F10x_StdPeriph_Driver/src/stm32f10x_rcc.c ****   }
 863:Libraries/STM32F10x_StdPeriph_Driver/src/stm32f10x_rcc.c **** }
 864:Libraries/STM32F10x_StdPeriph_Driver/src/stm32f10x_rcc.c **** 
 865:Libraries/STM32F10x_StdPeriph_Driver/src/stm32f10x_rcc.c **** /**
 866:Libraries/STM32F10x_StdPeriph_Driver/src/stm32f10x_rcc.c ****   * @brief  Enables or disables the Internal Low Speed oscillator (LSI).
 867:Libraries/STM32F10x_StdPeriph_Driver/src/stm32f10x_rcc.c ****   * @note   LSI can not be disabled if the IWDG is running.
 868:Libraries/STM32F10x_StdPeriph_Driver/src/stm32f10x_rcc.c ****   * @param  NewState: new state of the LSI. This parameter can be: ENABLE or DISABLE.
 869:Libraries/STM32F10x_StdPeriph_Driver/src/stm32f10x_rcc.c ****   * @retval None
 870:Libraries/STM32F10x_StdPeriph_Driver/src/stm32f10x_rcc.c ****   */
 871:Libraries/STM32F10x_StdPeriph_Driver/src/stm32f10x_rcc.c **** void RCC_LSICmd(FunctionalState NewState)
 872:Libraries/STM32F10x_StdPeriph_Driver/src/stm32f10x_rcc.c **** {
 873:Libraries/STM32F10x_StdPeriph_Driver/src/stm32f10x_rcc.c ****   /* Check the parameters */
 874:Libraries/STM32F10x_StdPeriph_Driver/src/stm32f10x_rcc.c ****   assert_param(IS_FUNCTIONAL_STATE(NewState));
 875:Libraries/STM32F10x_StdPeriph_Driver/src/stm32f10x_rcc.c ****   *(__IO uint32_t *) CSR_LSION_BB = (uint32_t)NewState;
 876:Libraries/STM32F10x_StdPeriph_Driver/src/stm32f10x_rcc.c **** }
 877:Libraries/STM32F10x_StdPeriph_Driver/src/stm32f10x_rcc.c **** 
 878:Libraries/STM32F10x_StdPeriph_Driver/src/stm32f10x_rcc.c **** /**
 879:Libraries/STM32F10x_StdPeriph_Driver/src/stm32f10x_rcc.c ****   * @brief  Configures the RTC clock (RTCCLK).
 880:Libraries/STM32F10x_StdPeriph_Driver/src/stm32f10x_rcc.c ****   * @note   Once the RTC clock is selected it cant be changed unless the Backup domain is reset.
 881:Libraries/STM32F10x_StdPeriph_Driver/src/stm32f10x_rcc.c ****   * @param  RCC_RTCCLKSource: specifies the RTC clock source.
 882:Libraries/STM32F10x_StdPeriph_Driver/src/stm32f10x_rcc.c ****   *   This parameter can be one of the following values:
 883:Libraries/STM32F10x_StdPeriph_Driver/src/stm32f10x_rcc.c ****   *     @arg RCC_RTCCLKSource_LSE: LSE selected as RTC clock
 884:Libraries/STM32F10x_StdPeriph_Driver/src/stm32f10x_rcc.c ****   *     @arg RCC_RTCCLKSource_LSI: LSI selected as RTC clock
 885:Libraries/STM32F10x_StdPeriph_Driver/src/stm32f10x_rcc.c ****   *     @arg RCC_RTCCLKSource_HSE_Div128: HSE clock divided by 128 selected as RTC clock
 886:Libraries/STM32F10x_StdPeriph_Driver/src/stm32f10x_rcc.c ****   * @retval None
 887:Libraries/STM32F10x_StdPeriph_Driver/src/stm32f10x_rcc.c ****   */
 888:Libraries/STM32F10x_StdPeriph_Driver/src/stm32f10x_rcc.c **** void RCC_RTCCLKConfig(uint32_t RCC_RTCCLKSource)
 889:Libraries/STM32F10x_StdPeriph_Driver/src/stm32f10x_rcc.c **** {
 890:Libraries/STM32F10x_StdPeriph_Driver/src/stm32f10x_rcc.c ****   /* Check the parameters */
 891:Libraries/STM32F10x_StdPeriph_Driver/src/stm32f10x_rcc.c ****   assert_param(IS_RCC_RTCCLK_SOURCE(RCC_RTCCLKSource));
 892:Libraries/STM32F10x_StdPeriph_Driver/src/stm32f10x_rcc.c ****   /* Select the RTC clock source */
 893:Libraries/STM32F10x_StdPeriph_Driver/src/stm32f10x_rcc.c ****   RCC->BDCR |= RCC_RTCCLKSource;
 894:Libraries/STM32F10x_StdPeriph_Driver/src/stm32f10x_rcc.c **** }
 895:Libraries/STM32F10x_StdPeriph_Driver/src/stm32f10x_rcc.c **** 
 896:Libraries/STM32F10x_StdPeriph_Driver/src/stm32f10x_rcc.c **** /**
 897:Libraries/STM32F10x_StdPeriph_Driver/src/stm32f10x_rcc.c ****   * @brief  Enables or disables the RTC clock.
 898:Libraries/STM32F10x_StdPeriph_Driver/src/stm32f10x_rcc.c ****   * @note   This function must be used only after the RTC clock was selected using the RCC_RTCCLKCo
 899:Libraries/STM32F10x_StdPeriph_Driver/src/stm32f10x_rcc.c ****   * @param  NewState: new state of the RTC clock. This parameter can be: ENABLE or DISABLE.
 900:Libraries/STM32F10x_StdPeriph_Driver/src/stm32f10x_rcc.c ****   * @retval None
 901:Libraries/STM32F10x_StdPeriph_Driver/src/stm32f10x_rcc.c ****   */
 902:Libraries/STM32F10x_StdPeriph_Driver/src/stm32f10x_rcc.c **** void RCC_RTCCLKCmd(FunctionalState NewState)
 903:Libraries/STM32F10x_StdPeriph_Driver/src/stm32f10x_rcc.c **** {
 904:Libraries/STM32F10x_StdPeriph_Driver/src/stm32f10x_rcc.c ****   /* Check the parameters */
 905:Libraries/STM32F10x_StdPeriph_Driver/src/stm32f10x_rcc.c ****   assert_param(IS_FUNCTIONAL_STATE(NewState));
 906:Libraries/STM32F10x_StdPeriph_Driver/src/stm32f10x_rcc.c ****   *(__IO uint32_t *) BDCR_RTCEN_BB = (uint32_t)NewState;
 907:Libraries/STM32F10x_StdPeriph_Driver/src/stm32f10x_rcc.c **** }
 908:Libraries/STM32F10x_StdPeriph_Driver/src/stm32f10x_rcc.c **** 
 909:Libraries/STM32F10x_StdPeriph_Driver/src/stm32f10x_rcc.c **** /**
 910:Libraries/STM32F10x_StdPeriph_Driver/src/stm32f10x_rcc.c ****   * @brief  Returns the frequencies of different on chip clocks.
 911:Libraries/STM32F10x_StdPeriph_Driver/src/stm32f10x_rcc.c ****   * @param  RCC_Clocks: pointer to a RCC_ClocksTypeDef structure which will hold
 912:Libraries/STM32F10x_StdPeriph_Driver/src/stm32f10x_rcc.c ****   *   the clocks frequencies.
 913:Libraries/STM32F10x_StdPeriph_Driver/src/stm32f10x_rcc.c ****   * @retval None
 914:Libraries/STM32F10x_StdPeriph_Driver/src/stm32f10x_rcc.c ****   */
 915:Libraries/STM32F10x_StdPeriph_Driver/src/stm32f10x_rcc.c **** void RCC_GetClocksFreq(RCC_ClocksTypeDef* RCC_Clocks)
 916:Libraries/STM32F10x_StdPeriph_Driver/src/stm32f10x_rcc.c **** {
 917:Libraries/STM32F10x_StdPeriph_Driver/src/stm32f10x_rcc.c ****   uint32_t tmp = 0, pllmull = 0, pllsource = 0, presc = 0;
 918:Libraries/STM32F10x_StdPeriph_Driver/src/stm32f10x_rcc.c **** 
 919:Libraries/STM32F10x_StdPeriph_Driver/src/stm32f10x_rcc.c **** #ifdef  STM32F10X_CL
 920:Libraries/STM32F10x_StdPeriph_Driver/src/stm32f10x_rcc.c ****   uint32_t prediv1source = 0, prediv1factor = 0, prediv2factor = 0, pll2mull = 0;
 921:Libraries/STM32F10x_StdPeriph_Driver/src/stm32f10x_rcc.c **** #endif /* STM32F10X_CL */
 922:Libraries/STM32F10x_StdPeriph_Driver/src/stm32f10x_rcc.c **** 
 923:Libraries/STM32F10x_StdPeriph_Driver/src/stm32f10x_rcc.c **** #if defined (STM32F10X_LD_VL) || defined (STM32F10X_MD_VL)
 924:Libraries/STM32F10x_StdPeriph_Driver/src/stm32f10x_rcc.c ****   uint32_t prediv1factor = 0;
 925:Libraries/STM32F10x_StdPeriph_Driver/src/stm32f10x_rcc.c **** #endif
 926:Libraries/STM32F10x_StdPeriph_Driver/src/stm32f10x_rcc.c ****     
 927:Libraries/STM32F10x_StdPeriph_Driver/src/stm32f10x_rcc.c ****   /* Get SYSCLK source -------------------------------------------------------*/
 928:Libraries/STM32F10x_StdPeriph_Driver/src/stm32f10x_rcc.c ****   tmp = RCC->CFGR & CFGR_SWS_Mask;
 929:Libraries/STM32F10x_StdPeriph_Driver/src/stm32f10x_rcc.c ****   
 930:Libraries/STM32F10x_StdPeriph_Driver/src/stm32f10x_rcc.c ****   switch (tmp)
 931:Libraries/STM32F10x_StdPeriph_Driver/src/stm32f10x_rcc.c ****   {
 932:Libraries/STM32F10x_StdPeriph_Driver/src/stm32f10x_rcc.c ****     case 0x00:  /* HSI used as system clock */
 933:Libraries/STM32F10x_StdPeriph_Driver/src/stm32f10x_rcc.c ****       RCC_Clocks->SYSCLK_Frequency = HSI_Value;
 934:Libraries/STM32F10x_StdPeriph_Driver/src/stm32f10x_rcc.c ****       break;
 935:Libraries/STM32F10x_StdPeriph_Driver/src/stm32f10x_rcc.c ****     case 0x04:  /* HSE used as system clock */
 936:Libraries/STM32F10x_StdPeriph_Driver/src/stm32f10x_rcc.c ****       RCC_Clocks->SYSCLK_Frequency = HSE_Value;
 937:Libraries/STM32F10x_StdPeriph_Driver/src/stm32f10x_rcc.c ****       break;
 938:Libraries/STM32F10x_StdPeriph_Driver/src/stm32f10x_rcc.c ****     case 0x08:  /* PLL used as system clock */
 939:Libraries/STM32F10x_StdPeriph_Driver/src/stm32f10x_rcc.c **** 
 940:Libraries/STM32F10x_StdPeriph_Driver/src/stm32f10x_rcc.c ****       /* Get PLL clock source and multiplication factor ----------------------*/
 941:Libraries/STM32F10x_StdPeriph_Driver/src/stm32f10x_rcc.c ****       pllmull = RCC->CFGR & CFGR_PLLMull_Mask;
 942:Libraries/STM32F10x_StdPeriph_Driver/src/stm32f10x_rcc.c ****       pllsource = RCC->CFGR & CFGR_PLLSRC_Mask;
 943:Libraries/STM32F10x_StdPeriph_Driver/src/stm32f10x_rcc.c ****       
 944:Libraries/STM32F10x_StdPeriph_Driver/src/stm32f10x_rcc.c **** #ifndef STM32F10X_CL      
 945:Libraries/STM32F10x_StdPeriph_Driver/src/stm32f10x_rcc.c ****       pllmull = ( pllmull >> 18) + 2;
 946:Libraries/STM32F10x_StdPeriph_Driver/src/stm32f10x_rcc.c ****       
 947:Libraries/STM32F10x_StdPeriph_Driver/src/stm32f10x_rcc.c ****       if (pllsource == 0x00)
 948:Libraries/STM32F10x_StdPeriph_Driver/src/stm32f10x_rcc.c ****       {/* HSI oscillator clock divided by 2 selected as PLL clock entry */
 949:Libraries/STM32F10x_StdPeriph_Driver/src/stm32f10x_rcc.c ****         RCC_Clocks->SYSCLK_Frequency = (HSI_Value >> 1) * pllmull;
 950:Libraries/STM32F10x_StdPeriph_Driver/src/stm32f10x_rcc.c ****       }
 951:Libraries/STM32F10x_StdPeriph_Driver/src/stm32f10x_rcc.c ****       else
 952:Libraries/STM32F10x_StdPeriph_Driver/src/stm32f10x_rcc.c ****       {
 953:Libraries/STM32F10x_StdPeriph_Driver/src/stm32f10x_rcc.c ****  #if defined (STM32F10X_LD_VL) || defined (STM32F10X_MD_VL)
 954:Libraries/STM32F10x_StdPeriph_Driver/src/stm32f10x_rcc.c ****        prediv1factor = (RCC->CFGR2 & CFGR2_PREDIV1) + 1;
 955:Libraries/STM32F10x_StdPeriph_Driver/src/stm32f10x_rcc.c ****        /* HSE oscillator clock selected as PREDIV1 clock entry */
 956:Libraries/STM32F10x_StdPeriph_Driver/src/stm32f10x_rcc.c ****        RCC_Clocks->SYSCLK_Frequency = (HSE_Value / prediv1factor) * pllmull; 
 957:Libraries/STM32F10x_StdPeriph_Driver/src/stm32f10x_rcc.c ****  #else
 958:Libraries/STM32F10x_StdPeriph_Driver/src/stm32f10x_rcc.c ****         /* HSE selected as PLL clock entry */
 959:Libraries/STM32F10x_StdPeriph_Driver/src/stm32f10x_rcc.c ****         if ((RCC->CFGR & CFGR_PLLXTPRE_Mask) != (uint32_t)RESET)
 960:Libraries/STM32F10x_StdPeriph_Driver/src/stm32f10x_rcc.c ****         {/* HSE oscillator clock divided by 2 */
 961:Libraries/STM32F10x_StdPeriph_Driver/src/stm32f10x_rcc.c ****           RCC_Clocks->SYSCLK_Frequency = (HSE_Value >> 1) * pllmull;
 962:Libraries/STM32F10x_StdPeriph_Driver/src/stm32f10x_rcc.c ****         }
 963:Libraries/STM32F10x_StdPeriph_Driver/src/stm32f10x_rcc.c ****         else
 964:Libraries/STM32F10x_StdPeriph_Driver/src/stm32f10x_rcc.c ****         {
 965:Libraries/STM32F10x_StdPeriph_Driver/src/stm32f10x_rcc.c ****           RCC_Clocks->SYSCLK_Frequency = HSE_Value * pllmull;
 966:Libraries/STM32F10x_StdPeriph_Driver/src/stm32f10x_rcc.c ****         }
 967:Libraries/STM32F10x_StdPeriph_Driver/src/stm32f10x_rcc.c ****  #endif
 968:Libraries/STM32F10x_StdPeriph_Driver/src/stm32f10x_rcc.c ****       }
 969:Libraries/STM32F10x_StdPeriph_Driver/src/stm32f10x_rcc.c **** #else
 970:Libraries/STM32F10x_StdPeriph_Driver/src/stm32f10x_rcc.c ****       pllmull = pllmull >> 18;
 971:Libraries/STM32F10x_StdPeriph_Driver/src/stm32f10x_rcc.c ****       
 972:Libraries/STM32F10x_StdPeriph_Driver/src/stm32f10x_rcc.c ****       if (pllmull != 0x0D)
 973:Libraries/STM32F10x_StdPeriph_Driver/src/stm32f10x_rcc.c ****       {
 974:Libraries/STM32F10x_StdPeriph_Driver/src/stm32f10x_rcc.c ****          pllmull += 2;
 975:Libraries/STM32F10x_StdPeriph_Driver/src/stm32f10x_rcc.c ****       }
 976:Libraries/STM32F10x_StdPeriph_Driver/src/stm32f10x_rcc.c ****       else
 977:Libraries/STM32F10x_StdPeriph_Driver/src/stm32f10x_rcc.c ****       { /* PLL multiplication factor = PLL input clock * 6.5 */
 978:Libraries/STM32F10x_StdPeriph_Driver/src/stm32f10x_rcc.c ****         pllmull = 13 / 2; 
 979:Libraries/STM32F10x_StdPeriph_Driver/src/stm32f10x_rcc.c ****       }
 980:Libraries/STM32F10x_StdPeriph_Driver/src/stm32f10x_rcc.c ****             
 981:Libraries/STM32F10x_StdPeriph_Driver/src/stm32f10x_rcc.c ****       if (pllsource == 0x00)
 982:Libraries/STM32F10x_StdPeriph_Driver/src/stm32f10x_rcc.c ****       {/* HSI oscillator clock divided by 2 selected as PLL clock entry */
 983:Libraries/STM32F10x_StdPeriph_Driver/src/stm32f10x_rcc.c ****         RCC_Clocks->SYSCLK_Frequency = (HSI_Value >> 1) * pllmull;
 984:Libraries/STM32F10x_StdPeriph_Driver/src/stm32f10x_rcc.c ****       }
 985:Libraries/STM32F10x_StdPeriph_Driver/src/stm32f10x_rcc.c ****       else
 986:Libraries/STM32F10x_StdPeriph_Driver/src/stm32f10x_rcc.c ****       {/* PREDIV1 selected as PLL clock entry */
 987:Libraries/STM32F10x_StdPeriph_Driver/src/stm32f10x_rcc.c ****         
 988:Libraries/STM32F10x_StdPeriph_Driver/src/stm32f10x_rcc.c ****         /* Get PREDIV1 clock source and division factor */
 989:Libraries/STM32F10x_StdPeriph_Driver/src/stm32f10x_rcc.c ****         prediv1source = RCC->CFGR2 & CFGR2_PREDIV1SRC;
 990:Libraries/STM32F10x_StdPeriph_Driver/src/stm32f10x_rcc.c ****         prediv1factor = (RCC->CFGR2 & CFGR2_PREDIV1) + 1;
 991:Libraries/STM32F10x_StdPeriph_Driver/src/stm32f10x_rcc.c ****         
 992:Libraries/STM32F10x_StdPeriph_Driver/src/stm32f10x_rcc.c ****         if (prediv1source == 0)
 993:Libraries/STM32F10x_StdPeriph_Driver/src/stm32f10x_rcc.c ****         { /* HSE oscillator clock selected as PREDIV1 clock entry */
 994:Libraries/STM32F10x_StdPeriph_Driver/src/stm32f10x_rcc.c ****           RCC_Clocks->SYSCLK_Frequency = (HSE_Value / prediv1factor) * pllmull;          
 995:Libraries/STM32F10x_StdPeriph_Driver/src/stm32f10x_rcc.c ****         }
 996:Libraries/STM32F10x_StdPeriph_Driver/src/stm32f10x_rcc.c ****         else
 997:Libraries/STM32F10x_StdPeriph_Driver/src/stm32f10x_rcc.c ****         {/* PLL2 clock selected as PREDIV1 clock entry */
 998:Libraries/STM32F10x_StdPeriph_Driver/src/stm32f10x_rcc.c ****           
 999:Libraries/STM32F10x_StdPeriph_Driver/src/stm32f10x_rcc.c ****           /* Get PREDIV2 division factor and PLL2 multiplication factor */
1000:Libraries/STM32F10x_StdPeriph_Driver/src/stm32f10x_rcc.c ****           prediv2factor = ((RCC->CFGR2 & CFGR2_PREDIV2) >> 4) + 1;
1001:Libraries/STM32F10x_StdPeriph_Driver/src/stm32f10x_rcc.c ****           pll2mull = ((RCC->CFGR2 & CFGR2_PLL2MUL) >> 8 ) + 2; 
1002:Libraries/STM32F10x_StdPeriph_Driver/src/stm32f10x_rcc.c ****           RCC_Clocks->SYSCLK_Frequency = (((HSE_Value / prediv2factor) * pll2mull) / prediv1factor)
1003:Libraries/STM32F10x_StdPeriph_Driver/src/stm32f10x_rcc.c ****         }
1004:Libraries/STM32F10x_StdPeriph_Driver/src/stm32f10x_rcc.c ****       }
1005:Libraries/STM32F10x_StdPeriph_Driver/src/stm32f10x_rcc.c **** #endif /* STM32F10X_CL */ 
1006:Libraries/STM32F10x_StdPeriph_Driver/src/stm32f10x_rcc.c ****       break;
1007:Libraries/STM32F10x_StdPeriph_Driver/src/stm32f10x_rcc.c **** 
1008:Libraries/STM32F10x_StdPeriph_Driver/src/stm32f10x_rcc.c ****     default:
1009:Libraries/STM32F10x_StdPeriph_Driver/src/stm32f10x_rcc.c ****       RCC_Clocks->SYSCLK_Frequency = HSI_Value;
1010:Libraries/STM32F10x_StdPeriph_Driver/src/stm32f10x_rcc.c ****       break;
1011:Libraries/STM32F10x_StdPeriph_Driver/src/stm32f10x_rcc.c ****   }
1012:Libraries/STM32F10x_StdPeriph_Driver/src/stm32f10x_rcc.c **** 
1013:Libraries/STM32F10x_StdPeriph_Driver/src/stm32f10x_rcc.c ****   /* Compute HCLK, PCLK1, PCLK2 and ADCCLK clocks frequencies ----------------*/
1014:Libraries/STM32F10x_StdPeriph_Driver/src/stm32f10x_rcc.c ****   /* Get HCLK prescaler */
1015:Libraries/STM32F10x_StdPeriph_Driver/src/stm32f10x_rcc.c ****   tmp = RCC->CFGR & CFGR_HPRE_Set_Mask;
1016:Libraries/STM32F10x_StdPeriph_Driver/src/stm32f10x_rcc.c ****   tmp = tmp >> 4;
1017:Libraries/STM32F10x_StdPeriph_Driver/src/stm32f10x_rcc.c ****   presc = APBAHBPrescTable[tmp];
1018:Libraries/STM32F10x_StdPeriph_Driver/src/stm32f10x_rcc.c ****   /* HCLK clock frequency */
1019:Libraries/STM32F10x_StdPeriph_Driver/src/stm32f10x_rcc.c ****   RCC_Clocks->HCLK_Frequency = RCC_Clocks->SYSCLK_Frequency >> presc;
1020:Libraries/STM32F10x_StdPeriph_Driver/src/stm32f10x_rcc.c ****   /* Get PCLK1 prescaler */
1021:Libraries/STM32F10x_StdPeriph_Driver/src/stm32f10x_rcc.c ****   tmp = RCC->CFGR & CFGR_PPRE1_Set_Mask;
1022:Libraries/STM32F10x_StdPeriph_Driver/src/stm32f10x_rcc.c ****   tmp = tmp >> 8;
1023:Libraries/STM32F10x_StdPeriph_Driver/src/stm32f10x_rcc.c ****   presc = APBAHBPrescTable[tmp];
1024:Libraries/STM32F10x_StdPeriph_Driver/src/stm32f10x_rcc.c ****   /* PCLK1 clock frequency */
1025:Libraries/STM32F10x_StdPeriph_Driver/src/stm32f10x_rcc.c ****   RCC_Clocks->PCLK1_Frequency = RCC_Clocks->HCLK_Frequency >> presc;
1026:Libraries/STM32F10x_StdPeriph_Driver/src/stm32f10x_rcc.c ****   /* Get PCLK2 prescaler */
1027:Libraries/STM32F10x_StdPeriph_Driver/src/stm32f10x_rcc.c ****   tmp = RCC->CFGR & CFGR_PPRE2_Set_Mask;
1028:Libraries/STM32F10x_StdPeriph_Driver/src/stm32f10x_rcc.c ****   tmp = tmp >> 11;
1029:Libraries/STM32F10x_StdPeriph_Driver/src/stm32f10x_rcc.c ****   presc = APBAHBPrescTable[tmp];
1030:Libraries/STM32F10x_StdPeriph_Driver/src/stm32f10x_rcc.c ****   /* PCLK2 clock frequency */
1031:Libraries/STM32F10x_StdPeriph_Driver/src/stm32f10x_rcc.c ****   RCC_Clocks->PCLK2_Frequency = RCC_Clocks->HCLK_Frequency >> presc;
1032:Libraries/STM32F10x_StdPeriph_Driver/src/stm32f10x_rcc.c ****   /* Get ADCCLK prescaler */
1033:Libraries/STM32F10x_StdPeriph_Driver/src/stm32f10x_rcc.c ****   tmp = RCC->CFGR & CFGR_ADCPRE_Set_Mask;
1034:Libraries/STM32F10x_StdPeriph_Driver/src/stm32f10x_rcc.c ****   tmp = tmp >> 14;
1035:Libraries/STM32F10x_StdPeriph_Driver/src/stm32f10x_rcc.c ****   presc = ADCPrescTable[tmp];
1036:Libraries/STM32F10x_StdPeriph_Driver/src/stm32f10x_rcc.c ****   /* ADCCLK clock frequency */
1037:Libraries/STM32F10x_StdPeriph_Driver/src/stm32f10x_rcc.c ****   RCC_Clocks->ADCCLK_Frequency = RCC_Clocks->PCLK2_Frequency / presc;
1038:Libraries/STM32F10x_StdPeriph_Driver/src/stm32f10x_rcc.c **** }
1039:Libraries/STM32F10x_StdPeriph_Driver/src/stm32f10x_rcc.c **** 
1040:Libraries/STM32F10x_StdPeriph_Driver/src/stm32f10x_rcc.c **** /**
1041:Libraries/STM32F10x_StdPeriph_Driver/src/stm32f10x_rcc.c ****   * @brief  Enables or disables the AHB peripheral clock.
1042:Libraries/STM32F10x_StdPeriph_Driver/src/stm32f10x_rcc.c ****   * @param  RCC_AHBPeriph: specifies the AHB peripheral to gates its clock.
1043:Libraries/STM32F10x_StdPeriph_Driver/src/stm32f10x_rcc.c ****   *   
1044:Libraries/STM32F10x_StdPeriph_Driver/src/stm32f10x_rcc.c ****   *   For @b STM32_Connectivity_line_devices, this parameter can be any combination
1045:Libraries/STM32F10x_StdPeriph_Driver/src/stm32f10x_rcc.c ****   *   of the following values:        
1046:Libraries/STM32F10x_StdPeriph_Driver/src/stm32f10x_rcc.c ****   *     @arg RCC_AHBPeriph_DMA1
1047:Libraries/STM32F10x_StdPeriph_Driver/src/stm32f10x_rcc.c ****   *     @arg RCC_AHBPeriph_DMA2
1048:Libraries/STM32F10x_StdPeriph_Driver/src/stm32f10x_rcc.c ****   *     @arg RCC_AHBPeriph_SRAM
1049:Libraries/STM32F10x_StdPeriph_Driver/src/stm32f10x_rcc.c ****   *     @arg RCC_AHBPeriph_FLITF
1050:Libraries/STM32F10x_StdPeriph_Driver/src/stm32f10x_rcc.c ****   *     @arg RCC_AHBPeriph_CRC
1051:Libraries/STM32F10x_StdPeriph_Driver/src/stm32f10x_rcc.c ****   *     @arg RCC_AHBPeriph_OTG_FS    
1052:Libraries/STM32F10x_StdPeriph_Driver/src/stm32f10x_rcc.c ****   *     @arg RCC_AHBPeriph_ETH_MAC   
1053:Libraries/STM32F10x_StdPeriph_Driver/src/stm32f10x_rcc.c ****   *     @arg RCC_AHBPeriph_ETH_MAC_Tx
1054:Libraries/STM32F10x_StdPeriph_Driver/src/stm32f10x_rcc.c ****   *     @arg RCC_AHBPeriph_ETH_MAC_Rx
1055:Libraries/STM32F10x_StdPeriph_Driver/src/stm32f10x_rcc.c ****   * 
1056:Libraries/STM32F10x_StdPeriph_Driver/src/stm32f10x_rcc.c ****   *   For @b other_STM32_devices, this parameter can be any combination of the 
1057:Libraries/STM32F10x_StdPeriph_Driver/src/stm32f10x_rcc.c ****   *   following values:        
1058:Libraries/STM32F10x_StdPeriph_Driver/src/stm32f10x_rcc.c ****   *     @arg RCC_AHBPeriph_DMA1
1059:Libraries/STM32F10x_StdPeriph_Driver/src/stm32f10x_rcc.c ****   *     @arg RCC_AHBPeriph_DMA2
1060:Libraries/STM32F10x_StdPeriph_Driver/src/stm32f10x_rcc.c ****   *     @arg RCC_AHBPeriph_SRAM
1061:Libraries/STM32F10x_StdPeriph_Driver/src/stm32f10x_rcc.c ****   *     @arg RCC_AHBPeriph_FLITF
1062:Libraries/STM32F10x_StdPeriph_Driver/src/stm32f10x_rcc.c ****   *     @arg RCC_AHBPeriph_CRC
1063:Libraries/STM32F10x_StdPeriph_Driver/src/stm32f10x_rcc.c ****   *     @arg RCC_AHBPeriph_FSMC
1064:Libraries/STM32F10x_StdPeriph_Driver/src/stm32f10x_rcc.c ****   *     @arg RCC_AHBPeriph_SDIO
1065:Libraries/STM32F10x_StdPeriph_Driver/src/stm32f10x_rcc.c ****   *   
1066:Libraries/STM32F10x_StdPeriph_Driver/src/stm32f10x_rcc.c ****   * @note SRAM and FLITF clock can be disabled only during sleep mode.
1067:Libraries/STM32F10x_StdPeriph_Driver/src/stm32f10x_rcc.c ****   * @param  NewState: new state of the specified peripheral clock.
1068:Libraries/STM32F10x_StdPeriph_Driver/src/stm32f10x_rcc.c ****   *   This parameter can be: ENABLE or DISABLE.
1069:Libraries/STM32F10x_StdPeriph_Driver/src/stm32f10x_rcc.c ****   * @retval None
1070:Libraries/STM32F10x_StdPeriph_Driver/src/stm32f10x_rcc.c ****   */
1071:Libraries/STM32F10x_StdPeriph_Driver/src/stm32f10x_rcc.c **** void RCC_AHBPeriphClockCmd(uint32_t RCC_AHBPeriph, FunctionalState NewState)
1072:Libraries/STM32F10x_StdPeriph_Driver/src/stm32f10x_rcc.c **** {
1073:Libraries/STM32F10x_StdPeriph_Driver/src/stm32f10x_rcc.c ****   /* Check the parameters */
1074:Libraries/STM32F10x_StdPeriph_Driver/src/stm32f10x_rcc.c ****   assert_param(IS_RCC_AHB_PERIPH(RCC_AHBPeriph));
1075:Libraries/STM32F10x_StdPeriph_Driver/src/stm32f10x_rcc.c ****   assert_param(IS_FUNCTIONAL_STATE(NewState));
1076:Libraries/STM32F10x_StdPeriph_Driver/src/stm32f10x_rcc.c **** 
1077:Libraries/STM32F10x_StdPeriph_Driver/src/stm32f10x_rcc.c ****   if (NewState != DISABLE)
1078:Libraries/STM32F10x_StdPeriph_Driver/src/stm32f10x_rcc.c ****   {
1079:Libraries/STM32F10x_StdPeriph_Driver/src/stm32f10x_rcc.c ****     RCC->AHBENR |= RCC_AHBPeriph;
1080:Libraries/STM32F10x_StdPeriph_Driver/src/stm32f10x_rcc.c ****   }
1081:Libraries/STM32F10x_StdPeriph_Driver/src/stm32f10x_rcc.c ****   else
1082:Libraries/STM32F10x_StdPeriph_Driver/src/stm32f10x_rcc.c ****   {
1083:Libraries/STM32F10x_StdPeriph_Driver/src/stm32f10x_rcc.c ****     RCC->AHBENR &= ~RCC_AHBPeriph;
1084:Libraries/STM32F10x_StdPeriph_Driver/src/stm32f10x_rcc.c ****   }
1085:Libraries/STM32F10x_StdPeriph_Driver/src/stm32f10x_rcc.c **** }
1086:Libraries/STM32F10x_StdPeriph_Driver/src/stm32f10x_rcc.c **** 
1087:Libraries/STM32F10x_StdPeriph_Driver/src/stm32f10x_rcc.c **** /**
1088:Libraries/STM32F10x_StdPeriph_Driver/src/stm32f10x_rcc.c ****   * @brief  Enables or disables the High Speed APB (APB2) peripheral clock.
1089:Libraries/STM32F10x_StdPeriph_Driver/src/stm32f10x_rcc.c ****   * @param  RCC_APB2Periph: specifies the APB2 peripheral to gates its clock.
1090:Libraries/STM32F10x_StdPeriph_Driver/src/stm32f10x_rcc.c ****   *   This parameter can be any combination of the following values:
1091:Libraries/STM32F10x_StdPeriph_Driver/src/stm32f10x_rcc.c ****   *     @arg RCC_APB2Periph_AFIO, RCC_APB2Periph_GPIOA, RCC_APB2Periph_GPIOB,
1092:Libraries/STM32F10x_StdPeriph_Driver/src/stm32f10x_rcc.c ****   *          RCC_APB2Periph_GPIOC, RCC_APB2Periph_GPIOD, RCC_APB2Periph_GPIOE,
1093:Libraries/STM32F10x_StdPeriph_Driver/src/stm32f10x_rcc.c ****   *          RCC_APB2Periph_GPIOF, RCC_APB2Periph_GPIOG, RCC_APB2Periph_ADC1,
1094:Libraries/STM32F10x_StdPeriph_Driver/src/stm32f10x_rcc.c ****   *          RCC_APB2Periph_ADC2, RCC_APB2Periph_TIM1, RCC_APB2Periph_SPI1,
1095:Libraries/STM32F10x_StdPeriph_Driver/src/stm32f10x_rcc.c ****   *          RCC_APB2Periph_TIM8, RCC_APB2Periph_USART1, RCC_APB2Periph_ADC3,
1096:Libraries/STM32F10x_StdPeriph_Driver/src/stm32f10x_rcc.c ****   *          RCC_APB2Periph_TIM15, RCC_APB2Periph_TIM16, RCC_APB2Periph_TIM17,
1097:Libraries/STM32F10x_StdPeriph_Driver/src/stm32f10x_rcc.c ****   *          RCC_APB2Periph_TIM9, RCC_APB2Periph_TIM10, RCC_APB2Periph_TIM11     
1098:Libraries/STM32F10x_StdPeriph_Driver/src/stm32f10x_rcc.c ****   * @param  NewState: new state of the specified peripheral clock.
1099:Libraries/STM32F10x_StdPeriph_Driver/src/stm32f10x_rcc.c ****   *   This parameter can be: ENABLE or DISABLE.
1100:Libraries/STM32F10x_StdPeriph_Driver/src/stm32f10x_rcc.c ****   * @retval None
1101:Libraries/STM32F10x_StdPeriph_Driver/src/stm32f10x_rcc.c ****   */
1102:Libraries/STM32F10x_StdPeriph_Driver/src/stm32f10x_rcc.c **** void RCC_APB2PeriphClockCmd(uint32_t RCC_APB2Periph, FunctionalState NewState)
1103:Libraries/STM32F10x_StdPeriph_Driver/src/stm32f10x_rcc.c **** {
1104:Libraries/STM32F10x_StdPeriph_Driver/src/stm32f10x_rcc.c ****   /* Check the parameters */
1105:Libraries/STM32F10x_StdPeriph_Driver/src/stm32f10x_rcc.c ****   assert_param(IS_RCC_APB2_PERIPH(RCC_APB2Periph));
1106:Libraries/STM32F10x_StdPeriph_Driver/src/stm32f10x_rcc.c ****   assert_param(IS_FUNCTIONAL_STATE(NewState));
1107:Libraries/STM32F10x_StdPeriph_Driver/src/stm32f10x_rcc.c ****   if (NewState != DISABLE)
1108:Libraries/STM32F10x_StdPeriph_Driver/src/stm32f10x_rcc.c ****   {
1109:Libraries/STM32F10x_StdPeriph_Driver/src/stm32f10x_rcc.c ****     RCC->APB2ENR |= RCC_APB2Periph;
1110:Libraries/STM32F10x_StdPeriph_Driver/src/stm32f10x_rcc.c ****   }
1111:Libraries/STM32F10x_StdPeriph_Driver/src/stm32f10x_rcc.c ****   else
1112:Libraries/STM32F10x_StdPeriph_Driver/src/stm32f10x_rcc.c ****   {
1113:Libraries/STM32F10x_StdPeriph_Driver/src/stm32f10x_rcc.c ****     RCC->APB2ENR &= ~RCC_APB2Periph;
1114:Libraries/STM32F10x_StdPeriph_Driver/src/stm32f10x_rcc.c ****   }
1115:Libraries/STM32F10x_StdPeriph_Driver/src/stm32f10x_rcc.c **** }
1116:Libraries/STM32F10x_StdPeriph_Driver/src/stm32f10x_rcc.c **** 
1117:Libraries/STM32F10x_StdPeriph_Driver/src/stm32f10x_rcc.c **** /**
1118:Libraries/STM32F10x_StdPeriph_Driver/src/stm32f10x_rcc.c ****   * @brief  Enables or disables the Low Speed APB (APB1) peripheral clock.
1119:Libraries/STM32F10x_StdPeriph_Driver/src/stm32f10x_rcc.c ****   * @param  RCC_APB1Periph: specifies the APB1 peripheral to gates its clock.
1120:Libraries/STM32F10x_StdPeriph_Driver/src/stm32f10x_rcc.c ****   *   This parameter can be any combination of the following values:
1121:Libraries/STM32F10x_StdPeriph_Driver/src/stm32f10x_rcc.c ****   *     @arg RCC_APB1Periph_TIM2, RCC_APB1Periph_TIM3, RCC_APB1Periph_TIM4,
1122:Libraries/STM32F10x_StdPeriph_Driver/src/stm32f10x_rcc.c ****   *          RCC_APB1Periph_TIM5, RCC_APB1Periph_TIM6, RCC_APB1Periph_TIM7,
1123:Libraries/STM32F10x_StdPeriph_Driver/src/stm32f10x_rcc.c ****   *          RCC_APB1Periph_WWDG, RCC_APB1Periph_SPI2, RCC_APB1Periph_SPI3,
1124:Libraries/STM32F10x_StdPeriph_Driver/src/stm32f10x_rcc.c ****   *          RCC_APB1Periph_USART2, RCC_APB1Periph_USART3, RCC_APB1Periph_USART4, 
1125:Libraries/STM32F10x_StdPeriph_Driver/src/stm32f10x_rcc.c ****   *          RCC_APB1Periph_USART5, RCC_APB1Periph_I2C1, RCC_APB1Periph_I2C2,
1126:Libraries/STM32F10x_StdPeriph_Driver/src/stm32f10x_rcc.c ****   *          RCC_APB1Periph_USB, RCC_APB1Periph_CAN1, RCC_APB1Periph_BKP,
1127:Libraries/STM32F10x_StdPeriph_Driver/src/stm32f10x_rcc.c ****   *          RCC_APB1Periph_PWR, RCC_APB1Periph_DAC, RCC_APB1Periph_CEC,
1128:Libraries/STM32F10x_StdPeriph_Driver/src/stm32f10x_rcc.c ****   *          RCC_APB1Periph_TIM12, RCC_APB1Periph_TIM13, RCC_APB1Periph_TIM14
1129:Libraries/STM32F10x_StdPeriph_Driver/src/stm32f10x_rcc.c ****   * @param  NewState: new state of the specified peripheral clock.
1130:Libraries/STM32F10x_StdPeriph_Driver/src/stm32f10x_rcc.c ****   *   This parameter can be: ENABLE or DISABLE.
1131:Libraries/STM32F10x_StdPeriph_Driver/src/stm32f10x_rcc.c ****   * @retval None
1132:Libraries/STM32F10x_StdPeriph_Driver/src/stm32f10x_rcc.c ****   */
1133:Libraries/STM32F10x_StdPeriph_Driver/src/stm32f10x_rcc.c **** void RCC_APB1PeriphClockCmd(uint32_t RCC_APB1Periph, FunctionalState NewState)
1134:Libraries/STM32F10x_StdPeriph_Driver/src/stm32f10x_rcc.c **** {
1135:Libraries/STM32F10x_StdPeriph_Driver/src/stm32f10x_rcc.c ****   /* Check the parameters */
1136:Libraries/STM32F10x_StdPeriph_Driver/src/stm32f10x_rcc.c ****   assert_param(IS_RCC_APB1_PERIPH(RCC_APB1Periph));
1137:Libraries/STM32F10x_StdPeriph_Driver/src/stm32f10x_rcc.c ****   assert_param(IS_FUNCTIONAL_STATE(NewState));
1138:Libraries/STM32F10x_StdPeriph_Driver/src/stm32f10x_rcc.c ****   if (NewState != DISABLE)
1139:Libraries/STM32F10x_StdPeriph_Driver/src/stm32f10x_rcc.c ****   {
1140:Libraries/STM32F10x_StdPeriph_Driver/src/stm32f10x_rcc.c ****     RCC->APB1ENR |= RCC_APB1Periph;
1141:Libraries/STM32F10x_StdPeriph_Driver/src/stm32f10x_rcc.c ****   }
1142:Libraries/STM32F10x_StdPeriph_Driver/src/stm32f10x_rcc.c ****   else
1143:Libraries/STM32F10x_StdPeriph_Driver/src/stm32f10x_rcc.c ****   {
1144:Libraries/STM32F10x_StdPeriph_Driver/src/stm32f10x_rcc.c ****     RCC->APB1ENR &= ~RCC_APB1Periph;
1145:Libraries/STM32F10x_StdPeriph_Driver/src/stm32f10x_rcc.c ****   }
1146:Libraries/STM32F10x_StdPeriph_Driver/src/stm32f10x_rcc.c **** }
1147:Libraries/STM32F10x_StdPeriph_Driver/src/stm32f10x_rcc.c **** 
1148:Libraries/STM32F10x_StdPeriph_Driver/src/stm32f10x_rcc.c **** #ifdef STM32F10X_CL
1149:Libraries/STM32F10x_StdPeriph_Driver/src/stm32f10x_rcc.c **** /**
1150:Libraries/STM32F10x_StdPeriph_Driver/src/stm32f10x_rcc.c ****   * @brief  Forces or releases AHB peripheral reset.
1151:Libraries/STM32F10x_StdPeriph_Driver/src/stm32f10x_rcc.c ****   * @note   This function applies only to STM32 Connectivity line devices.
1152:Libraries/STM32F10x_StdPeriph_Driver/src/stm32f10x_rcc.c ****   * @param  RCC_AHBPeriph: specifies the AHB peripheral to reset.
1153:Libraries/STM32F10x_StdPeriph_Driver/src/stm32f10x_rcc.c ****   *   This parameter can be any combination of the following values:
1154:Libraries/STM32F10x_StdPeriph_Driver/src/stm32f10x_rcc.c ****   *     @arg RCC_AHBPeriph_OTG_FS 
1155:Libraries/STM32F10x_StdPeriph_Driver/src/stm32f10x_rcc.c ****   *     @arg RCC_AHBPeriph_ETH_MAC
1156:Libraries/STM32F10x_StdPeriph_Driver/src/stm32f10x_rcc.c ****   * @param  NewState: new state of the specified peripheral reset.
1157:Libraries/STM32F10x_StdPeriph_Driver/src/stm32f10x_rcc.c ****   *   This parameter can be: ENABLE or DISABLE.
1158:Libraries/STM32F10x_StdPeriph_Driver/src/stm32f10x_rcc.c ****   * @retval None
1159:Libraries/STM32F10x_StdPeriph_Driver/src/stm32f10x_rcc.c ****   */
1160:Libraries/STM32F10x_StdPeriph_Driver/src/stm32f10x_rcc.c **** void RCC_AHBPeriphResetCmd(uint32_t RCC_AHBPeriph, FunctionalState NewState)
1161:Libraries/STM32F10x_StdPeriph_Driver/src/stm32f10x_rcc.c **** {
1162:Libraries/STM32F10x_StdPeriph_Driver/src/stm32f10x_rcc.c ****   /* Check the parameters */
1163:Libraries/STM32F10x_StdPeriph_Driver/src/stm32f10x_rcc.c ****   assert_param(IS_RCC_AHB_PERIPH_RESET(RCC_AHBPeriph));
1164:Libraries/STM32F10x_StdPeriph_Driver/src/stm32f10x_rcc.c ****   assert_param(IS_FUNCTIONAL_STATE(NewState));
1165:Libraries/STM32F10x_StdPeriph_Driver/src/stm32f10x_rcc.c **** 
1166:Libraries/STM32F10x_StdPeriph_Driver/src/stm32f10x_rcc.c ****   if (NewState != DISABLE)
1167:Libraries/STM32F10x_StdPeriph_Driver/src/stm32f10x_rcc.c ****   {
1168:Libraries/STM32F10x_StdPeriph_Driver/src/stm32f10x_rcc.c ****     RCC->AHBRSTR |= RCC_AHBPeriph;
1169:Libraries/STM32F10x_StdPeriph_Driver/src/stm32f10x_rcc.c ****   }
1170:Libraries/STM32F10x_StdPeriph_Driver/src/stm32f10x_rcc.c ****   else
1171:Libraries/STM32F10x_StdPeriph_Driver/src/stm32f10x_rcc.c ****   {
1172:Libraries/STM32F10x_StdPeriph_Driver/src/stm32f10x_rcc.c ****     RCC->AHBRSTR &= ~RCC_AHBPeriph;
1173:Libraries/STM32F10x_StdPeriph_Driver/src/stm32f10x_rcc.c ****   }
1174:Libraries/STM32F10x_StdPeriph_Driver/src/stm32f10x_rcc.c **** }
1175:Libraries/STM32F10x_StdPeriph_Driver/src/stm32f10x_rcc.c **** #endif /* STM32F10X_CL */ 
1176:Libraries/STM32F10x_StdPeriph_Driver/src/stm32f10x_rcc.c **** 
1177:Libraries/STM32F10x_StdPeriph_Driver/src/stm32f10x_rcc.c **** /**
1178:Libraries/STM32F10x_StdPeriph_Driver/src/stm32f10x_rcc.c ****   * @brief  Forces or releases High Speed APB (APB2) peripheral reset.
1179:Libraries/STM32F10x_StdPeriph_Driver/src/stm32f10x_rcc.c ****   * @param  RCC_APB2Periph: specifies the APB2 peripheral to reset.
1180:Libraries/STM32F10x_StdPeriph_Driver/src/stm32f10x_rcc.c ****   *   This parameter can be any combination of the following values:
1181:Libraries/STM32F10x_StdPeriph_Driver/src/stm32f10x_rcc.c ****   *     @arg RCC_APB2Periph_AFIO, RCC_APB2Periph_GPIOA, RCC_APB2Periph_GPIOB,
1182:Libraries/STM32F10x_StdPeriph_Driver/src/stm32f10x_rcc.c ****   *          RCC_APB2Periph_GPIOC, RCC_APB2Periph_GPIOD, RCC_APB2Periph_GPIOE,
1183:Libraries/STM32F10x_StdPeriph_Driver/src/stm32f10x_rcc.c ****   *          RCC_APB2Periph_GPIOF, RCC_APB2Periph_GPIOG, RCC_APB2Periph_ADC1,
1184:Libraries/STM32F10x_StdPeriph_Driver/src/stm32f10x_rcc.c ****   *          RCC_APB2Periph_ADC2, RCC_APB2Periph_TIM1, RCC_APB2Periph_SPI1,
1185:Libraries/STM32F10x_StdPeriph_Driver/src/stm32f10x_rcc.c ****   *          RCC_APB2Periph_TIM8, RCC_APB2Periph_USART1, RCC_APB2Periph_ADC3,
1186:Libraries/STM32F10x_StdPeriph_Driver/src/stm32f10x_rcc.c ****   *          RCC_APB2Periph_TIM15, RCC_APB2Periph_TIM16, RCC_APB2Periph_TIM17,
1187:Libraries/STM32F10x_StdPeriph_Driver/src/stm32f10x_rcc.c ****   *          RCC_APB2Periph_TIM9, RCC_APB2Periph_TIM10, RCC_APB2Periph_TIM11  
1188:Libraries/STM32F10x_StdPeriph_Driver/src/stm32f10x_rcc.c ****   * @param  NewState: new state of the specified peripheral reset.
1189:Libraries/STM32F10x_StdPeriph_Driver/src/stm32f10x_rcc.c ****   *   This parameter can be: ENABLE or DISABLE.
1190:Libraries/STM32F10x_StdPeriph_Driver/src/stm32f10x_rcc.c ****   * @retval None
1191:Libraries/STM32F10x_StdPeriph_Driver/src/stm32f10x_rcc.c ****   */
1192:Libraries/STM32F10x_StdPeriph_Driver/src/stm32f10x_rcc.c **** void RCC_APB2PeriphResetCmd(uint32_t RCC_APB2Periph, FunctionalState NewState)
1193:Libraries/STM32F10x_StdPeriph_Driver/src/stm32f10x_rcc.c **** {
1194:Libraries/STM32F10x_StdPeriph_Driver/src/stm32f10x_rcc.c ****   /* Check the parameters */
1195:Libraries/STM32F10x_StdPeriph_Driver/src/stm32f10x_rcc.c ****   assert_param(IS_RCC_APB2_PERIPH(RCC_APB2Periph));
1196:Libraries/STM32F10x_StdPeriph_Driver/src/stm32f10x_rcc.c ****   assert_param(IS_FUNCTIONAL_STATE(NewState));
1197:Libraries/STM32F10x_StdPeriph_Driver/src/stm32f10x_rcc.c ****   if (NewState != DISABLE)
1198:Libraries/STM32F10x_StdPeriph_Driver/src/stm32f10x_rcc.c ****   {
1199:Libraries/STM32F10x_StdPeriph_Driver/src/stm32f10x_rcc.c ****     RCC->APB2RSTR |= RCC_APB2Periph;
1200:Libraries/STM32F10x_StdPeriph_Driver/src/stm32f10x_rcc.c ****   }
1201:Libraries/STM32F10x_StdPeriph_Driver/src/stm32f10x_rcc.c ****   else
1202:Libraries/STM32F10x_StdPeriph_Driver/src/stm32f10x_rcc.c ****   {
1203:Libraries/STM32F10x_StdPeriph_Driver/src/stm32f10x_rcc.c ****     RCC->APB2RSTR &= ~RCC_APB2Periph;
1204:Libraries/STM32F10x_StdPeriph_Driver/src/stm32f10x_rcc.c ****   }
1205:Libraries/STM32F10x_StdPeriph_Driver/src/stm32f10x_rcc.c **** }
1206:Libraries/STM32F10x_StdPeriph_Driver/src/stm32f10x_rcc.c **** 
1207:Libraries/STM32F10x_StdPeriph_Driver/src/stm32f10x_rcc.c **** /**
1208:Libraries/STM32F10x_StdPeriph_Driver/src/stm32f10x_rcc.c ****   * @brief  Forces or releases Low Speed APB (APB1) peripheral reset.
1209:Libraries/STM32F10x_StdPeriph_Driver/src/stm32f10x_rcc.c ****   * @param  RCC_APB1Periph: specifies the APB1 peripheral to reset.
1210:Libraries/STM32F10x_StdPeriph_Driver/src/stm32f10x_rcc.c ****   *   This parameter can be any combination of the following values:
1211:Libraries/STM32F10x_StdPeriph_Driver/src/stm32f10x_rcc.c ****   *     @arg RCC_APB1Periph_TIM2, RCC_APB1Periph_TIM3, RCC_APB1Periph_TIM4,
1212:Libraries/STM32F10x_StdPeriph_Driver/src/stm32f10x_rcc.c ****   *          RCC_APB1Periph_TIM5, RCC_APB1Periph_TIM6, RCC_APB1Periph_TIM7,
1213:Libraries/STM32F10x_StdPeriph_Driver/src/stm32f10x_rcc.c ****   *          RCC_APB1Periph_WWDG, RCC_APB1Periph_SPI2, RCC_APB1Periph_SPI3,
1214:Libraries/STM32F10x_StdPeriph_Driver/src/stm32f10x_rcc.c ****   *          RCC_APB1Periph_USART2, RCC_APB1Periph_USART3, RCC_APB1Periph_USART4, 
1215:Libraries/STM32F10x_StdPeriph_Driver/src/stm32f10x_rcc.c ****   *          RCC_APB1Periph_USART5, RCC_APB1Periph_I2C1, RCC_APB1Periph_I2C2,
1216:Libraries/STM32F10x_StdPeriph_Driver/src/stm32f10x_rcc.c ****   *          RCC_APB1Periph_USB, RCC_APB1Periph_CAN1, RCC_APB1Periph_BKP,
1217:Libraries/STM32F10x_StdPeriph_Driver/src/stm32f10x_rcc.c ****   *          RCC_APB1Periph_PWR, RCC_APB1Periph_DAC, RCC_APB1Periph_CEC,
1218:Libraries/STM32F10x_StdPeriph_Driver/src/stm32f10x_rcc.c ****   *          RCC_APB1Periph_TIM12, RCC_APB1Periph_TIM13, RCC_APB1Periph_TIM14  
1219:Libraries/STM32F10x_StdPeriph_Driver/src/stm32f10x_rcc.c ****   * @param  NewState: new state of the specified peripheral clock.
1220:Libraries/STM32F10x_StdPeriph_Driver/src/stm32f10x_rcc.c ****   *   This parameter can be: ENABLE or DISABLE.
1221:Libraries/STM32F10x_StdPeriph_Driver/src/stm32f10x_rcc.c ****   * @retval None
1222:Libraries/STM32F10x_StdPeriph_Driver/src/stm32f10x_rcc.c ****   */
1223:Libraries/STM32F10x_StdPeriph_Driver/src/stm32f10x_rcc.c **** void RCC_APB1PeriphResetCmd(uint32_t RCC_APB1Periph, FunctionalState NewState)
1224:Libraries/STM32F10x_StdPeriph_Driver/src/stm32f10x_rcc.c **** {
1225:Libraries/STM32F10x_StdPeriph_Driver/src/stm32f10x_rcc.c ****   /* Check the parameters */
1226:Libraries/STM32F10x_StdPeriph_Driver/src/stm32f10x_rcc.c ****   assert_param(IS_RCC_APB1_PERIPH(RCC_APB1Periph));
1227:Libraries/STM32F10x_StdPeriph_Driver/src/stm32f10x_rcc.c ****   assert_param(IS_FUNCTIONAL_STATE(NewState));
1228:Libraries/STM32F10x_StdPeriph_Driver/src/stm32f10x_rcc.c ****   if (NewState != DISABLE)
1229:Libraries/STM32F10x_StdPeriph_Driver/src/stm32f10x_rcc.c ****   {
1230:Libraries/STM32F10x_StdPeriph_Driver/src/stm32f10x_rcc.c ****     RCC->APB1RSTR |= RCC_APB1Periph;
1231:Libraries/STM32F10x_StdPeriph_Driver/src/stm32f10x_rcc.c ****   }
1232:Libraries/STM32F10x_StdPeriph_Driver/src/stm32f10x_rcc.c ****   else
1233:Libraries/STM32F10x_StdPeriph_Driver/src/stm32f10x_rcc.c ****   {
1234:Libraries/STM32F10x_StdPeriph_Driver/src/stm32f10x_rcc.c ****     RCC->APB1RSTR &= ~RCC_APB1Periph;
1235:Libraries/STM32F10x_StdPeriph_Driver/src/stm32f10x_rcc.c ****   }
1236:Libraries/STM32F10x_StdPeriph_Driver/src/stm32f10x_rcc.c **** }
1237:Libraries/STM32F10x_StdPeriph_Driver/src/stm32f10x_rcc.c **** 
1238:Libraries/STM32F10x_StdPeriph_Driver/src/stm32f10x_rcc.c **** /**
1239:Libraries/STM32F10x_StdPeriph_Driver/src/stm32f10x_rcc.c ****   * @brief  Forces or releases the Backup domain reset.
1240:Libraries/STM32F10x_StdPeriph_Driver/src/stm32f10x_rcc.c ****   * @param  NewState: new state of the Backup domain reset.
1241:Libraries/STM32F10x_StdPeriph_Driver/src/stm32f10x_rcc.c ****   *   This parameter can be: ENABLE or DISABLE.
1242:Libraries/STM32F10x_StdPeriph_Driver/src/stm32f10x_rcc.c ****   * @retval None
1243:Libraries/STM32F10x_StdPeriph_Driver/src/stm32f10x_rcc.c ****   */
1244:Libraries/STM32F10x_StdPeriph_Driver/src/stm32f10x_rcc.c **** void RCC_BackupResetCmd(FunctionalState NewState)
1245:Libraries/STM32F10x_StdPeriph_Driver/src/stm32f10x_rcc.c **** {
1246:Libraries/STM32F10x_StdPeriph_Driver/src/stm32f10x_rcc.c ****   /* Check the parameters */
1247:Libraries/STM32F10x_StdPeriph_Driver/src/stm32f10x_rcc.c ****   assert_param(IS_FUNCTIONAL_STATE(NewState));
1248:Libraries/STM32F10x_StdPeriph_Driver/src/stm32f10x_rcc.c ****   *(__IO uint32_t *) BDCR_BDRST_BB = (uint32_t)NewState;
1249:Libraries/STM32F10x_StdPeriph_Driver/src/stm32f10x_rcc.c **** }
1250:Libraries/STM32F10x_StdPeriph_Driver/src/stm32f10x_rcc.c **** 
1251:Libraries/STM32F10x_StdPeriph_Driver/src/stm32f10x_rcc.c **** /**
1252:Libraries/STM32F10x_StdPeriph_Driver/src/stm32f10x_rcc.c ****   * @brief  Enables or disables the Clock Security System.
1253:Libraries/STM32F10x_StdPeriph_Driver/src/stm32f10x_rcc.c ****   * @param  NewState: new state of the Clock Security System..
1254:Libraries/STM32F10x_StdPeriph_Driver/src/stm32f10x_rcc.c ****   *   This parameter can be: ENABLE or DISABLE.
1255:Libraries/STM32F10x_StdPeriph_Driver/src/stm32f10x_rcc.c ****   * @retval None
1256:Libraries/STM32F10x_StdPeriph_Driver/src/stm32f10x_rcc.c ****   */
1257:Libraries/STM32F10x_StdPeriph_Driver/src/stm32f10x_rcc.c **** void RCC_ClockSecuritySystemCmd(FunctionalState NewState)
1258:Libraries/STM32F10x_StdPeriph_Driver/src/stm32f10x_rcc.c **** {
1259:Libraries/STM32F10x_StdPeriph_Driver/src/stm32f10x_rcc.c ****   /* Check the parameters */
1260:Libraries/STM32F10x_StdPeriph_Driver/src/stm32f10x_rcc.c ****   assert_param(IS_FUNCTIONAL_STATE(NewState));
1261:Libraries/STM32F10x_StdPeriph_Driver/src/stm32f10x_rcc.c ****   *(__IO uint32_t *) CR_CSSON_BB = (uint32_t)NewState;
1262:Libraries/STM32F10x_StdPeriph_Driver/src/stm32f10x_rcc.c **** }
1263:Libraries/STM32F10x_StdPeriph_Driver/src/stm32f10x_rcc.c **** 
1264:Libraries/STM32F10x_StdPeriph_Driver/src/stm32f10x_rcc.c **** /**
1265:Libraries/STM32F10x_StdPeriph_Driver/src/stm32f10x_rcc.c ****   * @brief  Selects the clock source to output on MCO pin.
1266:Libraries/STM32F10x_StdPeriph_Driver/src/stm32f10x_rcc.c ****   * @param  RCC_MCO: specifies the clock source to output.
1267:Libraries/STM32F10x_StdPeriph_Driver/src/stm32f10x_rcc.c ****   *   
1268:Libraries/STM32F10x_StdPeriph_Driver/src/stm32f10x_rcc.c ****   *   For @b STM32_Connectivity_line_devices, this parameter can be one of the
1269:Libraries/STM32F10x_StdPeriph_Driver/src/stm32f10x_rcc.c ****   *   following values:       
1270:Libraries/STM32F10x_StdPeriph_Driver/src/stm32f10x_rcc.c ****   *     @arg RCC_MCO_NoClock: No clock selected
1271:Libraries/STM32F10x_StdPeriph_Driver/src/stm32f10x_rcc.c ****   *     @arg RCC_MCO_SYSCLK: System clock selected
1272:Libraries/STM32F10x_StdPeriph_Driver/src/stm32f10x_rcc.c ****   *     @arg RCC_MCO_HSI: HSI oscillator clock selected
1273:Libraries/STM32F10x_StdPeriph_Driver/src/stm32f10x_rcc.c ****   *     @arg RCC_MCO_HSE: HSE oscillator clock selected
1274:Libraries/STM32F10x_StdPeriph_Driver/src/stm32f10x_rcc.c ****   *     @arg RCC_MCO_PLLCLK_Div2: PLL clock divided by 2 selected
1275:Libraries/STM32F10x_StdPeriph_Driver/src/stm32f10x_rcc.c ****   *     @arg RCC_MCO_PLL2CLK: PLL2 clock selected                     
1276:Libraries/STM32F10x_StdPeriph_Driver/src/stm32f10x_rcc.c ****   *     @arg RCC_MCO_PLL3CLK_Div2: PLL3 clock divided by 2 selected   
1277:Libraries/STM32F10x_StdPeriph_Driver/src/stm32f10x_rcc.c ****   *     @arg RCC_MCO_XT1: External 3-25 MHz oscillator clock selected  
1278:Libraries/STM32F10x_StdPeriph_Driver/src/stm32f10x_rcc.c ****   *     @arg RCC_MCO_PLL3CLK: PLL3 clock selected 
1279:Libraries/STM32F10x_StdPeriph_Driver/src/stm32f10x_rcc.c ****   * 
1280:Libraries/STM32F10x_StdPeriph_Driver/src/stm32f10x_rcc.c ****   *   For  @b other_STM32_devices, this parameter can be one of the following values:        
1281:Libraries/STM32F10x_StdPeriph_Driver/src/stm32f10x_rcc.c ****   *     @arg RCC_MCO_NoClock: No clock selected
1282:Libraries/STM32F10x_StdPeriph_Driver/src/stm32f10x_rcc.c ****   *     @arg RCC_MCO_SYSCLK: System clock selected
1283:Libraries/STM32F10x_StdPeriph_Driver/src/stm32f10x_rcc.c ****   *     @arg RCC_MCO_HSI: HSI oscillator clock selected
1284:Libraries/STM32F10x_StdPeriph_Driver/src/stm32f10x_rcc.c ****   *     @arg RCC_MCO_HSE: HSE oscillator clock selected
1285:Libraries/STM32F10x_StdPeriph_Driver/src/stm32f10x_rcc.c ****   *     @arg RCC_MCO_PLLCLK_Div2: PLL clock divided by 2 selected
1286:Libraries/STM32F10x_StdPeriph_Driver/src/stm32f10x_rcc.c ****   *   
1287:Libraries/STM32F10x_StdPeriph_Driver/src/stm32f10x_rcc.c ****   * @retval None
1288:Libraries/STM32F10x_StdPeriph_Driver/src/stm32f10x_rcc.c ****   */
1289:Libraries/STM32F10x_StdPeriph_Driver/src/stm32f10x_rcc.c **** void RCC_MCOConfig(uint8_t RCC_MCO)
1290:Libraries/STM32F10x_StdPeriph_Driver/src/stm32f10x_rcc.c **** {
1291:Libraries/STM32F10x_StdPeriph_Driver/src/stm32f10x_rcc.c ****   /* Check the parameters */
1292:Libraries/STM32F10x_StdPeriph_Driver/src/stm32f10x_rcc.c ****   assert_param(IS_RCC_MCO(RCC_MCO));
1293:Libraries/STM32F10x_StdPeriph_Driver/src/stm32f10x_rcc.c **** 
1294:Libraries/STM32F10x_StdPeriph_Driver/src/stm32f10x_rcc.c ****   /* Perform Byte access to MCO bits to select the MCO source */
1295:Libraries/STM32F10x_StdPeriph_Driver/src/stm32f10x_rcc.c ****   *(__IO uint8_t *) CFGR_BYTE4_ADDRESS = RCC_MCO;
1296:Libraries/STM32F10x_StdPeriph_Driver/src/stm32f10x_rcc.c **** }
1297:Libraries/STM32F10x_StdPeriph_Driver/src/stm32f10x_rcc.c **** 
1298:Libraries/STM32F10x_StdPeriph_Driver/src/stm32f10x_rcc.c **** /**
1299:Libraries/STM32F10x_StdPeriph_Driver/src/stm32f10x_rcc.c ****   * @brief  Checks whether the specified RCC flag is set or not.
1300:Libraries/STM32F10x_StdPeriph_Driver/src/stm32f10x_rcc.c ****   * @param  RCC_FLAG: specifies the flag to check.
1301:Libraries/STM32F10x_StdPeriph_Driver/src/stm32f10x_rcc.c ****   *   
1302:Libraries/STM32F10x_StdPeriph_Driver/src/stm32f10x_rcc.c ****   *   For @b STM32_Connectivity_line_devices, this parameter can be one of the
1303:Libraries/STM32F10x_StdPeriph_Driver/src/stm32f10x_rcc.c ****   *   following values:
1304:Libraries/STM32F10x_StdPeriph_Driver/src/stm32f10x_rcc.c ****   *     @arg RCC_FLAG_HSIRDY: HSI oscillator clock ready
1305:Libraries/STM32F10x_StdPeriph_Driver/src/stm32f10x_rcc.c ****   *     @arg RCC_FLAG_HSERDY: HSE oscillator clock ready
1306:Libraries/STM32F10x_StdPeriph_Driver/src/stm32f10x_rcc.c ****   *     @arg RCC_FLAG_PLLRDY: PLL clock ready
1307:Libraries/STM32F10x_StdPeriph_Driver/src/stm32f10x_rcc.c ****   *     @arg RCC_FLAG_PLL2RDY: PLL2 clock ready      
1308:Libraries/STM32F10x_StdPeriph_Driver/src/stm32f10x_rcc.c ****   *     @arg RCC_FLAG_PLL3RDY: PLL3 clock ready                           
1309:Libraries/STM32F10x_StdPeriph_Driver/src/stm32f10x_rcc.c ****   *     @arg RCC_FLAG_LSERDY: LSE oscillator clock ready
1310:Libraries/STM32F10x_StdPeriph_Driver/src/stm32f10x_rcc.c ****   *     @arg RCC_FLAG_LSIRDY: LSI oscillator clock ready
1311:Libraries/STM32F10x_StdPeriph_Driver/src/stm32f10x_rcc.c ****   *     @arg RCC_FLAG_PINRST: Pin reset
1312:Libraries/STM32F10x_StdPeriph_Driver/src/stm32f10x_rcc.c ****   *     @arg RCC_FLAG_PORRST: POR/PDR reset
1313:Libraries/STM32F10x_StdPeriph_Driver/src/stm32f10x_rcc.c ****   *     @arg RCC_FLAG_SFTRST: Software reset
1314:Libraries/STM32F10x_StdPeriph_Driver/src/stm32f10x_rcc.c ****   *     @arg RCC_FLAG_IWDGRST: Independent Watchdog reset
1315:Libraries/STM32F10x_StdPeriph_Driver/src/stm32f10x_rcc.c ****   *     @arg RCC_FLAG_WWDGRST: Window Watchdog reset
1316:Libraries/STM32F10x_StdPeriph_Driver/src/stm32f10x_rcc.c ****   *     @arg RCC_FLAG_LPWRRST: Low Power reset
1317:Libraries/STM32F10x_StdPeriph_Driver/src/stm32f10x_rcc.c ****   * 
1318:Libraries/STM32F10x_StdPeriph_Driver/src/stm32f10x_rcc.c ****   *   For @b other_STM32_devices, this parameter can be one of the following values:        
1319:Libraries/STM32F10x_StdPeriph_Driver/src/stm32f10x_rcc.c ****   *     @arg RCC_FLAG_HSIRDY: HSI oscillator clock ready
1320:Libraries/STM32F10x_StdPeriph_Driver/src/stm32f10x_rcc.c ****   *     @arg RCC_FLAG_HSERDY: HSE oscillator clock ready
1321:Libraries/STM32F10x_StdPeriph_Driver/src/stm32f10x_rcc.c ****   *     @arg RCC_FLAG_PLLRDY: PLL clock ready
1322:Libraries/STM32F10x_StdPeriph_Driver/src/stm32f10x_rcc.c ****   *     @arg RCC_FLAG_LSERDY: LSE oscillator clock ready
1323:Libraries/STM32F10x_StdPeriph_Driver/src/stm32f10x_rcc.c ****   *     @arg RCC_FLAG_LSIRDY: LSI oscillator clock ready
1324:Libraries/STM32F10x_StdPeriph_Driver/src/stm32f10x_rcc.c ****   *     @arg RCC_FLAG_PINRST: Pin reset
1325:Libraries/STM32F10x_StdPeriph_Driver/src/stm32f10x_rcc.c ****   *     @arg RCC_FLAG_PORRST: POR/PDR reset
1326:Libraries/STM32F10x_StdPeriph_Driver/src/stm32f10x_rcc.c ****   *     @arg RCC_FLAG_SFTRST: Software reset
1327:Libraries/STM32F10x_StdPeriph_Driver/src/stm32f10x_rcc.c ****   *     @arg RCC_FLAG_IWDGRST: Independent Watchdog reset
1328:Libraries/STM32F10x_StdPeriph_Driver/src/stm32f10x_rcc.c ****   *     @arg RCC_FLAG_WWDGRST: Window Watchdog reset
1329:Libraries/STM32F10x_StdPeriph_Driver/src/stm32f10x_rcc.c ****   *     @arg RCC_FLAG_LPWRRST: Low Power reset
1330:Libraries/STM32F10x_StdPeriph_Driver/src/stm32f10x_rcc.c ****   *   
1331:Libraries/STM32F10x_StdPeriph_Driver/src/stm32f10x_rcc.c ****   * @retval The new state of RCC_FLAG (SET or RESET).
1332:Libraries/STM32F10x_StdPeriph_Driver/src/stm32f10x_rcc.c ****   */
1333:Libraries/STM32F10x_StdPeriph_Driver/src/stm32f10x_rcc.c **** FlagStatus RCC_GetFlagStatus(uint8_t RCC_FLAG)
1334:Libraries/STM32F10x_StdPeriph_Driver/src/stm32f10x_rcc.c **** {
1335:Libraries/STM32F10x_StdPeriph_Driver/src/stm32f10x_rcc.c ****   uint32_t tmp = 0;
1336:Libraries/STM32F10x_StdPeriph_Driver/src/stm32f10x_rcc.c ****   uint32_t statusreg = 0;
1337:Libraries/STM32F10x_StdPeriph_Driver/src/stm32f10x_rcc.c ****   FlagStatus bitstatus = RESET;
1338:Libraries/STM32F10x_StdPeriph_Driver/src/stm32f10x_rcc.c ****   /* Check the parameters */
1339:Libraries/STM32F10x_StdPeriph_Driver/src/stm32f10x_rcc.c ****   assert_param(IS_RCC_FLAG(RCC_FLAG));
1340:Libraries/STM32F10x_StdPeriph_Driver/src/stm32f10x_rcc.c **** 
1341:Libraries/STM32F10x_StdPeriph_Driver/src/stm32f10x_rcc.c ****   /* Get the RCC register index */
1342:Libraries/STM32F10x_StdPeriph_Driver/src/stm32f10x_rcc.c ****   tmp = RCC_FLAG >> 5;
1343:Libraries/STM32F10x_StdPeriph_Driver/src/stm32f10x_rcc.c ****   if (tmp == 1)               /* The flag to check is in CR register */
1344:Libraries/STM32F10x_StdPeriph_Driver/src/stm32f10x_rcc.c ****   {
1345:Libraries/STM32F10x_StdPeriph_Driver/src/stm32f10x_rcc.c ****     statusreg = RCC->CR;
 211              		.loc 1 1345 0
 212 0004 094A     		ldr	r2, .L28
 213              	.LBE7:
 214              	.LBE6:
 315:Libraries/STM32F10x_StdPeriph_Driver/src/stm32f10x_rcc.c ****   ErrorStatus status = ERROR;
 215              		.loc 1 315 0
 216 0006 0193     		str	r3, [sp, #4]
 217              	.LVL6:
 218              	.L25:
 219              	.LBB10:
 220              	.LBB8:
 221              		.loc 1 1345 0 discriminator 2
 222 0008 1368     		ldr	r3, [r2]
 223              	.LVL7:
1346:Libraries/STM32F10x_StdPeriph_Driver/src/stm32f10x_rcc.c ****   }
1347:Libraries/STM32F10x_StdPeriph_Driver/src/stm32f10x_rcc.c ****   else if (tmp == 2)          /* The flag to check is in BDCR register */
1348:Libraries/STM32F10x_StdPeriph_Driver/src/stm32f10x_rcc.c ****   {
1349:Libraries/STM32F10x_StdPeriph_Driver/src/stm32f10x_rcc.c ****     statusreg = RCC->BDCR;
1350:Libraries/STM32F10x_StdPeriph_Driver/src/stm32f10x_rcc.c ****   }
1351:Libraries/STM32F10x_StdPeriph_Driver/src/stm32f10x_rcc.c ****   else                       /* The flag to check is in CSR register */
1352:Libraries/STM32F10x_StdPeriph_Driver/src/stm32f10x_rcc.c ****   {
1353:Libraries/STM32F10x_StdPeriph_Driver/src/stm32f10x_rcc.c ****     statusreg = RCC->CSR;
1354:Libraries/STM32F10x_StdPeriph_Driver/src/stm32f10x_rcc.c ****   }
1355:Libraries/STM32F10x_StdPeriph_Driver/src/stm32f10x_rcc.c **** 
1356:Libraries/STM32F10x_StdPeriph_Driver/src/stm32f10x_rcc.c ****   /* Get the flag position */
1357:Libraries/STM32F10x_StdPeriph_Driver/src/stm32f10x_rcc.c ****   tmp = RCC_FLAG & FLAG_Mask;
1358:Libraries/STM32F10x_StdPeriph_Driver/src/stm32f10x_rcc.c ****   if ((statusreg & ((uint32_t)1 << tmp)) != (uint32_t)RESET)
 224              		.loc 1 1358 0 discriminator 2
 225 000a 13F4003F 		tst	r3, #131072
 226              	.LBE8:
 227              	.LBE10:
 323:Libraries/STM32F10x_StdPeriph_Driver/src/stm32f10x_rcc.c ****   } while((StartUpCounter != HSEStartUp_TimeOut) && (HSEStatus == RESET));
 228              		.loc 1 323 0 discriminator 2
 229 000e 019B     		ldr	r3, [sp, #4]
 230              	.LVL8:
 231 0010 03F10103 		add	r3, r3, #1
 232 0014 0193     		str	r3, [sp, #4]
 324:Libraries/STM32F10x_StdPeriph_Driver/src/stm32f10x_rcc.c ****   
 233              		.loc 1 324 0 discriminator 2
 234 0016 019B     		ldr	r3, [sp, #4]
 235              	.LBB11:
 236              	.LBB9:
 237              		.loc 1 1358 0 discriminator 2
 238 0018 02D1     		bne	.L24
 239              	.LBE9:
 240              	.LBE11:
 324:Libraries/STM32F10x_StdPeriph_Driver/src/stm32f10x_rcc.c ****   
 241              		.loc 1 324 0
 242 001a B3F5A06F 		cmp	r3, #1280
 243 001e F3D1     		bne	.L25
 244              	.L24:
 245              	.LVL9:
 246              	.LBB12:
 247              	.LBB13:
1345:Libraries/STM32F10x_StdPeriph_Driver/src/stm32f10x_rcc.c ****   }
 248              		.loc 1 1345 0
 249 0020 024B     		ldr	r3, .L28
 250 0022 1868     		ldr	r0, [r3]
 251              	.LVL10:
 252              	.LBE13:
 253              	.LBE12:
 335:Libraries/STM32F10x_StdPeriph_Driver/src/stm32f10x_rcc.c **** 
 254              		.loc 1 335 0
 255 0024 C0F34040 		ubfx	r0, r0, #17, #1
 256              	.LVL11:
 257 0028 02B0     		add	sp, sp, #8
 258              		.cfi_def_cfa_offset 0
 259              		@ sp needed
 260 002a 7047     		bx	lr
 261              	.L29:
 262              		.align	2
 263              	.L28:
 264 002c 00100240 		.word	1073876992
 265              		.cfi_endproc
 266              	.LFE31:
 268              		.section	.text.RCC_AdjustHSICalibrationValue,"ax",%progbits
 269              		.align	1
 270              		.p2align 2,,3
 271              		.global	RCC_AdjustHSICalibrationValue
 272              		.syntax unified
 273              		.thumb
 274              		.thumb_func
 275              		.fpu softvfp
 277              	RCC_AdjustHSICalibrationValue:
 278              	.LFB32:
 344:Libraries/STM32F10x_StdPeriph_Driver/src/stm32f10x_rcc.c ****   uint32_t tmpreg = 0;
 279              		.loc 1 344 0
 280              		.cfi_startproc
 281              		@ args = 0, pretend = 0, frame = 0
 282              		@ frame_needed = 0, uses_anonymous_args = 0
 283              	.LVL12:
 347:Libraries/STM32F10x_StdPeriph_Driver/src/stm32f10x_rcc.c ****   tmpreg = RCC->CR;
 284              		.loc 1 347 0
 285 0000 1F28     		cmp	r0, #31
 344:Libraries/STM32F10x_StdPeriph_Driver/src/stm32f10x_rcc.c ****   uint32_t tmpreg = 0;
 286              		.loc 1 344 0
 287 0002 10B5     		push	{r4, lr}
 288              		.cfi_def_cfa_offset 8
 289              		.cfi_offset 4, -8
 290              		.cfi_offset 14, -4
 344:Libraries/STM32F10x_StdPeriph_Driver/src/stm32f10x_rcc.c ****   uint32_t tmpreg = 0;
 291              		.loc 1 344 0
 292 0004 0446     		mov	r4, r0
 347:Libraries/STM32F10x_StdPeriph_Driver/src/stm32f10x_rcc.c ****   tmpreg = RCC->CR;
 293              		.loc 1 347 0
 294 0006 04D9     		bls	.L31
 347:Libraries/STM32F10x_StdPeriph_Driver/src/stm32f10x_rcc.c ****   tmpreg = RCC->CR;
 295              		.loc 1 347 0 is_stmt 0 discriminator 1
 296 0008 40F25B11 		movw	r1, #347
 297 000c 0548     		ldr	r0, .L33
 298              	.LVL13:
 299 000e 064B     		ldr	r3, .L33+4
 300 0010 9847     		blx	r3
 301              	.LVL14:
 302              	.L31:
 348:Libraries/STM32F10x_StdPeriph_Driver/src/stm32f10x_rcc.c ****   /* Clear HSITRIM[4:0] bits */
 303              		.loc 1 348 0 is_stmt 1
 304 0012 064B     		ldr	r3, .L33+8
 305 0014 1868     		ldr	r0, [r3]
 306              	.LVL15:
 350:Libraries/STM32F10x_StdPeriph_Driver/src/stm32f10x_rcc.c ****   /* Set the HSITRIM[4:0] bits according to HSICalibrationValue value */
 307              		.loc 1 350 0
 308 0016 20F0F800 		bic	r0, r0, #248
 309              	.LVL16:
 352:Libraries/STM32F10x_StdPeriph_Driver/src/stm32f10x_rcc.c ****   /* Store the new value */
 310              		.loc 1 352 0
 311 001a 40EAC400 		orr	r0, r0, r4, lsl #3
 312              	.LVL17:
 354:Libraries/STM32F10x_StdPeriph_Driver/src/stm32f10x_rcc.c **** }
 313              		.loc 1 354 0
 314 001e 1860     		str	r0, [r3]
 355:Libraries/STM32F10x_StdPeriph_Driver/src/stm32f10x_rcc.c **** 
 315              		.loc 1 355 0
 316 0020 10BD     		pop	{r4, pc}
 317              	.L34:
 318 0022 00BF     		.align	2
 319              	.L33:
 320 0024 00000000 		.word	.LC0
 321 0028 00000000 		.word	assert_failed
 322 002c 00100240 		.word	1073876992
 323              		.cfi_endproc
 324              	.LFE32:
 326              		.section	.text.RCC_HSICmd,"ax",%progbits
 327              		.align	1
 328              		.p2align 2,,3
 329              		.global	RCC_HSICmd
 330              		.syntax unified
 331              		.thumb
 332              		.thumb_func
 333              		.fpu softvfp
 335              	RCC_HSICmd:
 336              	.LFB33:
 364:Libraries/STM32F10x_StdPeriph_Driver/src/stm32f10x_rcc.c ****   /* Check the parameters */
 337              		.loc 1 364 0
 338              		.cfi_startproc
 339              		@ args = 0, pretend = 0, frame = 0
 340              		@ frame_needed = 0, uses_anonymous_args = 0
 341              	.LVL18:
 366:Libraries/STM32F10x_StdPeriph_Driver/src/stm32f10x_rcc.c ****   *(__IO uint32_t *) CR_HSION_BB = (uint32_t)NewState;
 342              		.loc 1 366 0
 343 0000 0128     		cmp	r0, #1
 364:Libraries/STM32F10x_StdPeriph_Driver/src/stm32f10x_rcc.c ****   /* Check the parameters */
 344              		.loc 1 364 0
 345 0002 10B5     		push	{r4, lr}
 346              		.cfi_def_cfa_offset 8
 347              		.cfi_offset 4, -8
 348              		.cfi_offset 14, -4
 364:Libraries/STM32F10x_StdPeriph_Driver/src/stm32f10x_rcc.c ****   /* Check the parameters */
 349              		.loc 1 364 0
 350 0004 0446     		mov	r4, r0
 366:Libraries/STM32F10x_StdPeriph_Driver/src/stm32f10x_rcc.c ****   *(__IO uint32_t *) CR_HSION_BB = (uint32_t)NewState;
 351              		.loc 1 366 0
 352 0006 04D9     		bls	.L36
 366:Libraries/STM32F10x_StdPeriph_Driver/src/stm32f10x_rcc.c ****   *(__IO uint32_t *) CR_HSION_BB = (uint32_t)NewState;
 353              		.loc 1 366 0 is_stmt 0 discriminator 1
 354 0008 4FF4B771 		mov	r1, #366
 355 000c 0248     		ldr	r0, .L38
 356              	.LVL19:
 357 000e 034B     		ldr	r3, .L38+4
 358 0010 9847     		blx	r3
 359              	.LVL20:
 360              	.L36:
 367:Libraries/STM32F10x_StdPeriph_Driver/src/stm32f10x_rcc.c **** }
 361              		.loc 1 367 0 is_stmt 1
 362 0012 034B     		ldr	r3, .L38+8
 363 0014 1C60     		str	r4, [r3]
 368:Libraries/STM32F10x_StdPeriph_Driver/src/stm32f10x_rcc.c **** 
 364              		.loc 1 368 0
 365 0016 10BD     		pop	{r4, pc}
 366              	.L39:
 367              		.align	2
 368              	.L38:
 369 0018 00000000 		.word	.LC0
 370 001c 00000000 		.word	assert_failed
 371 0020 00004242 		.word	1111621632
 372              		.cfi_endproc
 373              	.LFE33:
 375              		.section	.text.RCC_PLLConfig,"ax",%progbits
 376              		.align	1
 377              		.p2align 2,,3
 378              		.global	RCC_PLLConfig
 379              		.syntax unified
 380              		.thumb
 381              		.thumb_func
 382              		.fpu softvfp
 384              	RCC_PLLConfig:
 385              	.LFB34:
 388:Libraries/STM32F10x_StdPeriph_Driver/src/stm32f10x_rcc.c ****   uint32_t tmpreg = 0;
 386              		.loc 1 388 0
 387              		.cfi_startproc
 388              		@ args = 0, pretend = 0, frame = 0
 389              		@ frame_needed = 0, uses_anonymous_args = 0
 390              	.LVL21:
 391 0000 38B5     		push	{r3, r4, r5, lr}
 392              		.cfi_def_cfa_offset 16
 393              		.cfi_offset 3, -16
 394              		.cfi_offset 4, -12
 395              		.cfi_offset 5, -8
 396              		.cfi_offset 14, -4
 392:Libraries/STM32F10x_StdPeriph_Driver/src/stm32f10x_rcc.c ****   assert_param(IS_RCC_PLL_MUL(RCC_PLLMul));
 397              		.loc 1 392 0
 398 0002 30F48033 		bics	r3, r0, #65536
 388:Libraries/STM32F10x_StdPeriph_Driver/src/stm32f10x_rcc.c ****   uint32_t tmpreg = 0;
 399              		.loc 1 388 0
 400 0006 0446     		mov	r4, r0
 401 0008 0D46     		mov	r5, r1
 392:Libraries/STM32F10x_StdPeriph_Driver/src/stm32f10x_rcc.c ****   assert_param(IS_RCC_PLL_MUL(RCC_PLLMul));
 402              		.loc 1 392 0
 403 000a 02D0     		beq	.L41
 392:Libraries/STM32F10x_StdPeriph_Driver/src/stm32f10x_rcc.c ****   assert_param(IS_RCC_PLL_MUL(RCC_PLLMul));
 404              		.loc 1 392 0 is_stmt 0 discriminator 2
 405 000c B0F5403F 		cmp	r0, #196608
 406 0010 1DD1     		bne	.L65
 407              	.LVL22:
 408              	.L41:
 393:Libraries/STM32F10x_StdPeriph_Driver/src/stm32f10x_rcc.c **** 
 409              		.loc 1 393 0 is_stmt 1
 410 0012 35F44023 		bics	r3, r5, #786432
 411 0016 25F48022 		bic	r2, r5, #262144
 412 001a 10D0     		beq	.L42
 393:Libraries/STM32F10x_StdPeriph_Driver/src/stm32f10x_rcc.c **** 
 413              		.loc 1 393 0 is_stmt 0 discriminator 4
 414 001c B3F5801F 		cmp	r3, #1048576
 415 0020 0DD0     		beq	.L42
 393:Libraries/STM32F10x_StdPeriph_Driver/src/stm32f10x_rcc.c **** 
 416              		.loc 1 393 0 discriminator 8
 417 0022 B3F5001F 		cmp	r3, #2097152
 418 0026 0AD0     		beq	.L42
 393:Libraries/STM32F10x_StdPeriph_Driver/src/stm32f10x_rcc.c **** 
 419              		.loc 1 393 0 discriminator 12
 420 0028 B2F5401F 		cmp	r2, #3145728
 421 002c 07D0     		beq	.L42
 393:Libraries/STM32F10x_StdPeriph_Driver/src/stm32f10x_rcc.c **** 
 422              		.loc 1 393 0 discriminator 14
 423 002e B5F5601F 		cmp	r5, #3670016
 424 0032 04D0     		beq	.L42
 393:Libraries/STM32F10x_StdPeriph_Driver/src/stm32f10x_rcc.c **** 
 425              		.loc 1 393 0 discriminator 15
 426 0034 40F28911 		movw	r1, #393
 427 0038 0848     		ldr	r0, .L66
 428 003a 094B     		ldr	r3, .L66+4
 429 003c 9847     		blx	r3
 430              	.LVL23:
 431              	.L42:
 395:Libraries/STM32F10x_StdPeriph_Driver/src/stm32f10x_rcc.c ****   /* Clear PLLSRC, PLLXTPRE and PLLMUL[3:0] bits */
 432              		.loc 1 395 0 is_stmt 1
 433 003e 094B     		ldr	r3, .L66+8
 434 0040 5968     		ldr	r1, [r3, #4]
 435              	.LVL24:
 397:Libraries/STM32F10x_StdPeriph_Driver/src/stm32f10x_rcc.c ****   /* Set the PLL configuration bits */
 436              		.loc 1 397 0
 437 0042 21F47C11 		bic	r1, r1, #4128768
 438              	.LVL25:
 439 0046 2943     		orrs	r1, r1, r5
 440              	.LVL26:
 399:Libraries/STM32F10x_StdPeriph_Driver/src/stm32f10x_rcc.c ****   /* Store the new value */
 441              		.loc 1 399 0
 442 0048 2143     		orrs	r1, r1, r4
 443              	.LVL27:
 401:Libraries/STM32F10x_StdPeriph_Driver/src/stm32f10x_rcc.c **** }
 444              		.loc 1 401 0
 445 004a 5960     		str	r1, [r3, #4]
 402:Libraries/STM32F10x_StdPeriph_Driver/src/stm32f10x_rcc.c **** 
 446              		.loc 1 402 0
 447 004c 38BD     		pop	{r3, r4, r5, pc}
 448              	.LVL28:
 449              	.L65:
 392:Libraries/STM32F10x_StdPeriph_Driver/src/stm32f10x_rcc.c ****   assert_param(IS_RCC_PLL_MUL(RCC_PLLMul));
 450              		.loc 1 392 0 discriminator 3
 451 004e 4FF4C471 		mov	r1, #392
 452              	.LVL29:
 453 0052 034B     		ldr	r3, .L66+4
 454 0054 0148     		ldr	r0, .L66
 455              	.LVL30:
 456 0056 9847     		blx	r3
 457              	.LVL31:
 458 0058 DBE7     		b	.L41
 459              	.L67:
 460 005a 00BF     		.align	2
 461              	.L66:
 462 005c 00000000 		.word	.LC0
 463 0060 00000000 		.word	assert_failed
 464 0064 00100240 		.word	1073876992
 465              		.cfi_endproc
 466              	.LFE34:
 468              		.section	.text.RCC_PLLCmd,"ax",%progbits
 469              		.align	1
 470              		.p2align 2,,3
 471              		.global	RCC_PLLCmd
 472              		.syntax unified
 473              		.thumb
 474              		.thumb_func
 475              		.fpu softvfp
 477              	RCC_PLLCmd:
 478              	.LFB35:
 411:Libraries/STM32F10x_StdPeriph_Driver/src/stm32f10x_rcc.c ****   /* Check the parameters */
 479              		.loc 1 411 0
 480              		.cfi_startproc
 481              		@ args = 0, pretend = 0, frame = 0
 482              		@ frame_needed = 0, uses_anonymous_args = 0
 483              	.LVL32:
 413:Libraries/STM32F10x_StdPeriph_Driver/src/stm32f10x_rcc.c **** 
 484              		.loc 1 413 0
 485 0000 0128     		cmp	r0, #1
 411:Libraries/STM32F10x_StdPeriph_Driver/src/stm32f10x_rcc.c ****   /* Check the parameters */
 486              		.loc 1 411 0
 487 0002 10B5     		push	{r4, lr}
 488              		.cfi_def_cfa_offset 8
 489              		.cfi_offset 4, -8
 490              		.cfi_offset 14, -4
 411:Libraries/STM32F10x_StdPeriph_Driver/src/stm32f10x_rcc.c ****   /* Check the parameters */
 491              		.loc 1 411 0
 492 0004 0446     		mov	r4, r0
 413:Libraries/STM32F10x_StdPeriph_Driver/src/stm32f10x_rcc.c **** 
 493              		.loc 1 413 0
 494 0006 04D9     		bls	.L69
 413:Libraries/STM32F10x_StdPeriph_Driver/src/stm32f10x_rcc.c **** 
 495              		.loc 1 413 0 is_stmt 0 discriminator 1
 496 0008 40F29D11 		movw	r1, #413
 497 000c 0248     		ldr	r0, .L71
 498              	.LVL33:
 499 000e 034B     		ldr	r3, .L71+4
 500 0010 9847     		blx	r3
 501              	.LVL34:
 502              	.L69:
 415:Libraries/STM32F10x_StdPeriph_Driver/src/stm32f10x_rcc.c **** }
 503              		.loc 1 415 0 is_stmt 1
 504 0012 034B     		ldr	r3, .L71+8
 505 0014 1C60     		str	r4, [r3]
 416:Libraries/STM32F10x_StdPeriph_Driver/src/stm32f10x_rcc.c **** 
 506              		.loc 1 416 0
 507 0016 10BD     		pop	{r4, pc}
 508              	.L72:
 509              		.align	2
 510              	.L71:
 511 0018 00000000 		.word	.LC0
 512 001c 00000000 		.word	assert_failed
 513 0020 60004242 		.word	1111621728
 514              		.cfi_endproc
 515              	.LFE35:
 517              		.section	.text.RCC_SYSCLKConfig,"ax",%progbits
 518              		.align	1
 519              		.p2align 2,,3
 520              		.global	RCC_SYSCLKConfig
 521              		.syntax unified
 522              		.thumb
 523              		.thumb_func
 524              		.fpu softvfp
 526              	RCC_SYSCLKConfig:
 527              	.LFB36:
 574:Libraries/STM32F10x_StdPeriph_Driver/src/stm32f10x_rcc.c ****   uint32_t tmpreg = 0;
 528              		.loc 1 574 0
 529              		.cfi_startproc
 530              		@ args = 0, pretend = 0, frame = 0
 531              		@ frame_needed = 0, uses_anonymous_args = 0
 532              	.LVL35:
 577:Libraries/STM32F10x_StdPeriph_Driver/src/stm32f10x_rcc.c ****   tmpreg = RCC->CFGR;
 533              		.loc 1 577 0
 534 0000 0228     		cmp	r0, #2
 574:Libraries/STM32F10x_StdPeriph_Driver/src/stm32f10x_rcc.c ****   uint32_t tmpreg = 0;
 535              		.loc 1 574 0
 536 0002 10B5     		push	{r4, lr}
 537              		.cfi_def_cfa_offset 8
 538              		.cfi_offset 4, -8
 539              		.cfi_offset 14, -4
 574:Libraries/STM32F10x_StdPeriph_Driver/src/stm32f10x_rcc.c ****   uint32_t tmpreg = 0;
 540              		.loc 1 574 0
 541 0004 0446     		mov	r4, r0
 577:Libraries/STM32F10x_StdPeriph_Driver/src/stm32f10x_rcc.c ****   tmpreg = RCC->CFGR;
 542              		.loc 1 577 0
 543 0006 04D9     		bls	.L74
 577:Libraries/STM32F10x_StdPeriph_Driver/src/stm32f10x_rcc.c ****   tmpreg = RCC->CFGR;
 544              		.loc 1 577 0 is_stmt 0 discriminator 1
 545 0008 40F24121 		movw	r1, #577
 546 000c 0448     		ldr	r0, .L76
 547              	.LVL36:
 548 000e 054B     		ldr	r3, .L76+4
 549 0010 9847     		blx	r3
 550              	.LVL37:
 551              	.L74:
 578:Libraries/STM32F10x_StdPeriph_Driver/src/stm32f10x_rcc.c ****   /* Clear SW[1:0] bits */
 552              		.loc 1 578 0 is_stmt 1
 553 0012 054A     		ldr	r2, .L76+8
 554 0014 5368     		ldr	r3, [r2, #4]
 555              	.LVL38:
 580:Libraries/STM32F10x_StdPeriph_Driver/src/stm32f10x_rcc.c ****   /* Set SW[1:0] bits according to RCC_SYSCLKSource value */
 556              		.loc 1 580 0
 557 0016 23F00303 		bic	r3, r3, #3
 558              	.LVL39:
 582:Libraries/STM32F10x_StdPeriph_Driver/src/stm32f10x_rcc.c ****   /* Store the new value */
 559              		.loc 1 582 0
 560 001a 1C43     		orrs	r4, r4, r3
 561              	.LVL40:
 584:Libraries/STM32F10x_StdPeriph_Driver/src/stm32f10x_rcc.c **** }
 562              		.loc 1 584 0
 563 001c 5460     		str	r4, [r2, #4]
 585:Libraries/STM32F10x_StdPeriph_Driver/src/stm32f10x_rcc.c **** 
 564              		.loc 1 585 0
 565 001e 10BD     		pop	{r4, pc}
 566              	.LVL41:
 567              	.L77:
 568              		.align	2
 569              	.L76:
 570 0020 00000000 		.word	.LC0
 571 0024 00000000 		.word	assert_failed
 572 0028 00100240 		.word	1073876992
 573              		.cfi_endproc
 574              	.LFE36:
 576              		.section	.text.RCC_GetSYSCLKSource,"ax",%progbits
 577              		.align	1
 578              		.p2align 2,,3
 579              		.global	RCC_GetSYSCLKSource
 580              		.syntax unified
 581              		.thumb
 582              		.thumb_func
 583              		.fpu softvfp
 585              	RCC_GetSYSCLKSource:
 586              	.LFB37:
 597:Libraries/STM32F10x_StdPeriph_Driver/src/stm32f10x_rcc.c ****   return ((uint8_t)(RCC->CFGR & CFGR_SWS_Mask));
 587              		.loc 1 597 0
 588              		.cfi_startproc
 589              		@ args = 0, pretend = 0, frame = 0
 590              		@ frame_needed = 0, uses_anonymous_args = 0
 591              		@ link register save eliminated.
 598:Libraries/STM32F10x_StdPeriph_Driver/src/stm32f10x_rcc.c **** }
 592              		.loc 1 598 0
 593 0000 024B     		ldr	r3, .L79
 594 0002 5868     		ldr	r0, [r3, #4]
 599:Libraries/STM32F10x_StdPeriph_Driver/src/stm32f10x_rcc.c **** 
 595              		.loc 1 599 0
 596 0004 00F00C00 		and	r0, r0, #12
 597 0008 7047     		bx	lr
 598              	.L80:
 599 000a 00BF     		.align	2
 600              	.L79:
 601 000c 00100240 		.word	1073876992
 602              		.cfi_endproc
 603              	.LFE37:
 605              		.section	.text.RCC_HCLKConfig,"ax",%progbits
 606              		.align	1
 607              		.p2align 2,,3
 608              		.global	RCC_HCLKConfig
 609              		.syntax unified
 610              		.thumb
 611              		.thumb_func
 612              		.fpu softvfp
 614              	RCC_HCLKConfig:
 615              	.LFB38:
 618:Libraries/STM32F10x_StdPeriph_Driver/src/stm32f10x_rcc.c ****   uint32_t tmpreg = 0;
 616              		.loc 1 618 0
 617              		.cfi_startproc
 618              		@ args = 0, pretend = 0, frame = 0
 619              		@ frame_needed = 0, uses_anonymous_args = 0
 620              	.LVL42:
 621:Libraries/STM32F10x_StdPeriph_Driver/src/stm32f10x_rcc.c ****   tmpreg = RCC->CFGR;
 621              		.loc 1 621 0
 622 0000 30F08003 		bics	r3, r0, #128
 618:Libraries/STM32F10x_StdPeriph_Driver/src/stm32f10x_rcc.c ****   uint32_t tmpreg = 0;
 623              		.loc 1 618 0
 624 0004 10B5     		push	{r4, lr}
 625              		.cfi_def_cfa_offset 8
 626              		.cfi_offset 4, -8
 627              		.cfi_offset 14, -4
 618:Libraries/STM32F10x_StdPeriph_Driver/src/stm32f10x_rcc.c ****   uint32_t tmpreg = 0;
 628              		.loc 1 618 0
 629 0006 0446     		mov	r4, r0
 621:Libraries/STM32F10x_StdPeriph_Driver/src/stm32f10x_rcc.c ****   tmpreg = RCC->CFGR;
 630              		.loc 1 621 0
 631 0008 12D0     		beq	.L82
 621:Libraries/STM32F10x_StdPeriph_Driver/src/stm32f10x_rcc.c ****   tmpreg = RCC->CFGR;
 632              		.loc 1 621 0 is_stmt 0 discriminator 2
 633 000a 20F02003 		bic	r3, r0, #32
 634 000e 902B     		cmp	r3, #144
 635 0010 0ED0     		beq	.L82
 621:Libraries/STM32F10x_StdPeriph_Driver/src/stm32f10x_rcc.c ****   tmpreg = RCC->CFGR;
 636              		.loc 1 621 0 discriminator 3
 637 0012 20F04003 		bic	r3, r0, #64
 638 0016 A02B     		cmp	r3, #160
 639 0018 0AD0     		beq	.L82
 621:Libraries/STM32F10x_StdPeriph_Driver/src/stm32f10x_rcc.c ****   tmpreg = RCC->CFGR;
 640              		.loc 1 621 0 discriminator 5
 641 001a 20F01003 		bic	r3, r0, #16
 642 001e C02B     		cmp	r3, #192
 643 0020 06D0     		beq	.L82
 621:Libraries/STM32F10x_StdPeriph_Driver/src/stm32f10x_rcc.c ****   tmpreg = RCC->CFGR;
 644              		.loc 1 621 0 discriminator 8
 645 0022 F028     		cmp	r0, #240
 646 0024 04D0     		beq	.L82
 621:Libraries/STM32F10x_StdPeriph_Driver/src/stm32f10x_rcc.c ****   tmpreg = RCC->CFGR;
 647              		.loc 1 621 0 discriminator 9
 648 0026 40F26D21 		movw	r1, #621
 649 002a 0548     		ldr	r0, .L99
 650              	.LVL43:
 651 002c 054B     		ldr	r3, .L99+4
 652 002e 9847     		blx	r3
 653              	.LVL44:
 654              	.L82:
 622:Libraries/STM32F10x_StdPeriph_Driver/src/stm32f10x_rcc.c ****   /* Clear HPRE[3:0] bits */
 655              		.loc 1 622 0 is_stmt 1
 656 0030 054A     		ldr	r2, .L99+8
 657 0032 5368     		ldr	r3, [r2, #4]
 658              	.LVL45:
 624:Libraries/STM32F10x_StdPeriph_Driver/src/stm32f10x_rcc.c ****   /* Set HPRE[3:0] bits according to RCC_SYSCLK value */
 659              		.loc 1 624 0
 660 0034 23F0F003 		bic	r3, r3, #240
 661              	.LVL46:
 626:Libraries/STM32F10x_StdPeriph_Driver/src/stm32f10x_rcc.c ****   /* Store the new value */
 662              		.loc 1 626 0
 663 0038 1C43     		orrs	r4, r4, r3
 664              	.LVL47:
 628:Libraries/STM32F10x_StdPeriph_Driver/src/stm32f10x_rcc.c **** }
 665              		.loc 1 628 0
 666 003a 5460     		str	r4, [r2, #4]
 629:Libraries/STM32F10x_StdPeriph_Driver/src/stm32f10x_rcc.c **** 
 667              		.loc 1 629 0
 668 003c 10BD     		pop	{r4, pc}
 669              	.LVL48:
 670              	.L100:
 671 003e 00BF     		.align	2
 672              	.L99:
 673 0040 00000000 		.word	.LC0
 674 0044 00000000 		.word	assert_failed
 675 0048 00100240 		.word	1073876992
 676              		.cfi_endproc
 677              	.LFE38:
 679              		.section	.text.RCC_PCLK1Config,"ax",%progbits
 680              		.align	1
 681              		.p2align 2,,3
 682              		.global	RCC_PCLK1Config
 683              		.syntax unified
 684              		.thumb
 685              		.thumb_func
 686              		.fpu softvfp
 688              	RCC_PCLK1Config:
 689              	.LFB39:
 644:Libraries/STM32F10x_StdPeriph_Driver/src/stm32f10x_rcc.c ****   uint32_t tmpreg = 0;
 690              		.loc 1 644 0
 691              		.cfi_startproc
 692              		@ args = 0, pretend = 0, frame = 0
 693              		@ frame_needed = 0, uses_anonymous_args = 0
 694              	.LVL49:
 647:Libraries/STM32F10x_StdPeriph_Driver/src/stm32f10x_rcc.c ****   tmpreg = RCC->CFGR;
 695              		.loc 1 647 0
 696 0000 30F48063 		bics	r3, r0, #1024
 644:Libraries/STM32F10x_StdPeriph_Driver/src/stm32f10x_rcc.c ****   uint32_t tmpreg = 0;
 697              		.loc 1 644 0
 698 0004 10B5     		push	{r4, lr}
 699              		.cfi_def_cfa_offset 8
 700              		.cfi_offset 4, -8
 701              		.cfi_offset 14, -4
 644:Libraries/STM32F10x_StdPeriph_Driver/src/stm32f10x_rcc.c ****   uint32_t tmpreg = 0;
 702              		.loc 1 644 0
 703 0006 0446     		mov	r4, r0
 647:Libraries/STM32F10x_StdPeriph_Driver/src/stm32f10x_rcc.c ****   tmpreg = RCC->CFGR;
 704              		.loc 1 647 0
 705 0008 0CD0     		beq	.L102
 647:Libraries/STM32F10x_StdPeriph_Driver/src/stm32f10x_rcc.c ****   tmpreg = RCC->CFGR;
 706              		.loc 1 647 0 is_stmt 0 discriminator 2
 707 000a 20F40073 		bic	r3, r0, #512
 708 000e B3F5A06F 		cmp	r3, #1280
 709 0012 07D0     		beq	.L102
 647:Libraries/STM32F10x_StdPeriph_Driver/src/stm32f10x_rcc.c ****   tmpreg = RCC->CFGR;
 710              		.loc 1 647 0 discriminator 3
 711 0014 B0F5C06F 		cmp	r0, #1536
 712 0018 04D0     		beq	.L102
 647:Libraries/STM32F10x_StdPeriph_Driver/src/stm32f10x_rcc.c ****   tmpreg = RCC->CFGR;
 713              		.loc 1 647 0 discriminator 5
 714 001a 40F28721 		movw	r1, #647
 715 001e 0548     		ldr	r0, .L113
 716              	.LVL50:
 717 0020 054B     		ldr	r3, .L113+4
 718 0022 9847     		blx	r3
 719              	.LVL51:
 720              	.L102:
 648:Libraries/STM32F10x_StdPeriph_Driver/src/stm32f10x_rcc.c ****   /* Clear PPRE1[2:0] bits */
 721              		.loc 1 648 0 is_stmt 1
 722 0024 054A     		ldr	r2, .L113+8
 723 0026 5368     		ldr	r3, [r2, #4]
 724              	.LVL52:
 650:Libraries/STM32F10x_StdPeriph_Driver/src/stm32f10x_rcc.c ****   /* Set PPRE1[2:0] bits according to RCC_HCLK value */
 725              		.loc 1 650 0
 726 0028 23F4E063 		bic	r3, r3, #1792
 727              	.LVL53:
 652:Libraries/STM32F10x_StdPeriph_Driver/src/stm32f10x_rcc.c ****   /* Store the new value */
 728              		.loc 1 652 0
 729 002c 1C43     		orrs	r4, r4, r3
 730              	.LVL54:
 654:Libraries/STM32F10x_StdPeriph_Driver/src/stm32f10x_rcc.c **** }
 731              		.loc 1 654 0
 732 002e 5460     		str	r4, [r2, #4]
 655:Libraries/STM32F10x_StdPeriph_Driver/src/stm32f10x_rcc.c **** 
 733              		.loc 1 655 0
 734 0030 10BD     		pop	{r4, pc}
 735              	.LVL55:
 736              	.L114:
 737 0032 00BF     		.align	2
 738              	.L113:
 739 0034 00000000 		.word	.LC0
 740 0038 00000000 		.word	assert_failed
 741 003c 00100240 		.word	1073876992
 742              		.cfi_endproc
 743              	.LFE39:
 745              		.section	.text.RCC_PCLK2Config,"ax",%progbits
 746              		.align	1
 747              		.p2align 2,,3
 748              		.global	RCC_PCLK2Config
 749              		.syntax unified
 750              		.thumb
 751              		.thumb_func
 752              		.fpu softvfp
 754              	RCC_PCLK2Config:
 755              	.LFB40:
 670:Libraries/STM32F10x_StdPeriph_Driver/src/stm32f10x_rcc.c ****   uint32_t tmpreg = 0;
 756              		.loc 1 670 0
 757              		.cfi_startproc
 758              		@ args = 0, pretend = 0, frame = 0
 759              		@ frame_needed = 0, uses_anonymous_args = 0
 760              	.LVL56:
 673:Libraries/STM32F10x_StdPeriph_Driver/src/stm32f10x_rcc.c ****   tmpreg = RCC->CFGR;
 761              		.loc 1 673 0
 762 0000 30F48063 		bics	r3, r0, #1024
 670:Libraries/STM32F10x_StdPeriph_Driver/src/stm32f10x_rcc.c ****   uint32_t tmpreg = 0;
 763              		.loc 1 670 0
 764 0004 10B5     		push	{r4, lr}
 765              		.cfi_def_cfa_offset 8
 766              		.cfi_offset 4, -8
 767              		.cfi_offset 14, -4
 670:Libraries/STM32F10x_StdPeriph_Driver/src/stm32f10x_rcc.c ****   uint32_t tmpreg = 0;
 768              		.loc 1 670 0
 769 0006 0446     		mov	r4, r0
 673:Libraries/STM32F10x_StdPeriph_Driver/src/stm32f10x_rcc.c ****   tmpreg = RCC->CFGR;
 770              		.loc 1 673 0
 771 0008 0CD0     		beq	.L116
 673:Libraries/STM32F10x_StdPeriph_Driver/src/stm32f10x_rcc.c ****   tmpreg = RCC->CFGR;
 772              		.loc 1 673 0 is_stmt 0 discriminator 2
 773 000a 20F40073 		bic	r3, r0, #512
 774 000e B3F5A06F 		cmp	r3, #1280
 775 0012 07D0     		beq	.L116
 673:Libraries/STM32F10x_StdPeriph_Driver/src/stm32f10x_rcc.c ****   tmpreg = RCC->CFGR;
 776              		.loc 1 673 0 discriminator 3
 777 0014 B0F5C06F 		cmp	r0, #1536
 778 0018 04D0     		beq	.L116
 673:Libraries/STM32F10x_StdPeriph_Driver/src/stm32f10x_rcc.c ****   tmpreg = RCC->CFGR;
 779              		.loc 1 673 0 discriminator 5
 780 001a 40F2A121 		movw	r1, #673
 781 001e 0548     		ldr	r0, .L127
 782              	.LVL57:
 783 0020 054B     		ldr	r3, .L127+4
 784 0022 9847     		blx	r3
 785              	.LVL58:
 786              	.L116:
 674:Libraries/STM32F10x_StdPeriph_Driver/src/stm32f10x_rcc.c ****   /* Clear PPRE2[2:0] bits */
 787              		.loc 1 674 0 is_stmt 1
 788 0024 054B     		ldr	r3, .L127+8
 789 0026 5868     		ldr	r0, [r3, #4]
 790              	.LVL59:
 676:Libraries/STM32F10x_StdPeriph_Driver/src/stm32f10x_rcc.c ****   /* Set PPRE2[2:0] bits according to RCC_HCLK value */
 791              		.loc 1 676 0
 792 0028 20F46050 		bic	r0, r0, #14336
 793              	.LVL60:
 678:Libraries/STM32F10x_StdPeriph_Driver/src/stm32f10x_rcc.c ****   /* Store the new value */
 794              		.loc 1 678 0
 795 002c 40EAC400 		orr	r0, r0, r4, lsl #3
 796              	.LVL61:
 680:Libraries/STM32F10x_StdPeriph_Driver/src/stm32f10x_rcc.c **** }
 797              		.loc 1 680 0
 798 0030 5860     		str	r0, [r3, #4]
 681:Libraries/STM32F10x_StdPeriph_Driver/src/stm32f10x_rcc.c **** 
 799              		.loc 1 681 0
 800 0032 10BD     		pop	{r4, pc}
 801              	.LVL62:
 802              	.L128:
 803              		.align	2
 804              	.L127:
 805 0034 00000000 		.word	.LC0
 806 0038 00000000 		.word	assert_failed
 807 003c 00100240 		.word	1073876992
 808              		.cfi_endproc
 809              	.LFE40:
 811              		.section	.text.RCC_ITConfig,"ax",%progbits
 812              		.align	1
 813              		.p2align 2,,3
 814              		.global	RCC_ITConfig
 815              		.syntax unified
 816              		.thumb
 817              		.thumb_func
 818              		.fpu softvfp
 820              	RCC_ITConfig:
 821              	.LFB41:
 710:Libraries/STM32F10x_StdPeriph_Driver/src/stm32f10x_rcc.c ****   /* Check the parameters */
 822              		.loc 1 710 0
 823              		.cfi_startproc
 824              		@ args = 0, pretend = 0, frame = 0
 825              		@ frame_needed = 0, uses_anonymous_args = 0
 826              	.LVL63:
 712:Libraries/STM32F10x_StdPeriph_Driver/src/stm32f10x_rcc.c ****   assert_param(IS_FUNCTIONAL_STATE(NewState));
 827              		.loc 1 712 0
 828 0000 10F0E00F 		tst	r0, #224
 710:Libraries/STM32F10x_StdPeriph_Driver/src/stm32f10x_rcc.c ****   /* Check the parameters */
 829              		.loc 1 710 0
 830 0004 38B5     		push	{r3, r4, r5, lr}
 831              		.cfi_def_cfa_offset 16
 832              		.cfi_offset 3, -16
 833              		.cfi_offset 4, -12
 834              		.cfi_offset 5, -8
 835              		.cfi_offset 14, -4
 710:Libraries/STM32F10x_StdPeriph_Driver/src/stm32f10x_rcc.c ****   /* Check the parameters */
 836              		.loc 1 710 0
 837 0006 0446     		mov	r4, r0
 838 0008 0D46     		mov	r5, r1
 712:Libraries/STM32F10x_StdPeriph_Driver/src/stm32f10x_rcc.c ****   assert_param(IS_FUNCTIONAL_STATE(NewState));
 839              		.loc 1 712 0
 840 000a 09D1     		bne	.L130
 712:Libraries/STM32F10x_StdPeriph_Driver/src/stm32f10x_rcc.c ****   assert_param(IS_FUNCTIONAL_STATE(NewState));
 841              		.loc 1 712 0 is_stmt 0 discriminator 2
 842 000c 40B1     		cbz	r0, .L130
 713:Libraries/STM32F10x_StdPeriph_Driver/src/stm32f10x_rcc.c ****   if (NewState != DISABLE)
 843              		.loc 1 713 0 is_stmt 1
 844 000e 012D     		cmp	r5, #1
 845 0010 0DD8     		bhi	.L137
 846              	.LVL64:
 847              	.L132:
 714:Libraries/STM32F10x_StdPeriph_Driver/src/stm32f10x_rcc.c ****   {
 848              		.loc 1 714 0
 849 0012 8DB9     		cbnz	r5, .L133
 722:Libraries/STM32F10x_StdPeriph_Driver/src/stm32f10x_rcc.c ****   }
 850              		.loc 1 722 0
 851 0014 0B4A     		ldr	r2, .L138
 852 0016 1378     		ldrb	r3, [r2]	@ zero_extendqisi2
 853 0018 23EA0404 		bic	r4, r3, r4
 854 001c 1470     		strb	r4, [r2]
 724:Libraries/STM32F10x_StdPeriph_Driver/src/stm32f10x_rcc.c **** 
 855              		.loc 1 724 0
 856 001e 38BD     		pop	{r3, r4, r5, pc}
 857              	.LVL65:
 858              	.L130:
 712:Libraries/STM32F10x_StdPeriph_Driver/src/stm32f10x_rcc.c ****   assert_param(IS_FUNCTIONAL_STATE(NewState));
 859              		.loc 1 712 0 discriminator 3
 860 0020 4FF43271 		mov	r1, #712
 861              	.LVL66:
 862 0024 0848     		ldr	r0, .L138+4
 863              	.LVL67:
 864 0026 094B     		ldr	r3, .L138+8
 865 0028 9847     		blx	r3
 866              	.LVL68:
 713:Libraries/STM32F10x_StdPeriph_Driver/src/stm32f10x_rcc.c ****   if (NewState != DISABLE)
 867              		.loc 1 713 0 discriminator 3
 868 002a 012D     		cmp	r5, #1
 869 002c F1D9     		bls	.L132
 870              	.L137:
 713:Libraries/STM32F10x_StdPeriph_Driver/src/stm32f10x_rcc.c ****   if (NewState != DISABLE)
 871              		.loc 1 713 0 is_stmt 0 discriminator 1
 872 002e 40F2C921 		movw	r1, #713
 873 0032 0548     		ldr	r0, .L138+4
 874 0034 054B     		ldr	r3, .L138+8
 875 0036 9847     		blx	r3
 876              	.LVL69:
 877              	.L133:
 717:Libraries/STM32F10x_StdPeriph_Driver/src/stm32f10x_rcc.c ****   }
 878              		.loc 1 717 0 is_stmt 1
 879 0038 024A     		ldr	r2, .L138
 880 003a 1378     		ldrb	r3, [r2]	@ zero_extendqisi2
 881 003c 1C43     		orrs	r4, r4, r3
 882 003e 1470     		strb	r4, [r2]
 724:Libraries/STM32F10x_StdPeriph_Driver/src/stm32f10x_rcc.c **** 
 883              		.loc 1 724 0
 884 0040 38BD     		pop	{r3, r4, r5, pc}
 885              	.L139:
 886 0042 00BF     		.align	2
 887              	.L138:
 888 0044 09100240 		.word	1073877001
 889 0048 00000000 		.word	.LC0
 890 004c 00000000 		.word	assert_failed
 891              		.cfi_endproc
 892              	.LFE41:
 894              		.section	.text.RCC_USBCLKConfig,"ax",%progbits
 895              		.align	1
 896              		.p2align 2,,3
 897              		.global	RCC_USBCLKConfig
 898              		.syntax unified
 899              		.thumb
 900              		.thumb_func
 901              		.fpu softvfp
 903              	RCC_USBCLKConfig:
 904              	.LFB42:
 738:Libraries/STM32F10x_StdPeriph_Driver/src/stm32f10x_rcc.c ****   /* Check the parameters */
 905              		.loc 1 738 0
 906              		.cfi_startproc
 907              		@ args = 0, pretend = 0, frame = 0
 908              		@ frame_needed = 0, uses_anonymous_args = 0
 909              	.LVL70:
 740:Libraries/STM32F10x_StdPeriph_Driver/src/stm32f10x_rcc.c **** 
 910              		.loc 1 740 0
 911 0000 0128     		cmp	r0, #1
 738:Libraries/STM32F10x_StdPeriph_Driver/src/stm32f10x_rcc.c ****   /* Check the parameters */
 912              		.loc 1 738 0
 913 0002 10B5     		push	{r4, lr}
 914              		.cfi_def_cfa_offset 8
 915              		.cfi_offset 4, -8
 916              		.cfi_offset 14, -4
 738:Libraries/STM32F10x_StdPeriph_Driver/src/stm32f10x_rcc.c ****   /* Check the parameters */
 917              		.loc 1 738 0
 918 0004 0446     		mov	r4, r0
 740:Libraries/STM32F10x_StdPeriph_Driver/src/stm32f10x_rcc.c **** 
 919              		.loc 1 740 0
 920 0006 04D9     		bls	.L141
 740:Libraries/STM32F10x_StdPeriph_Driver/src/stm32f10x_rcc.c **** 
 921              		.loc 1 740 0 is_stmt 0 discriminator 1
 922 0008 4FF43971 		mov	r1, #740
 923 000c 0248     		ldr	r0, .L143
 924              	.LVL71:
 925 000e 034B     		ldr	r3, .L143+4
 926 0010 9847     		blx	r3
 927              	.LVL72:
 928              	.L141:
 742:Libraries/STM32F10x_StdPeriph_Driver/src/stm32f10x_rcc.c **** }
 929              		.loc 1 742 0 is_stmt 1
 930 0012 034B     		ldr	r3, .L143+8
 931 0014 1C60     		str	r4, [r3]
 743:Libraries/STM32F10x_StdPeriph_Driver/src/stm32f10x_rcc.c **** #else
 932              		.loc 1 743 0
 933 0016 10BD     		pop	{r4, pc}
 934              	.LVL73:
 935              	.L144:
 936              		.align	2
 937              	.L143:
 938 0018 00000000 		.word	.LC0
 939 001c 00000000 		.word	assert_failed
 940 0020 D8004242 		.word	1111621848
 941              		.cfi_endproc
 942              	.LFE42:
 944              		.section	.text.RCC_ADCCLKConfig,"ax",%progbits
 945              		.align	1
 946              		.p2align 2,,3
 947              		.global	RCC_ADCCLKConfig
 948              		.syntax unified
 949              		.thumb
 950              		.thumb_func
 951              		.fpu softvfp
 953              	RCC_ADCCLKConfig:
 954              	.LFB43:
 776:Libraries/STM32F10x_StdPeriph_Driver/src/stm32f10x_rcc.c ****   uint32_t tmpreg = 0;
 955              		.loc 1 776 0
 956              		.cfi_startproc
 957              		@ args = 0, pretend = 0, frame = 0
 958              		@ frame_needed = 0, uses_anonymous_args = 0
 959              	.LVL74:
 779:Libraries/STM32F10x_StdPeriph_Driver/src/stm32f10x_rcc.c ****   tmpreg = RCC->CFGR;
 960              		.loc 1 779 0
 961 0000 30F44043 		bics	r3, r0, #49152
 776:Libraries/STM32F10x_StdPeriph_Driver/src/stm32f10x_rcc.c ****   uint32_t tmpreg = 0;
 962              		.loc 1 776 0
 963 0004 10B5     		push	{r4, lr}
 964              		.cfi_def_cfa_offset 8
 965              		.cfi_offset 4, -8
 966              		.cfi_offset 14, -4
 776:Libraries/STM32F10x_StdPeriph_Driver/src/stm32f10x_rcc.c ****   uint32_t tmpreg = 0;
 967              		.loc 1 776 0
 968 0006 0446     		mov	r4, r0
 779:Libraries/STM32F10x_StdPeriph_Driver/src/stm32f10x_rcc.c ****   tmpreg = RCC->CFGR;
 969              		.loc 1 779 0
 970 0008 04D0     		beq	.L146
 779:Libraries/STM32F10x_StdPeriph_Driver/src/stm32f10x_rcc.c ****   tmpreg = RCC->CFGR;
 971              		.loc 1 779 0 is_stmt 0 discriminator 4
 972 000a 40F20B31 		movw	r1, #779
 973 000e 0548     		ldr	r0, .L151
 974              	.LVL75:
 975 0010 054B     		ldr	r3, .L151+4
 976 0012 9847     		blx	r3
 977              	.LVL76:
 978              	.L146:
 780:Libraries/STM32F10x_StdPeriph_Driver/src/stm32f10x_rcc.c ****   /* Clear ADCPRE[1:0] bits */
 979              		.loc 1 780 0 is_stmt 1
 980 0014 054A     		ldr	r2, .L151+8
 981 0016 5368     		ldr	r3, [r2, #4]
 982              	.LVL77:
 782:Libraries/STM32F10x_StdPeriph_Driver/src/stm32f10x_rcc.c ****   /* Set ADCPRE[1:0] bits according to RCC_PCLK2 value */
 983              		.loc 1 782 0
 984 0018 23F44043 		bic	r3, r3, #49152
 985              	.LVL78:
 784:Libraries/STM32F10x_StdPeriph_Driver/src/stm32f10x_rcc.c ****   /* Store the new value */
 986              		.loc 1 784 0
 987 001c 1C43     		orrs	r4, r4, r3
 988              	.LVL79:
 786:Libraries/STM32F10x_StdPeriph_Driver/src/stm32f10x_rcc.c **** }
 989              		.loc 1 786 0
 990 001e 5460     		str	r4, [r2, #4]
 787:Libraries/STM32F10x_StdPeriph_Driver/src/stm32f10x_rcc.c **** 
 991              		.loc 1 787 0
 992 0020 10BD     		pop	{r4, pc}
 993              	.LVL80:
 994              	.L152:
 995 0022 00BF     		.align	2
 996              	.L151:
 997 0024 00000000 		.word	.LC0
 998 0028 00000000 		.word	assert_failed
 999 002c 00100240 		.word	1073876992
 1000              		.cfi_endproc
 1001              	.LFE43:
 1003              		.section	.text.RCC_LSEConfig,"ax",%progbits
 1004              		.align	1
 1005              		.p2align 2,,3
 1006              		.global	RCC_LSEConfig
 1007              		.syntax unified
 1008              		.thumb
 1009              		.thumb_func
 1010              		.fpu softvfp
 1012              	RCC_LSEConfig:
 1013              	.LFB44:
 839:Libraries/STM32F10x_StdPeriph_Driver/src/stm32f10x_rcc.c ****   /* Check the parameters */
 1014              		.loc 1 839 0
 1015              		.cfi_startproc
 1016              		@ args = 0, pretend = 0, frame = 0
 1017              		@ frame_needed = 0, uses_anonymous_args = 0
 1018              	.LVL81:
 841:Libraries/STM32F10x_StdPeriph_Driver/src/stm32f10x_rcc.c ****   /* Reset LSEON and LSEBYP bits before configuring the LSE ------------------*/
 1019              		.loc 1 841 0
 1020 0000 0128     		cmp	r0, #1
 839:Libraries/STM32F10x_StdPeriph_Driver/src/stm32f10x_rcc.c ****   /* Check the parameters */
 1021              		.loc 1 839 0
 1022 0002 10B5     		push	{r4, lr}
 1023              		.cfi_def_cfa_offset 8
 1024              		.cfi_offset 4, -8
 1025              		.cfi_offset 14, -4
 839:Libraries/STM32F10x_StdPeriph_Driver/src/stm32f10x_rcc.c ****   /* Check the parameters */
 1026              		.loc 1 839 0
 1027 0004 0446     		mov	r4, r0
 841:Libraries/STM32F10x_StdPeriph_Driver/src/stm32f10x_rcc.c ****   /* Reset LSEON and LSEBYP bits before configuring the LSE ------------------*/
 1028              		.loc 1 841 0
 1029 0006 0ED9     		bls	.L154
 841:Libraries/STM32F10x_StdPeriph_Driver/src/stm32f10x_rcc.c ****   /* Reset LSEON and LSEBYP bits before configuring the LSE ------------------*/
 1030              		.loc 1 841 0 is_stmt 0 discriminator 1
 1031 0008 0428     		cmp	r0, #4
 1032 000a 07D1     		bne	.L164
 844:Libraries/STM32F10x_StdPeriph_Driver/src/stm32f10x_rcc.c ****   /* Reset LSEBYP bit */
 1033              		.loc 1 844 0 is_stmt 1
 1034 000c 0022     		movs	r2, #0
 1035 000e 0B4B     		ldr	r3, .L165
 1036 0010 1A70     		strb	r2, [r3]
 846:Libraries/STM32F10x_StdPeriph_Driver/src/stm32f10x_rcc.c ****   /* Configure LSE (RCC_LSE_OFF is already covered by the code section above) */
 1037              		.loc 1 846 0
 1038 0012 1A70     		strb	r2, [r3]
 1039              	.LVL82:
 1040              	.L158:
 857:Libraries/STM32F10x_StdPeriph_Driver/src/stm32f10x_rcc.c ****       break;            
 1041              		.loc 1 857 0
 1042 0014 0522     		movs	r2, #5
 1043 0016 094B     		ldr	r3, .L165
 1044 0018 1A70     		strb	r2, [r3]
 863:Libraries/STM32F10x_StdPeriph_Driver/src/stm32f10x_rcc.c **** 
 1045              		.loc 1 863 0
 1046 001a 10BD     		pop	{r4, pc}
 1047              	.LVL83:
 1048              	.L164:
 841:Libraries/STM32F10x_StdPeriph_Driver/src/stm32f10x_rcc.c ****   /* Reset LSEON and LSEBYP bits before configuring the LSE ------------------*/
 1049              		.loc 1 841 0 discriminator 2
 1050 001c 40F24931 		movw	r1, #841
 1051 0020 0748     		ldr	r0, .L165+4
 1052              	.LVL84:
 1053 0022 084B     		ldr	r3, .L165+8
 1054 0024 9847     		blx	r3
 1055              	.LVL85:
 1056              	.L154:
 844:Libraries/STM32F10x_StdPeriph_Driver/src/stm32f10x_rcc.c ****   /* Reset LSEBYP bit */
 1057              		.loc 1 844 0
 1058 0026 0022     		movs	r2, #0
 1059 0028 044B     		ldr	r3, .L165
 848:Libraries/STM32F10x_StdPeriph_Driver/src/stm32f10x_rcc.c ****   {
 1060              		.loc 1 848 0
 1061 002a 012C     		cmp	r4, #1
 844:Libraries/STM32F10x_StdPeriph_Driver/src/stm32f10x_rcc.c ****   /* Reset LSEBYP bit */
 1062              		.loc 1 844 0
 1063 002c 1A70     		strb	r2, [r3]
 846:Libraries/STM32F10x_StdPeriph_Driver/src/stm32f10x_rcc.c ****   /* Configure LSE (RCC_LSE_OFF is already covered by the code section above) */
 1064              		.loc 1 846 0
 1065 002e 1A70     		strb	r2, [r3]
 848:Libraries/STM32F10x_StdPeriph_Driver/src/stm32f10x_rcc.c ****   {
 1066              		.loc 1 848 0
 1067 0030 02D0     		beq	.L157
 1068 0032 042C     		cmp	r4, #4
 1069 0034 EED0     		beq	.L158
 863:Libraries/STM32F10x_StdPeriph_Driver/src/stm32f10x_rcc.c **** 
 1070              		.loc 1 863 0
 1071 0036 10BD     		pop	{r4, pc}
 1072              	.L157:
 852:Libraries/STM32F10x_StdPeriph_Driver/src/stm32f10x_rcc.c ****       break;
 1073              		.loc 1 852 0
 1074 0038 1C70     		strb	r4, [r3]
 863:Libraries/STM32F10x_StdPeriph_Driver/src/stm32f10x_rcc.c **** 
 1075              		.loc 1 863 0
 1076 003a 10BD     		pop	{r4, pc}
 1077              	.L166:
 1078              		.align	2
 1079              	.L165:
 1080 003c 20100240 		.word	1073877024
 1081 0040 00000000 		.word	.LC0
 1082 0044 00000000 		.word	assert_failed
 1083              		.cfi_endproc
 1084              	.LFE44:
 1086              		.section	.text.RCC_LSICmd,"ax",%progbits
 1087              		.align	1
 1088              		.p2align 2,,3
 1089              		.global	RCC_LSICmd
 1090              		.syntax unified
 1091              		.thumb
 1092              		.thumb_func
 1093              		.fpu softvfp
 1095              	RCC_LSICmd:
 1096              	.LFB45:
 872:Libraries/STM32F10x_StdPeriph_Driver/src/stm32f10x_rcc.c ****   /* Check the parameters */
 1097              		.loc 1 872 0
 1098              		.cfi_startproc
 1099              		@ args = 0, pretend = 0, frame = 0
 1100              		@ frame_needed = 0, uses_anonymous_args = 0
 1101              	.LVL86:
 874:Libraries/STM32F10x_StdPeriph_Driver/src/stm32f10x_rcc.c ****   *(__IO uint32_t *) CSR_LSION_BB = (uint32_t)NewState;
 1102              		.loc 1 874 0
 1103 0000 0128     		cmp	r0, #1
 872:Libraries/STM32F10x_StdPeriph_Driver/src/stm32f10x_rcc.c ****   /* Check the parameters */
 1104              		.loc 1 872 0
 1105 0002 10B5     		push	{r4, lr}
 1106              		.cfi_def_cfa_offset 8
 1107              		.cfi_offset 4, -8
 1108              		.cfi_offset 14, -4
 872:Libraries/STM32F10x_StdPeriph_Driver/src/stm32f10x_rcc.c ****   /* Check the parameters */
 1109              		.loc 1 872 0
 1110 0004 0446     		mov	r4, r0
 874:Libraries/STM32F10x_StdPeriph_Driver/src/stm32f10x_rcc.c ****   *(__IO uint32_t *) CSR_LSION_BB = (uint32_t)NewState;
 1111              		.loc 1 874 0
 1112 0006 04D9     		bls	.L168
 874:Libraries/STM32F10x_StdPeriph_Driver/src/stm32f10x_rcc.c ****   *(__IO uint32_t *) CSR_LSION_BB = (uint32_t)NewState;
 1113              		.loc 1 874 0 is_stmt 0 discriminator 1
 1114 0008 40F26A31 		movw	r1, #874
 1115 000c 0248     		ldr	r0, .L170
 1116              	.LVL87:
 1117 000e 034B     		ldr	r3, .L170+4
 1118 0010 9847     		blx	r3
 1119              	.LVL88:
 1120              	.L168:
 875:Libraries/STM32F10x_StdPeriph_Driver/src/stm32f10x_rcc.c **** }
 1121              		.loc 1 875 0 is_stmt 1
 1122 0012 034B     		ldr	r3, .L170+8
 1123 0014 1C60     		str	r4, [r3]
 876:Libraries/STM32F10x_StdPeriph_Driver/src/stm32f10x_rcc.c **** 
 1124              		.loc 1 876 0
 1125 0016 10BD     		pop	{r4, pc}
 1126              	.L171:
 1127              		.align	2
 1128              	.L170:
 1129 0018 00000000 		.word	.LC0
 1130 001c 00000000 		.word	assert_failed
 1131 0020 80044242 		.word	1111622784
 1132              		.cfi_endproc
 1133              	.LFE45:
 1135              		.section	.text.RCC_RTCCLKConfig,"ax",%progbits
 1136              		.align	1
 1137              		.p2align 2,,3
 1138              		.global	RCC_RTCCLKConfig
 1139              		.syntax unified
 1140              		.thumb
 1141              		.thumb_func
 1142              		.fpu softvfp
 1144              	RCC_RTCCLKConfig:
 1145              	.LFB46:
 889:Libraries/STM32F10x_StdPeriph_Driver/src/stm32f10x_rcc.c ****   /* Check the parameters */
 1146              		.loc 1 889 0
 1147              		.cfi_startproc
 1148              		@ args = 0, pretend = 0, frame = 0
 1149              		@ frame_needed = 0, uses_anonymous_args = 0
 1150              	.LVL89:
 891:Libraries/STM32F10x_StdPeriph_Driver/src/stm32f10x_rcc.c ****   /* Select the RTC clock source */
 1151              		.loc 1 891 0
 1152 0000 20F40073 		bic	r3, r0, #512
 1153 0004 B3F5807F 		cmp	r3, #256
 889:Libraries/STM32F10x_StdPeriph_Driver/src/stm32f10x_rcc.c ****   /* Check the parameters */
 1154              		.loc 1 889 0
 1155 0008 10B5     		push	{r4, lr}
 1156              		.cfi_def_cfa_offset 8
 1157              		.cfi_offset 4, -8
 1158              		.cfi_offset 14, -4
 889:Libraries/STM32F10x_StdPeriph_Driver/src/stm32f10x_rcc.c ****   /* Check the parameters */
 1159              		.loc 1 889 0
 1160 000a 0446     		mov	r4, r0
 891:Libraries/STM32F10x_StdPeriph_Driver/src/stm32f10x_rcc.c ****   /* Select the RTC clock source */
 1161              		.loc 1 891 0
 1162 000c 07D0     		beq	.L173
 891:Libraries/STM32F10x_StdPeriph_Driver/src/stm32f10x_rcc.c ****   /* Select the RTC clock source */
 1163              		.loc 1 891 0 is_stmt 0 discriminator 1
 1164 000e B0F5007F 		cmp	r0, #512
 1165 0012 04D0     		beq	.L173
 891:Libraries/STM32F10x_StdPeriph_Driver/src/stm32f10x_rcc.c ****   /* Select the RTC clock source */
 1166              		.loc 1 891 0 discriminator 3
 1167 0014 40F27B31 		movw	r1, #891
 1168 0018 0348     		ldr	r0, .L181
 1169              	.LVL90:
 1170 001a 044B     		ldr	r3, .L181+4
 1171 001c 9847     		blx	r3
 1172              	.LVL91:
 1173              	.L173:
 893:Libraries/STM32F10x_StdPeriph_Driver/src/stm32f10x_rcc.c **** }
 1174              		.loc 1 893 0 is_stmt 1
 1175 001e 044B     		ldr	r3, .L181+8
 1176 0020 186A     		ldr	r0, [r3, #32]
 1177 0022 2043     		orrs	r0, r0, r4
 1178 0024 1862     		str	r0, [r3, #32]
 894:Libraries/STM32F10x_StdPeriph_Driver/src/stm32f10x_rcc.c **** 
 1179              		.loc 1 894 0
 1180 0026 10BD     		pop	{r4, pc}
 1181              	.LVL92:
 1182              	.L182:
 1183              		.align	2
 1184              	.L181:
 1185 0028 00000000 		.word	.LC0
 1186 002c 00000000 		.word	assert_failed
 1187 0030 00100240 		.word	1073876992
 1188              		.cfi_endproc
 1189              	.LFE46:
 1191              		.section	.text.RCC_RTCCLKCmd,"ax",%progbits
 1192              		.align	1
 1193              		.p2align 2,,3
 1194              		.global	RCC_RTCCLKCmd
 1195              		.syntax unified
 1196              		.thumb
 1197              		.thumb_func
 1198              		.fpu softvfp
 1200              	RCC_RTCCLKCmd:
 1201              	.LFB47:
 903:Libraries/STM32F10x_StdPeriph_Driver/src/stm32f10x_rcc.c ****   /* Check the parameters */
 1202              		.loc 1 903 0
 1203              		.cfi_startproc
 1204              		@ args = 0, pretend = 0, frame = 0
 1205              		@ frame_needed = 0, uses_anonymous_args = 0
 1206              	.LVL93:
 905:Libraries/STM32F10x_StdPeriph_Driver/src/stm32f10x_rcc.c ****   *(__IO uint32_t *) BDCR_RTCEN_BB = (uint32_t)NewState;
 1207              		.loc 1 905 0
 1208 0000 0128     		cmp	r0, #1
 903:Libraries/STM32F10x_StdPeriph_Driver/src/stm32f10x_rcc.c ****   /* Check the parameters */
 1209              		.loc 1 903 0
 1210 0002 10B5     		push	{r4, lr}
 1211              		.cfi_def_cfa_offset 8
 1212              		.cfi_offset 4, -8
 1213              		.cfi_offset 14, -4
 903:Libraries/STM32F10x_StdPeriph_Driver/src/stm32f10x_rcc.c ****   /* Check the parameters */
 1214              		.loc 1 903 0
 1215 0004 0446     		mov	r4, r0
 905:Libraries/STM32F10x_StdPeriph_Driver/src/stm32f10x_rcc.c ****   *(__IO uint32_t *) BDCR_RTCEN_BB = (uint32_t)NewState;
 1216              		.loc 1 905 0
 1217 0006 04D9     		bls	.L184
 905:Libraries/STM32F10x_StdPeriph_Driver/src/stm32f10x_rcc.c ****   *(__IO uint32_t *) BDCR_RTCEN_BB = (uint32_t)NewState;
 1218              		.loc 1 905 0 is_stmt 0 discriminator 1
 1219 0008 40F28931 		movw	r1, #905
 1220 000c 0248     		ldr	r0, .L186
 1221              	.LVL94:
 1222 000e 034B     		ldr	r3, .L186+4
 1223 0010 9847     		blx	r3
 1224              	.LVL95:
 1225              	.L184:
 906:Libraries/STM32F10x_StdPeriph_Driver/src/stm32f10x_rcc.c **** }
 1226              		.loc 1 906 0 is_stmt 1
 1227 0012 034B     		ldr	r3, .L186+8
 1228 0014 1C60     		str	r4, [r3]
 907:Libraries/STM32F10x_StdPeriph_Driver/src/stm32f10x_rcc.c **** 
 1229              		.loc 1 907 0
 1230 0016 10BD     		pop	{r4, pc}
 1231              	.L187:
 1232              		.align	2
 1233              	.L186:
 1234 0018 00000000 		.word	.LC0
 1235 001c 00000000 		.word	assert_failed
 1236 0020 3C044242 		.word	1111622716
 1237              		.cfi_endproc
 1238              	.LFE47:
 1240              		.section	.text.RCC_GetClocksFreq,"ax",%progbits
 1241              		.align	1
 1242              		.p2align 2,,3
 1243              		.global	RCC_GetClocksFreq
 1244              		.syntax unified
 1245              		.thumb
 1246              		.thumb_func
 1247              		.fpu softvfp
 1249              	RCC_GetClocksFreq:
 1250              	.LFB48:
 916:Libraries/STM32F10x_StdPeriph_Driver/src/stm32f10x_rcc.c ****   uint32_t tmp = 0, pllmull = 0, pllsource = 0, presc = 0;
 1251              		.loc 1 916 0
 1252              		.cfi_startproc
 1253              		@ args = 0, pretend = 0, frame = 0
 1254              		@ frame_needed = 0, uses_anonymous_args = 0
 1255              		@ link register save eliminated.
 1256              	.LVL96:
 928:Libraries/STM32F10x_StdPeriph_Driver/src/stm32f10x_rcc.c ****   
 1257              		.loc 1 928 0
 1258 0000 1E4A     		ldr	r2, .L197
 916:Libraries/STM32F10x_StdPeriph_Driver/src/stm32f10x_rcc.c ****   uint32_t tmp = 0, pllmull = 0, pllsource = 0, presc = 0;
 1259              		.loc 1 916 0
 1260 0002 30B4     		push	{r4, r5}
 1261              		.cfi_def_cfa_offset 8
 1262              		.cfi_offset 4, -8
 1263              		.cfi_offset 5, -4
 928:Libraries/STM32F10x_StdPeriph_Driver/src/stm32f10x_rcc.c ****   
 1264              		.loc 1 928 0
 1265 0004 5368     		ldr	r3, [r2, #4]
 1266              	.LVL97:
 1267 0006 03F00C03 		and	r3, r3, #12
 1268              	.LVL98:
 930:Libraries/STM32F10x_StdPeriph_Driver/src/stm32f10x_rcc.c ****   {
 1269              		.loc 1 930 0
 1270 000a 082B     		cmp	r3, #8
 1271 000c 0FD1     		bne	.L196
 941:Libraries/STM32F10x_StdPeriph_Driver/src/stm32f10x_rcc.c ****       pllsource = RCC->CFGR & CFGR_PLLSRC_Mask;
 1272              		.loc 1 941 0
 1273 000e 5368     		ldr	r3, [r2, #4]
 1274              	.LVL99:
 942:Libraries/STM32F10x_StdPeriph_Driver/src/stm32f10x_rcc.c ****       
 1275              		.loc 1 942 0
 1276 0010 5168     		ldr	r1, [r2, #4]
 1277              	.LVL100:
 945:Libraries/STM32F10x_StdPeriph_Driver/src/stm32f10x_rcc.c ****       
 1278              		.loc 1 945 0
 1279 0012 C3F38343 		ubfx	r3, r3, #18, #4
 1280              	.LVL101:
 947:Libraries/STM32F10x_StdPeriph_Driver/src/stm32f10x_rcc.c ****       {/* HSI oscillator clock divided by 2 selected as PLL clock entry */
 1281              		.loc 1 947 0
 1282 0016 C903     		lsls	r1, r1, #15
 1283              	.LVL102:
 945:Libraries/STM32F10x_StdPeriph_Driver/src/stm32f10x_rcc.c ****       
 1284              		.loc 1 945 0
 1285 0018 03F10203 		add	r3, r3, #2
 1286              	.LVL103:
 947:Libraries/STM32F10x_StdPeriph_Driver/src/stm32f10x_rcc.c ****       {/* HSI oscillator clock divided by 2 selected as PLL clock entry */
 1287              		.loc 1 947 0
 1288 001c 28D5     		bpl	.L195
 959:Libraries/STM32F10x_StdPeriph_Driver/src/stm32f10x_rcc.c ****         {/* HSE oscillator clock divided by 2 */
 1289              		.loc 1 959 0
 1290 001e 5268     		ldr	r2, [r2, #4]
 1291 0020 9203     		lsls	r2, r2, #14
 1292 0022 25D4     		bmi	.L195
 965:Libraries/STM32F10x_StdPeriph_Driver/src/stm32f10x_rcc.c ****         }
 1293              		.loc 1 965 0
 1294 0024 164A     		ldr	r2, .L197+4
 1295 0026 02FB03F3 		mul	r3, r2, r3
 1296              	.LVL104:
 1297 002a 0360     		str	r3, [r0]
 1298 002c 01E0     		b	.L191
 1299              	.LVL105:
 1300              	.L196:
 933:Libraries/STM32F10x_StdPeriph_Driver/src/stm32f10x_rcc.c ****       break;
 1301              		.loc 1 933 0
 1302 002e 144B     		ldr	r3, .L197+4
 1303              	.LVL106:
 1304 0030 0360     		str	r3, [r0]
 1305              	.LVL107:
 1306              	.L191:
1015:Libraries/STM32F10x_StdPeriph_Driver/src/stm32f10x_rcc.c ****   tmp = tmp >> 4;
 1307              		.loc 1 1015 0
 1308 0032 124A     		ldr	r2, .L197
1017:Libraries/STM32F10x_StdPeriph_Driver/src/stm32f10x_rcc.c ****   /* HCLK clock frequency */
 1309              		.loc 1 1017 0
 1310 0034 134C     		ldr	r4, .L197+8
1015:Libraries/STM32F10x_StdPeriph_Driver/src/stm32f10x_rcc.c ****   tmp = tmp >> 4;
 1311              		.loc 1 1015 0
 1312 0036 5168     		ldr	r1, [r2, #4]
 1313              	.LVL108:
1035:Libraries/STM32F10x_StdPeriph_Driver/src/stm32f10x_rcc.c ****   /* ADCCLK clock frequency */
 1314              		.loc 1 1035 0
 1315 0038 134D     		ldr	r5, .L197+12
1016:Libraries/STM32F10x_StdPeriph_Driver/src/stm32f10x_rcc.c ****   presc = APBAHBPrescTable[tmp];
 1316              		.loc 1 1016 0
 1317 003a C1F30311 		ubfx	r1, r1, #4, #4
 1318              	.LVL109:
1017:Libraries/STM32F10x_StdPeriph_Driver/src/stm32f10x_rcc.c ****   /* HCLK clock frequency */
 1319              		.loc 1 1017 0
 1320 003e 615C     		ldrb	r1, [r4, r1]	@ zero_extendqisi2
 1321              	.LVL110:
1019:Libraries/STM32F10x_StdPeriph_Driver/src/stm32f10x_rcc.c ****   /* Get PCLK1 prescaler */
 1322              		.loc 1 1019 0
 1323 0040 CB40     		lsrs	r3, r3, r1
 1324 0042 4360     		str	r3, [r0, #4]
1021:Libraries/STM32F10x_StdPeriph_Driver/src/stm32f10x_rcc.c ****   tmp = tmp >> 8;
 1325              		.loc 1 1021 0
 1326 0044 5168     		ldr	r1, [r2, #4]
 1327              	.LVL111:
1022:Libraries/STM32F10x_StdPeriph_Driver/src/stm32f10x_rcc.c ****   presc = APBAHBPrescTable[tmp];
 1328              		.loc 1 1022 0
 1329 0046 C1F30221 		ubfx	r1, r1, #8, #3
 1330              	.LVL112:
1023:Libraries/STM32F10x_StdPeriph_Driver/src/stm32f10x_rcc.c ****   /* PCLK1 clock frequency */
 1331              		.loc 1 1023 0
 1332 004a 615C     		ldrb	r1, [r4, r1]	@ zero_extendqisi2
 1333              	.LVL113:
1025:Libraries/STM32F10x_StdPeriph_Driver/src/stm32f10x_rcc.c ****   /* Get PCLK2 prescaler */
 1334              		.loc 1 1025 0
 1335 004c 23FA01F1 		lsr	r1, r3, r1
 1336              	.LVL114:
 1337 0050 8160     		str	r1, [r0, #8]
1027:Libraries/STM32F10x_StdPeriph_Driver/src/stm32f10x_rcc.c ****   tmp = tmp >> 11;
 1338              		.loc 1 1027 0
 1339 0052 5168     		ldr	r1, [r2, #4]
 1340              	.LVL115:
1028:Libraries/STM32F10x_StdPeriph_Driver/src/stm32f10x_rcc.c ****   presc = APBAHBPrescTable[tmp];
 1341              		.loc 1 1028 0
 1342 0054 C1F3C221 		ubfx	r1, r1, #11, #3
 1343              	.LVL116:
1029:Libraries/STM32F10x_StdPeriph_Driver/src/stm32f10x_rcc.c ****   /* PCLK2 clock frequency */
 1344              		.loc 1 1029 0
 1345 0058 615C     		ldrb	r1, [r4, r1]	@ zero_extendqisi2
 1346              	.LVL117:
1031:Libraries/STM32F10x_StdPeriph_Driver/src/stm32f10x_rcc.c ****   /* Get ADCCLK prescaler */
 1347              		.loc 1 1031 0
 1348 005a CB40     		lsrs	r3, r3, r1
 1349 005c C360     		str	r3, [r0, #12]
1033:Libraries/STM32F10x_StdPeriph_Driver/src/stm32f10x_rcc.c ****   tmp = tmp >> 14;
 1350              		.loc 1 1033 0
 1351 005e 5268     		ldr	r2, [r2, #4]
 1352              	.LVL118:
1034:Libraries/STM32F10x_StdPeriph_Driver/src/stm32f10x_rcc.c ****   presc = ADCPrescTable[tmp];
 1353              		.loc 1 1034 0
 1354 0060 C2F38132 		ubfx	r2, r2, #14, #2
 1355              	.LVL119:
1035:Libraries/STM32F10x_StdPeriph_Driver/src/stm32f10x_rcc.c ****   /* ADCCLK clock frequency */
 1356              		.loc 1 1035 0
 1357 0064 AA5C     		ldrb	r2, [r5, r2]	@ zero_extendqisi2
 1358              	.LVL120:
1038:Libraries/STM32F10x_StdPeriph_Driver/src/stm32f10x_rcc.c **** 
 1359              		.loc 1 1038 0
 1360 0066 30BC     		pop	{r4, r5}
 1361              		.cfi_remember_state
 1362              		.cfi_restore 5
 1363              		.cfi_restore 4
 1364              		.cfi_def_cfa_offset 0
1037:Libraries/STM32F10x_StdPeriph_Driver/src/stm32f10x_rcc.c **** }
 1365              		.loc 1 1037 0
 1366 0068 B3FBF2F3 		udiv	r3, r3, r2
 1367 006c 0361     		str	r3, [r0, #16]
1038:Libraries/STM32F10x_StdPeriph_Driver/src/stm32f10x_rcc.c **** 
 1368              		.loc 1 1038 0
 1369 006e 7047     		bx	lr
 1370              	.LVL121:
 1371              	.L195:
 1372              		.cfi_restore_state
 961:Libraries/STM32F10x_StdPeriph_Driver/src/stm32f10x_rcc.c ****         }
 1373              		.loc 1 961 0
 1374 0070 064A     		ldr	r2, .L197+16
 1375 0072 02FB03F3 		mul	r3, r2, r3
 1376              	.LVL122:
 1377 0076 0360     		str	r3, [r0]
 1378 0078 DBE7     		b	.L191
 1379              	.L198:
 1380 007a 00BF     		.align	2
 1381              	.L197:
 1382 007c 00100240 		.word	1073876992
 1383 0080 00127A00 		.word	8000000
 1384 0084 00000000 		.word	.LANCHOR0
 1385 0088 00000000 		.word	.LANCHOR1
 1386 008c 00093D00 		.word	4000000
 1387              		.cfi_endproc
 1388              	.LFE48:
 1390              		.section	.text.RCC_AHBPeriphClockCmd,"ax",%progbits
 1391              		.align	1
 1392              		.p2align 2,,3
 1393              		.global	RCC_AHBPeriphClockCmd
 1394              		.syntax unified
 1395              		.thumb
 1396              		.thumb_func
 1397              		.fpu softvfp
 1399              	RCC_AHBPeriphClockCmd:
 1400              	.LFB49:
1072:Libraries/STM32F10x_StdPeriph_Driver/src/stm32f10x_rcc.c ****   /* Check the parameters */
 1401              		.loc 1 1072 0
 1402              		.cfi_startproc
 1403              		@ args = 0, pretend = 0, frame = 0
 1404              		@ frame_needed = 0, uses_anonymous_args = 0
 1405              	.LVL123:
 1406 0000 38B5     		push	{r3, r4, r5, lr}
 1407              		.cfi_def_cfa_offset 16
 1408              		.cfi_offset 3, -16
 1409              		.cfi_offset 4, -12
 1410              		.cfi_offset 5, -8
 1411              		.cfi_offset 14, -4
1074:Libraries/STM32F10x_StdPeriph_Driver/src/stm32f10x_rcc.c ****   assert_param(IS_FUNCTIONAL_STATE(NewState));
 1412              		.loc 1 1074 0
 1413 0002 20F4AA63 		bic	r3, r0, #1360
 1414 0006 23F00703 		bic	r3, r3, #7
1072:Libraries/STM32F10x_StdPeriph_Driver/src/stm32f10x_rcc.c ****   /* Check the parameters */
 1415              		.loc 1 1072 0
 1416 000a 0446     		mov	r4, r0
 1417 000c 0D46     		mov	r5, r1
1074:Libraries/STM32F10x_StdPeriph_Driver/src/stm32f10x_rcc.c ****   assert_param(IS_FUNCTIONAL_STATE(NewState));
 1418              		.loc 1 1074 0
 1419 000e 4BB9     		cbnz	r3, .L200
1074:Libraries/STM32F10x_StdPeriph_Driver/src/stm32f10x_rcc.c ****   assert_param(IS_FUNCTIONAL_STATE(NewState));
 1420              		.loc 1 1074 0 is_stmt 0 discriminator 2
 1421 0010 40B1     		cbz	r0, .L200
1075:Libraries/STM32F10x_StdPeriph_Driver/src/stm32f10x_rcc.c **** 
 1422              		.loc 1 1075 0 is_stmt 1
 1423 0012 012D     		cmp	r5, #1
 1424 0014 0DD8     		bhi	.L207
 1425              	.LVL124:
 1426              	.L202:
1077:Libraries/STM32F10x_StdPeriph_Driver/src/stm32f10x_rcc.c ****   {
 1427              		.loc 1 1077 0
 1428 0016 8DB9     		cbnz	r5, .L203
1083:Libraries/STM32F10x_StdPeriph_Driver/src/stm32f10x_rcc.c ****   }
 1429              		.loc 1 1083 0
 1430 0018 0B4A     		ldr	r2, .L208
 1431 001a 5369     		ldr	r3, [r2, #20]
 1432 001c 23EA0404 		bic	r4, r3, r4
 1433              	.LVL125:
 1434 0020 5461     		str	r4, [r2, #20]
1085:Libraries/STM32F10x_StdPeriph_Driver/src/stm32f10x_rcc.c **** 
 1435              		.loc 1 1085 0
 1436 0022 38BD     		pop	{r3, r4, r5, pc}
 1437              	.LVL126:
 1438              	.L200:
1074:Libraries/STM32F10x_StdPeriph_Driver/src/stm32f10x_rcc.c ****   assert_param(IS_FUNCTIONAL_STATE(NewState));
 1439              		.loc 1 1074 0 discriminator 3
 1440 0024 40F23241 		movw	r1, #1074
 1441              	.LVL127:
 1442 0028 0848     		ldr	r0, .L208+4
 1443              	.LVL128:
 1444 002a 094B     		ldr	r3, .L208+8
 1445 002c 9847     		blx	r3
 1446              	.LVL129:
1075:Libraries/STM32F10x_StdPeriph_Driver/src/stm32f10x_rcc.c **** 
 1447              		.loc 1 1075 0 discriminator 3
 1448 002e 012D     		cmp	r5, #1
 1449 0030 F1D9     		bls	.L202
 1450              	.L207:
1075:Libraries/STM32F10x_StdPeriph_Driver/src/stm32f10x_rcc.c **** 
 1451              		.loc 1 1075 0 is_stmt 0 discriminator 1
 1452 0032 40F23341 		movw	r1, #1075
 1453 0036 0548     		ldr	r0, .L208+4
 1454 0038 054B     		ldr	r3, .L208+8
 1455 003a 9847     		blx	r3
 1456              	.LVL130:
 1457              	.L203:
1079:Libraries/STM32F10x_StdPeriph_Driver/src/stm32f10x_rcc.c ****   }
 1458              		.loc 1 1079 0 is_stmt 1
 1459 003c 024A     		ldr	r2, .L208
 1460 003e 5369     		ldr	r3, [r2, #20]
 1461 0040 1C43     		orrs	r4, r4, r3
 1462              	.LVL131:
 1463 0042 5461     		str	r4, [r2, #20]
1085:Libraries/STM32F10x_StdPeriph_Driver/src/stm32f10x_rcc.c **** 
 1464              		.loc 1 1085 0
 1465 0044 38BD     		pop	{r3, r4, r5, pc}
 1466              	.L209:
 1467 0046 00BF     		.align	2
 1468              	.L208:
 1469 0048 00100240 		.word	1073876992
 1470 004c 00000000 		.word	.LC0
 1471 0050 00000000 		.word	assert_failed
 1472              		.cfi_endproc
 1473              	.LFE49:
 1475              		.section	.text.RCC_APB2PeriphClockCmd,"ax",%progbits
 1476              		.align	1
 1477              		.p2align 2,,3
 1478              		.global	RCC_APB2PeriphClockCmd
 1479              		.syntax unified
 1480              		.thumb
 1481              		.thumb_func
 1482              		.fpu softvfp
 1484              	RCC_APB2PeriphClockCmd:
 1485              	.LFB50:
1103:Libraries/STM32F10x_StdPeriph_Driver/src/stm32f10x_rcc.c ****   /* Check the parameters */
 1486              		.loc 1 1103 0
 1487              		.cfi_startproc
 1488              		@ args = 0, pretend = 0, frame = 0
 1489              		@ frame_needed = 0, uses_anonymous_args = 0
 1490              	.LVL132:
 1491 0000 38B5     		push	{r3, r4, r5, lr}
 1492              		.cfi_def_cfa_offset 16
 1493              		.cfi_offset 3, -16
 1494              		.cfi_offset 4, -12
 1495              		.cfi_offset 5, -8
 1496              		.cfi_offset 14, -4
1105:Libraries/STM32F10x_StdPeriph_Driver/src/stm32f10x_rcc.c ****   assert_param(IS_FUNCTIONAL_STATE(NewState));
 1497              		.loc 1 1105 0
 1498 0002 104B     		ldr	r3, .L219
1103:Libraries/STM32F10x_StdPeriph_Driver/src/stm32f10x_rcc.c ****   /* Check the parameters */
 1499              		.loc 1 1103 0
 1500 0004 0446     		mov	r4, r0
1105:Libraries/STM32F10x_StdPeriph_Driver/src/stm32f10x_rcc.c ****   assert_param(IS_FUNCTIONAL_STATE(NewState));
 1501              		.loc 1 1105 0
 1502 0006 0340     		ands	r3, r3, r0
1103:Libraries/STM32F10x_StdPeriph_Driver/src/stm32f10x_rcc.c ****   /* Check the parameters */
 1503              		.loc 1 1103 0
 1504 0008 0D46     		mov	r5, r1
1105:Libraries/STM32F10x_StdPeriph_Driver/src/stm32f10x_rcc.c ****   assert_param(IS_FUNCTIONAL_STATE(NewState));
 1505              		.loc 1 1105 0
 1506 000a 4BB9     		cbnz	r3, .L211
1105:Libraries/STM32F10x_StdPeriph_Driver/src/stm32f10x_rcc.c ****   assert_param(IS_FUNCTIONAL_STATE(NewState));
 1507              		.loc 1 1105 0 is_stmt 0 discriminator 2
 1508 000c 40B1     		cbz	r0, .L211
1106:Libraries/STM32F10x_StdPeriph_Driver/src/stm32f10x_rcc.c ****   if (NewState != DISABLE)
 1509              		.loc 1 1106 0 is_stmt 1
 1510 000e 012D     		cmp	r5, #1
 1511 0010 0DD8     		bhi	.L218
 1512              	.LVL133:
 1513              	.L213:
1107:Libraries/STM32F10x_StdPeriph_Driver/src/stm32f10x_rcc.c ****   {
 1514              		.loc 1 1107 0
 1515 0012 8DB9     		cbnz	r5, .L214
1113:Libraries/STM32F10x_StdPeriph_Driver/src/stm32f10x_rcc.c ****   }
 1516              		.loc 1 1113 0
 1517 0014 0C4A     		ldr	r2, .L219+4
 1518 0016 9369     		ldr	r3, [r2, #24]
 1519 0018 23EA0404 		bic	r4, r3, r4
 1520              	.LVL134:
 1521 001c 9461     		str	r4, [r2, #24]
1115:Libraries/STM32F10x_StdPeriph_Driver/src/stm32f10x_rcc.c **** 
 1522              		.loc 1 1115 0
 1523 001e 38BD     		pop	{r3, r4, r5, pc}
 1524              	.LVL135:
 1525              	.L211:
1105:Libraries/STM32F10x_StdPeriph_Driver/src/stm32f10x_rcc.c ****   assert_param(IS_FUNCTIONAL_STATE(NewState));
 1526              		.loc 1 1105 0 discriminator 3
 1527 0020 40F25141 		movw	r1, #1105
 1528              	.LVL136:
 1529 0024 0948     		ldr	r0, .L219+8
 1530              	.LVL137:
 1531 0026 0A4B     		ldr	r3, .L219+12
 1532 0028 9847     		blx	r3
 1533              	.LVL138:
1106:Libraries/STM32F10x_StdPeriph_Driver/src/stm32f10x_rcc.c ****   if (NewState != DISABLE)
 1534              		.loc 1 1106 0 discriminator 3
 1535 002a 012D     		cmp	r5, #1
 1536 002c F1D9     		bls	.L213
 1537              	.L218:
1106:Libraries/STM32F10x_StdPeriph_Driver/src/stm32f10x_rcc.c ****   if (NewState != DISABLE)
 1538              		.loc 1 1106 0 is_stmt 0 discriminator 1
 1539 002e 40F25241 		movw	r1, #1106
 1540 0032 0648     		ldr	r0, .L219+8
 1541 0034 064B     		ldr	r3, .L219+12
 1542 0036 9847     		blx	r3
 1543              	.LVL139:
 1544              	.L214:
1109:Libraries/STM32F10x_StdPeriph_Driver/src/stm32f10x_rcc.c ****   }
 1545              		.loc 1 1109 0 is_stmt 1
 1546 0038 034A     		ldr	r2, .L219+4
 1547 003a 9369     		ldr	r3, [r2, #24]
 1548 003c 1C43     		orrs	r4, r4, r3
 1549              	.LVL140:
 1550 003e 9461     		str	r4, [r2, #24]
1115:Libraries/STM32F10x_StdPeriph_Driver/src/stm32f10x_rcc.c **** 
 1551              		.loc 1 1115 0
 1552 0040 38BD     		pop	{r3, r4, r5, pc}
 1553              	.L220:
 1554 0042 00BF     		.align	2
 1555              	.L219:
 1556 0044 0200C0FF 		.word	-4194302
 1557 0048 00100240 		.word	1073876992
 1558 004c 00000000 		.word	.LC0
 1559 0050 00000000 		.word	assert_failed
 1560              		.cfi_endproc
 1561              	.LFE50:
 1563              		.section	.text.RCC_APB1PeriphClockCmd,"ax",%progbits
 1564              		.align	1
 1565              		.p2align 2,,3
 1566              		.global	RCC_APB1PeriphClockCmd
 1567              		.syntax unified
 1568              		.thumb
 1569              		.thumb_func
 1570              		.fpu softvfp
 1572              	RCC_APB1PeriphClockCmd:
 1573              	.LFB51:
1134:Libraries/STM32F10x_StdPeriph_Driver/src/stm32f10x_rcc.c ****   /* Check the parameters */
 1574              		.loc 1 1134 0
 1575              		.cfi_startproc
 1576              		@ args = 0, pretend = 0, frame = 0
 1577              		@ frame_needed = 0, uses_anonymous_args = 0
 1578              	.LVL141:
 1579 0000 38B5     		push	{r3, r4, r5, lr}
 1580              		.cfi_def_cfa_offset 16
 1581              		.cfi_offset 3, -16
 1582              		.cfi_offset 4, -12
 1583              		.cfi_offset 5, -8
 1584              		.cfi_offset 14, -4
1136:Libraries/STM32F10x_StdPeriph_Driver/src/stm32f10x_rcc.c ****   assert_param(IS_FUNCTIONAL_STATE(NewState));
 1585              		.loc 1 1136 0
 1586 0002 104B     		ldr	r3, .L230
1134:Libraries/STM32F10x_StdPeriph_Driver/src/stm32f10x_rcc.c ****   /* Check the parameters */
 1587              		.loc 1 1134 0
 1588 0004 0446     		mov	r4, r0
1136:Libraries/STM32F10x_StdPeriph_Driver/src/stm32f10x_rcc.c ****   assert_param(IS_FUNCTIONAL_STATE(NewState));
 1589              		.loc 1 1136 0
 1590 0006 1842     		tst	r0, r3
1134:Libraries/STM32F10x_StdPeriph_Driver/src/stm32f10x_rcc.c ****   /* Check the parameters */
 1591              		.loc 1 1134 0
 1592 0008 0D46     		mov	r5, r1
1136:Libraries/STM32F10x_StdPeriph_Driver/src/stm32f10x_rcc.c ****   assert_param(IS_FUNCTIONAL_STATE(NewState));
 1593              		.loc 1 1136 0
 1594 000a 09D1     		bne	.L222
1136:Libraries/STM32F10x_StdPeriph_Driver/src/stm32f10x_rcc.c ****   assert_param(IS_FUNCTIONAL_STATE(NewState));
 1595              		.loc 1 1136 0 is_stmt 0 discriminator 2
 1596 000c 40B1     		cbz	r0, .L222
1137:Libraries/STM32F10x_StdPeriph_Driver/src/stm32f10x_rcc.c ****   if (NewState != DISABLE)
 1597              		.loc 1 1137 0 is_stmt 1
 1598 000e 012D     		cmp	r5, #1
 1599 0010 0DD8     		bhi	.L229
 1600              	.LVL142:
 1601              	.L224:
1138:Libraries/STM32F10x_StdPeriph_Driver/src/stm32f10x_rcc.c ****   {
 1602              		.loc 1 1138 0
 1603 0012 8DB9     		cbnz	r5, .L225
1144:Libraries/STM32F10x_StdPeriph_Driver/src/stm32f10x_rcc.c ****   }
 1604              		.loc 1 1144 0
 1605 0014 0C4A     		ldr	r2, .L230+4
 1606 0016 D369     		ldr	r3, [r2, #28]
 1607 0018 23EA0404 		bic	r4, r3, r4
 1608              	.LVL143:
 1609 001c D461     		str	r4, [r2, #28]
1146:Libraries/STM32F10x_StdPeriph_Driver/src/stm32f10x_rcc.c **** 
 1610              		.loc 1 1146 0
 1611 001e 38BD     		pop	{r3, r4, r5, pc}
 1612              	.LVL144:
 1613              	.L222:
1136:Libraries/STM32F10x_StdPeriph_Driver/src/stm32f10x_rcc.c ****   assert_param(IS_FUNCTIONAL_STATE(NewState));
 1614              		.loc 1 1136 0 discriminator 3
 1615 0020 4FF48E61 		mov	r1, #1136
 1616              	.LVL145:
 1617 0024 0948     		ldr	r0, .L230+8
 1618              	.LVL146:
 1619 0026 0A4B     		ldr	r3, .L230+12
 1620 0028 9847     		blx	r3
 1621              	.LVL147:
1137:Libraries/STM32F10x_StdPeriph_Driver/src/stm32f10x_rcc.c ****   if (NewState != DISABLE)
 1622              		.loc 1 1137 0 discriminator 3
 1623 002a 012D     		cmp	r5, #1
 1624 002c F1D9     		bls	.L224
 1625              	.L229:
1137:Libraries/STM32F10x_StdPeriph_Driver/src/stm32f10x_rcc.c ****   if (NewState != DISABLE)
 1626              		.loc 1 1137 0 is_stmt 0 discriminator 1
 1627 002e 40F27141 		movw	r1, #1137
 1628 0032 0648     		ldr	r0, .L230+8
 1629 0034 064B     		ldr	r3, .L230+12
 1630 0036 9847     		blx	r3
 1631              	.LVL148:
 1632              	.L225:
1140:Libraries/STM32F10x_StdPeriph_Driver/src/stm32f10x_rcc.c ****   }
 1633              		.loc 1 1140 0 is_stmt 1
 1634 0038 034A     		ldr	r2, .L230+4
 1635 003a D369     		ldr	r3, [r2, #28]
 1636 003c 1C43     		orrs	r4, r4, r3
 1637              	.LVL149:
 1638 003e D461     		str	r4, [r2, #28]
1146:Libraries/STM32F10x_StdPeriph_Driver/src/stm32f10x_rcc.c **** 
 1639              		.loc 1 1146 0
 1640 0040 38BD     		pop	{r3, r4, r5, pc}
 1641              	.L231:
 1642 0042 00BF     		.align	2
 1643              	.L230:
 1644 0044 00360181 		.word	-2130627072
 1645 0048 00100240 		.word	1073876992
 1646 004c 00000000 		.word	.LC0
 1647 0050 00000000 		.word	assert_failed
 1648              		.cfi_endproc
 1649              	.LFE51:
 1651              		.section	.text.RCC_APB2PeriphResetCmd,"ax",%progbits
 1652              		.align	1
 1653              		.p2align 2,,3
 1654              		.global	RCC_APB2PeriphResetCmd
 1655              		.syntax unified
 1656              		.thumb
 1657              		.thumb_func
 1658              		.fpu softvfp
 1660              	RCC_APB2PeriphResetCmd:
 1661              	.LFB52:
1193:Libraries/STM32F10x_StdPeriph_Driver/src/stm32f10x_rcc.c ****   /* Check the parameters */
 1662              		.loc 1 1193 0
 1663              		.cfi_startproc
 1664              		@ args = 0, pretend = 0, frame = 0
 1665              		@ frame_needed = 0, uses_anonymous_args = 0
 1666              	.LVL150:
 1667 0000 38B5     		push	{r3, r4, r5, lr}
 1668              		.cfi_def_cfa_offset 16
 1669              		.cfi_offset 3, -16
 1670              		.cfi_offset 4, -12
 1671              		.cfi_offset 5, -8
 1672              		.cfi_offset 14, -4
1195:Libraries/STM32F10x_StdPeriph_Driver/src/stm32f10x_rcc.c ****   assert_param(IS_FUNCTIONAL_STATE(NewState));
 1673              		.loc 1 1195 0
 1674 0002 104B     		ldr	r3, .L241
1193:Libraries/STM32F10x_StdPeriph_Driver/src/stm32f10x_rcc.c ****   /* Check the parameters */
 1675              		.loc 1 1193 0
 1676 0004 0446     		mov	r4, r0
1195:Libraries/STM32F10x_StdPeriph_Driver/src/stm32f10x_rcc.c ****   assert_param(IS_FUNCTIONAL_STATE(NewState));
 1677              		.loc 1 1195 0
 1678 0006 0340     		ands	r3, r3, r0
1193:Libraries/STM32F10x_StdPeriph_Driver/src/stm32f10x_rcc.c ****   /* Check the parameters */
 1679              		.loc 1 1193 0
 1680 0008 0D46     		mov	r5, r1
1195:Libraries/STM32F10x_StdPeriph_Driver/src/stm32f10x_rcc.c ****   assert_param(IS_FUNCTIONAL_STATE(NewState));
 1681              		.loc 1 1195 0
 1682 000a 4BB9     		cbnz	r3, .L233
1195:Libraries/STM32F10x_StdPeriph_Driver/src/stm32f10x_rcc.c ****   assert_param(IS_FUNCTIONAL_STATE(NewState));
 1683              		.loc 1 1195 0 is_stmt 0 discriminator 2
 1684 000c 40B1     		cbz	r0, .L233
1196:Libraries/STM32F10x_StdPeriph_Driver/src/stm32f10x_rcc.c ****   if (NewState != DISABLE)
 1685              		.loc 1 1196 0 is_stmt 1
 1686 000e 012D     		cmp	r5, #1
 1687 0010 0DD8     		bhi	.L240
 1688              	.LVL151:
 1689              	.L235:
1197:Libraries/STM32F10x_StdPeriph_Driver/src/stm32f10x_rcc.c ****   {
 1690              		.loc 1 1197 0
 1691 0012 8DB9     		cbnz	r5, .L236
1203:Libraries/STM32F10x_StdPeriph_Driver/src/stm32f10x_rcc.c ****   }
 1692              		.loc 1 1203 0
 1693 0014 0C4A     		ldr	r2, .L241+4
 1694 0016 D368     		ldr	r3, [r2, #12]
 1695 0018 23EA0404 		bic	r4, r3, r4
 1696              	.LVL152:
 1697 001c D460     		str	r4, [r2, #12]
1205:Libraries/STM32F10x_StdPeriph_Driver/src/stm32f10x_rcc.c **** 
 1698              		.loc 1 1205 0
 1699 001e 38BD     		pop	{r3, r4, r5, pc}
 1700              	.LVL153:
 1701              	.L233:
1195:Libraries/STM32F10x_StdPeriph_Driver/src/stm32f10x_rcc.c ****   assert_param(IS_FUNCTIONAL_STATE(NewState));
 1702              		.loc 1 1195 0 discriminator 3
 1703 0020 40F2AB41 		movw	r1, #1195
 1704              	.LVL154:
 1705 0024 0948     		ldr	r0, .L241+8
 1706              	.LVL155:
 1707 0026 0A4B     		ldr	r3, .L241+12
 1708 0028 9847     		blx	r3
 1709              	.LVL156:
1196:Libraries/STM32F10x_StdPeriph_Driver/src/stm32f10x_rcc.c ****   if (NewState != DISABLE)
 1710              		.loc 1 1196 0 discriminator 3
 1711 002a 012D     		cmp	r5, #1
 1712 002c F1D9     		bls	.L235
 1713              	.L240:
1196:Libraries/STM32F10x_StdPeriph_Driver/src/stm32f10x_rcc.c ****   if (NewState != DISABLE)
 1714              		.loc 1 1196 0 is_stmt 0 discriminator 1
 1715 002e 40F2AC41 		movw	r1, #1196
 1716 0032 0648     		ldr	r0, .L241+8
 1717 0034 064B     		ldr	r3, .L241+12
 1718 0036 9847     		blx	r3
 1719              	.LVL157:
 1720              	.L236:
1199:Libraries/STM32F10x_StdPeriph_Driver/src/stm32f10x_rcc.c ****   }
 1721              		.loc 1 1199 0 is_stmt 1
 1722 0038 034A     		ldr	r2, .L241+4
 1723 003a D368     		ldr	r3, [r2, #12]
 1724 003c 1C43     		orrs	r4, r4, r3
 1725              	.LVL158:
 1726 003e D460     		str	r4, [r2, #12]
1205:Libraries/STM32F10x_StdPeriph_Driver/src/stm32f10x_rcc.c **** 
 1727              		.loc 1 1205 0
 1728 0040 38BD     		pop	{r3, r4, r5, pc}
 1729              	.L242:
 1730 0042 00BF     		.align	2
 1731              	.L241:
 1732 0044 0200C0FF 		.word	-4194302
 1733 0048 00100240 		.word	1073876992
 1734 004c 00000000 		.word	.LC0
 1735 0050 00000000 		.word	assert_failed
 1736              		.cfi_endproc
 1737              	.LFE52:
 1739              		.section	.text.RCC_APB1PeriphResetCmd,"ax",%progbits
 1740              		.align	1
 1741              		.p2align 2,,3
 1742              		.global	RCC_APB1PeriphResetCmd
 1743              		.syntax unified
 1744              		.thumb
 1745              		.thumb_func
 1746              		.fpu softvfp
 1748              	RCC_APB1PeriphResetCmd:
 1749              	.LFB53:
1224:Libraries/STM32F10x_StdPeriph_Driver/src/stm32f10x_rcc.c ****   /* Check the parameters */
 1750              		.loc 1 1224 0
 1751              		.cfi_startproc
 1752              		@ args = 0, pretend = 0, frame = 0
 1753              		@ frame_needed = 0, uses_anonymous_args = 0
 1754              	.LVL159:
 1755 0000 38B5     		push	{r3, r4, r5, lr}
 1756              		.cfi_def_cfa_offset 16
 1757              		.cfi_offset 3, -16
 1758              		.cfi_offset 4, -12
 1759              		.cfi_offset 5, -8
 1760              		.cfi_offset 14, -4
1226:Libraries/STM32F10x_StdPeriph_Driver/src/stm32f10x_rcc.c ****   assert_param(IS_FUNCTIONAL_STATE(NewState));
 1761              		.loc 1 1226 0
 1762 0002 104B     		ldr	r3, .L252
1224:Libraries/STM32F10x_StdPeriph_Driver/src/stm32f10x_rcc.c ****   /* Check the parameters */
 1763              		.loc 1 1224 0
 1764 0004 0446     		mov	r4, r0
1226:Libraries/STM32F10x_StdPeriph_Driver/src/stm32f10x_rcc.c ****   assert_param(IS_FUNCTIONAL_STATE(NewState));
 1765              		.loc 1 1226 0
 1766 0006 1842     		tst	r0, r3
1224:Libraries/STM32F10x_StdPeriph_Driver/src/stm32f10x_rcc.c ****   /* Check the parameters */
 1767              		.loc 1 1224 0
 1768 0008 0D46     		mov	r5, r1
1226:Libraries/STM32F10x_StdPeriph_Driver/src/stm32f10x_rcc.c ****   assert_param(IS_FUNCTIONAL_STATE(NewState));
 1769              		.loc 1 1226 0
 1770 000a 09D1     		bne	.L244
1226:Libraries/STM32F10x_StdPeriph_Driver/src/stm32f10x_rcc.c ****   assert_param(IS_FUNCTIONAL_STATE(NewState));
 1771              		.loc 1 1226 0 is_stmt 0 discriminator 2
 1772 000c 40B1     		cbz	r0, .L244
1227:Libraries/STM32F10x_StdPeriph_Driver/src/stm32f10x_rcc.c ****   if (NewState != DISABLE)
 1773              		.loc 1 1227 0 is_stmt 1
 1774 000e 012D     		cmp	r5, #1
 1775 0010 0DD8     		bhi	.L251
 1776              	.LVL160:
 1777              	.L246:
1228:Libraries/STM32F10x_StdPeriph_Driver/src/stm32f10x_rcc.c ****   {
 1778              		.loc 1 1228 0
 1779 0012 8DB9     		cbnz	r5, .L247
1234:Libraries/STM32F10x_StdPeriph_Driver/src/stm32f10x_rcc.c ****   }
 1780              		.loc 1 1234 0
 1781 0014 0C4A     		ldr	r2, .L252+4
 1782 0016 1369     		ldr	r3, [r2, #16]
 1783 0018 23EA0404 		bic	r4, r3, r4
 1784              	.LVL161:
 1785 001c 1461     		str	r4, [r2, #16]
1236:Libraries/STM32F10x_StdPeriph_Driver/src/stm32f10x_rcc.c **** 
 1786              		.loc 1 1236 0
 1787 001e 38BD     		pop	{r3, r4, r5, pc}
 1788              	.LVL162:
 1789              	.L244:
1226:Libraries/STM32F10x_StdPeriph_Driver/src/stm32f10x_rcc.c ****   assert_param(IS_FUNCTIONAL_STATE(NewState));
 1790              		.loc 1 1226 0 discriminator 3
 1791 0020 40F2CA41 		movw	r1, #1226
 1792              	.LVL163:
 1793 0024 0948     		ldr	r0, .L252+8
 1794              	.LVL164:
 1795 0026 0A4B     		ldr	r3, .L252+12
 1796 0028 9847     		blx	r3
 1797              	.LVL165:
1227:Libraries/STM32F10x_StdPeriph_Driver/src/stm32f10x_rcc.c ****   if (NewState != DISABLE)
 1798              		.loc 1 1227 0 discriminator 3
 1799 002a 012D     		cmp	r5, #1
 1800 002c F1D9     		bls	.L246
 1801              	.L251:
1227:Libraries/STM32F10x_StdPeriph_Driver/src/stm32f10x_rcc.c ****   if (NewState != DISABLE)
 1802              		.loc 1 1227 0 is_stmt 0 discriminator 1
 1803 002e 40F2CB41 		movw	r1, #1227
 1804 0032 0648     		ldr	r0, .L252+8
 1805 0034 064B     		ldr	r3, .L252+12
 1806 0036 9847     		blx	r3
 1807              	.LVL166:
 1808              	.L247:
1230:Libraries/STM32F10x_StdPeriph_Driver/src/stm32f10x_rcc.c ****   }
 1809              		.loc 1 1230 0 is_stmt 1
 1810 0038 034A     		ldr	r2, .L252+4
 1811 003a 1369     		ldr	r3, [r2, #16]
 1812 003c 1C43     		orrs	r4, r4, r3
 1813              	.LVL167:
 1814 003e 1461     		str	r4, [r2, #16]
1236:Libraries/STM32F10x_StdPeriph_Driver/src/stm32f10x_rcc.c **** 
 1815              		.loc 1 1236 0
 1816 0040 38BD     		pop	{r3, r4, r5, pc}
 1817              	.L253:
 1818 0042 00BF     		.align	2
 1819              	.L252:
 1820 0044 00360181 		.word	-2130627072
 1821 0048 00100240 		.word	1073876992
 1822 004c 00000000 		.word	.LC0
 1823 0050 00000000 		.word	assert_failed
 1824              		.cfi_endproc
 1825              	.LFE53:
 1827              		.section	.text.RCC_BackupResetCmd,"ax",%progbits
 1828              		.align	1
 1829              		.p2align 2,,3
 1830              		.global	RCC_BackupResetCmd
 1831              		.syntax unified
 1832              		.thumb
 1833              		.thumb_func
 1834              		.fpu softvfp
 1836              	RCC_BackupResetCmd:
 1837              	.LFB54:
1245:Libraries/STM32F10x_StdPeriph_Driver/src/stm32f10x_rcc.c ****   /* Check the parameters */
 1838              		.loc 1 1245 0
 1839              		.cfi_startproc
 1840              		@ args = 0, pretend = 0, frame = 0
 1841              		@ frame_needed = 0, uses_anonymous_args = 0
 1842              	.LVL168:
1247:Libraries/STM32F10x_StdPeriph_Driver/src/stm32f10x_rcc.c ****   *(__IO uint32_t *) BDCR_BDRST_BB = (uint32_t)NewState;
 1843              		.loc 1 1247 0
 1844 0000 0128     		cmp	r0, #1
1245:Libraries/STM32F10x_StdPeriph_Driver/src/stm32f10x_rcc.c ****   /* Check the parameters */
 1845              		.loc 1 1245 0
 1846 0002 10B5     		push	{r4, lr}
 1847              		.cfi_def_cfa_offset 8
 1848              		.cfi_offset 4, -8
 1849              		.cfi_offset 14, -4
1245:Libraries/STM32F10x_StdPeriph_Driver/src/stm32f10x_rcc.c ****   /* Check the parameters */
 1850              		.loc 1 1245 0
 1851 0004 0446     		mov	r4, r0
1247:Libraries/STM32F10x_StdPeriph_Driver/src/stm32f10x_rcc.c ****   *(__IO uint32_t *) BDCR_BDRST_BB = (uint32_t)NewState;
 1852              		.loc 1 1247 0
 1853 0006 04D9     		bls	.L255
1247:Libraries/STM32F10x_StdPeriph_Driver/src/stm32f10x_rcc.c ****   *(__IO uint32_t *) BDCR_BDRST_BB = (uint32_t)NewState;
 1854              		.loc 1 1247 0 is_stmt 0 discriminator 1
 1855 0008 40F2DF41 		movw	r1, #1247
 1856 000c 0248     		ldr	r0, .L257
 1857              	.LVL169:
 1858 000e 034B     		ldr	r3, .L257+4
 1859 0010 9847     		blx	r3
 1860              	.LVL170:
 1861              	.L255:
1248:Libraries/STM32F10x_StdPeriph_Driver/src/stm32f10x_rcc.c **** }
 1862              		.loc 1 1248 0 is_stmt 1
 1863 0012 034B     		ldr	r3, .L257+8
 1864 0014 1C60     		str	r4, [r3]
1249:Libraries/STM32F10x_StdPeriph_Driver/src/stm32f10x_rcc.c **** 
 1865              		.loc 1 1249 0
 1866 0016 10BD     		pop	{r4, pc}
 1867              	.L258:
 1868              		.align	2
 1869              	.L257:
 1870 0018 00000000 		.word	.LC0
 1871 001c 00000000 		.word	assert_failed
 1872 0020 40044242 		.word	1111622720
 1873              		.cfi_endproc
 1874              	.LFE54:
 1876              		.section	.text.RCC_ClockSecuritySystemCmd,"ax",%progbits
 1877              		.align	1
 1878              		.p2align 2,,3
 1879              		.global	RCC_ClockSecuritySystemCmd
 1880              		.syntax unified
 1881              		.thumb
 1882              		.thumb_func
 1883              		.fpu softvfp
 1885              	RCC_ClockSecuritySystemCmd:
 1886              	.LFB55:
1258:Libraries/STM32F10x_StdPeriph_Driver/src/stm32f10x_rcc.c ****   /* Check the parameters */
 1887              		.loc 1 1258 0
 1888              		.cfi_startproc
 1889              		@ args = 0, pretend = 0, frame = 0
 1890              		@ frame_needed = 0, uses_anonymous_args = 0
 1891              	.LVL171:
1260:Libraries/STM32F10x_StdPeriph_Driver/src/stm32f10x_rcc.c ****   *(__IO uint32_t *) CR_CSSON_BB = (uint32_t)NewState;
 1892              		.loc 1 1260 0
 1893 0000 0128     		cmp	r0, #1
1258:Libraries/STM32F10x_StdPeriph_Driver/src/stm32f10x_rcc.c ****   /* Check the parameters */
 1894              		.loc 1 1258 0
 1895 0002 10B5     		push	{r4, lr}
 1896              		.cfi_def_cfa_offset 8
 1897              		.cfi_offset 4, -8
 1898              		.cfi_offset 14, -4
1258:Libraries/STM32F10x_StdPeriph_Driver/src/stm32f10x_rcc.c ****   /* Check the parameters */
 1899              		.loc 1 1258 0
 1900 0004 0446     		mov	r4, r0
1260:Libraries/STM32F10x_StdPeriph_Driver/src/stm32f10x_rcc.c ****   *(__IO uint32_t *) CR_CSSON_BB = (uint32_t)NewState;
 1901              		.loc 1 1260 0
 1902 0006 04D9     		bls	.L260
1260:Libraries/STM32F10x_StdPeriph_Driver/src/stm32f10x_rcc.c ****   *(__IO uint32_t *) CR_CSSON_BB = (uint32_t)NewState;
 1903              		.loc 1 1260 0 is_stmt 0 discriminator 1
 1904 0008 40F2EC41 		movw	r1, #1260
 1905 000c 0248     		ldr	r0, .L262
 1906              	.LVL172:
 1907 000e 034B     		ldr	r3, .L262+4
 1908 0010 9847     		blx	r3
 1909              	.LVL173:
 1910              	.L260:
1261:Libraries/STM32F10x_StdPeriph_Driver/src/stm32f10x_rcc.c **** }
 1911              		.loc 1 1261 0 is_stmt 1
 1912 0012 034B     		ldr	r3, .L262+8
 1913 0014 1C60     		str	r4, [r3]
1262:Libraries/STM32F10x_StdPeriph_Driver/src/stm32f10x_rcc.c **** 
 1914              		.loc 1 1262 0
 1915 0016 10BD     		pop	{r4, pc}
 1916              	.L263:
 1917              		.align	2
 1918              	.L262:
 1919 0018 00000000 		.word	.LC0
 1920 001c 00000000 		.word	assert_failed
 1921 0020 4C004242 		.word	1111621708
 1922              		.cfi_endproc
 1923              	.LFE55:
 1925              		.section	.text.RCC_MCOConfig,"ax",%progbits
 1926              		.align	1
 1927              		.p2align 2,,3
 1928              		.global	RCC_MCOConfig
 1929              		.syntax unified
 1930              		.thumb
 1931              		.thumb_func
 1932              		.fpu softvfp
 1934              	RCC_MCOConfig:
 1935              	.LFB56:
1290:Libraries/STM32F10x_StdPeriph_Driver/src/stm32f10x_rcc.c ****   /* Check the parameters */
 1936              		.loc 1 1290 0
 1937              		.cfi_startproc
 1938              		@ args = 0, pretend = 0, frame = 0
 1939              		@ frame_needed = 0, uses_anonymous_args = 0
 1940              	.LVL174:
 1941 0000 10B5     		push	{r4, lr}
 1942              		.cfi_def_cfa_offset 8
 1943              		.cfi_offset 4, -8
 1944              		.cfi_offset 14, -4
1292:Libraries/STM32F10x_StdPeriph_Driver/src/stm32f10x_rcc.c **** 
 1945              		.loc 1 1292 0
 1946 0002 0446     		mov	r4, r0
 1947 0004 38B1     		cbz	r0, .L265
1292:Libraries/STM32F10x_StdPeriph_Driver/src/stm32f10x_rcc.c **** 
 1948              		.loc 1 1292 0 is_stmt 0 discriminator 2
 1949 0006 031F     		subs	r3, r0, #4
 1950 0008 032B     		cmp	r3, #3
 1951 000a 04D9     		bls	.L265
1292:Libraries/STM32F10x_StdPeriph_Driver/src/stm32f10x_rcc.c **** 
 1952              		.loc 1 1292 0 discriminator 5
 1953 000c 40F20C51 		movw	r1, #1292
 1954 0010 0248     		ldr	r0, .L270
 1955              	.LVL175:
 1956 0012 034B     		ldr	r3, .L270+4
 1957 0014 9847     		blx	r3
 1958              	.LVL176:
 1959              	.L265:
1295:Libraries/STM32F10x_StdPeriph_Driver/src/stm32f10x_rcc.c **** }
 1960              		.loc 1 1295 0 is_stmt 1
 1961 0016 034B     		ldr	r3, .L270+8
 1962 0018 1C70     		strb	r4, [r3]
1296:Libraries/STM32F10x_StdPeriph_Driver/src/stm32f10x_rcc.c **** 
 1963              		.loc 1 1296 0
 1964 001a 10BD     		pop	{r4, pc}
 1965              	.L271:
 1966              		.align	2
 1967              	.L270:
 1968 001c 00000000 		.word	.LC0
 1969 0020 00000000 		.word	assert_failed
 1970 0024 07100240 		.word	1073876999
 1971              		.cfi_endproc
 1972              	.LFE56:
 1974              		.section	.text.RCC_GetFlagStatus,"ax",%progbits
 1975              		.align	1
 1976              		.p2align 2,,3
 1977              		.global	RCC_GetFlagStatus
 1978              		.syntax unified
 1979              		.thumb
 1980              		.thumb_func
 1981              		.fpu softvfp
 1983              	RCC_GetFlagStatus:
 1984              	.LFB57:
1334:Libraries/STM32F10x_StdPeriph_Driver/src/stm32f10x_rcc.c ****   uint32_t tmp = 0;
 1985              		.loc 1 1334 0
 1986              		.cfi_startproc
 1987              		@ args = 0, pretend = 0, frame = 0
 1988              		@ frame_needed = 0, uses_anonymous_args = 0
 1989              	.LVL177:
1339:Libraries/STM32F10x_StdPeriph_Driver/src/stm32f10x_rcc.c **** 
 1990              		.loc 1 1339 0
 1991 0000 00F0EF03 		and	r3, r0, #239
 1992 0004 212B     		cmp	r3, #33
1334:Libraries/STM32F10x_StdPeriph_Driver/src/stm32f10x_rcc.c ****   uint32_t tmp = 0;
 1993              		.loc 1 1334 0
 1994 0006 10B5     		push	{r4, lr}
 1995              		.cfi_def_cfa_offset 8
 1996              		.cfi_offset 4, -8
 1997              		.cfi_offset 14, -4
1334:Libraries/STM32F10x_StdPeriph_Driver/src/stm32f10x_rcc.c ****   uint32_t tmp = 0;
 1998              		.loc 1 1334 0
 1999 0008 0446     		mov	r4, r0
1339:Libraries/STM32F10x_StdPeriph_Driver/src/stm32f10x_rcc.c **** 
 2000              		.loc 1 1339 0
 2001 000a 1BD0     		beq	.L275
1339:Libraries/STM32F10x_StdPeriph_Driver/src/stm32f10x_rcc.c **** 
 2002              		.loc 1 1339 0 is_stmt 0 discriminator 2
 2003 000c 3928     		cmp	r0, #57
 2004 000e 19D0     		beq	.L275
1339:Libraries/STM32F10x_StdPeriph_Driver/src/stm32f10x_rcc.c **** 
 2005              		.loc 1 1339 0 discriminator 3
 2006 0010 4128     		cmp	r0, #65
 2007 0012 1FD0     		beq	.L278
1339:Libraries/STM32F10x_StdPeriph_Driver/src/stm32f10x_rcc.c **** 
 2008              		.loc 1 1339 0 discriminator 4
 2009 0014 6128     		cmp	r0, #97
 2010 0016 0DD0     		beq	.L277
1339:Libraries/STM32F10x_StdPeriph_Driver/src/stm32f10x_rcc.c **** 
 2011              		.loc 1 1339 0 discriminator 5
 2012 0018 A0F17A03 		sub	r3, r0, #122
 2013 001c 052B     		cmp	r3, #5
 2014 001e 09D9     		bls	.L277
1339:Libraries/STM32F10x_StdPeriph_Driver/src/stm32f10x_rcc.c **** 
 2015              		.loc 1 1339 0 discriminator 11
 2016 0020 104B     		ldr	r3, .L292
 2017 0022 40F23B51 		movw	r1, #1339
 2018 0026 1048     		ldr	r0, .L292+4
 2019              	.LVL178:
 2020 0028 9847     		blx	r3
 2021              	.LVL179:
1342:Libraries/STM32F10x_StdPeriph_Driver/src/stm32f10x_rcc.c ****   if (tmp == 1)               /* The flag to check is in CR register */
 2022              		.loc 1 1342 0 is_stmt 1 discriminator 11
 2023 002a 6309     		lsrs	r3, r4, #5
 2024              	.LVL180:
1343:Libraries/STM32F10x_StdPeriph_Driver/src/stm32f10x_rcc.c ****   {
 2025              		.loc 1 1343 0 discriminator 11
 2026 002c 012B     		cmp	r3, #1
 2027 002e 09D0     		beq	.L275
1347:Libraries/STM32F10x_StdPeriph_Driver/src/stm32f10x_rcc.c ****   {
 2028              		.loc 1 1347 0
 2029 0030 022B     		cmp	r3, #2
 2030 0032 0FD0     		beq	.L278
 2031              	.LVL181:
 2032              	.L277:
1353:Libraries/STM32F10x_StdPeriph_Driver/src/stm32f10x_rcc.c ****   }
 2033              		.loc 1 1353 0
 2034 0034 0D4B     		ldr	r3, .L292+8
1357:Libraries/STM32F10x_StdPeriph_Driver/src/stm32f10x_rcc.c ****   if ((statusreg & ((uint32_t)1 << tmp)) != (uint32_t)RESET)
 2035              		.loc 1 1357 0
 2036 0036 04F01F04 		and	r4, r4, #31
1353:Libraries/STM32F10x_StdPeriph_Driver/src/stm32f10x_rcc.c ****   }
 2037              		.loc 1 1353 0
 2038 003a 586A     		ldr	r0, [r3, #36]
 2039              	.LVL182:
 2040              		.loc 1 1358 0
 2041 003c E040     		lsrs	r0, r0, r4
 2042              	.LVL183:
1359:Libraries/STM32F10x_StdPeriph_Driver/src/stm32f10x_rcc.c ****   {
1360:Libraries/STM32F10x_StdPeriph_Driver/src/stm32f10x_rcc.c ****     bitstatus = SET;
1361:Libraries/STM32F10x_StdPeriph_Driver/src/stm32f10x_rcc.c ****   }
1362:Libraries/STM32F10x_StdPeriph_Driver/src/stm32f10x_rcc.c ****   else
1363:Libraries/STM32F10x_StdPeriph_Driver/src/stm32f10x_rcc.c ****   {
1364:Libraries/STM32F10x_StdPeriph_Driver/src/stm32f10x_rcc.c ****     bitstatus = RESET;
1365:Libraries/STM32F10x_StdPeriph_Driver/src/stm32f10x_rcc.c ****   }
1366:Libraries/STM32F10x_StdPeriph_Driver/src/stm32f10x_rcc.c **** 
1367:Libraries/STM32F10x_StdPeriph_Driver/src/stm32f10x_rcc.c ****   /* Return the flag status */
1368:Libraries/STM32F10x_StdPeriph_Driver/src/stm32f10x_rcc.c ****   return bitstatus;
1369:Libraries/STM32F10x_StdPeriph_Driver/src/stm32f10x_rcc.c **** }
 2043              		.loc 1 1369 0
 2044 003e 00F00100 		and	r0, r0, #1
 2045 0042 10BD     		pop	{r4, pc}
 2046              	.LVL184:
 2047              	.L275:
1345:Libraries/STM32F10x_StdPeriph_Driver/src/stm32f10x_rcc.c ****   }
 2048              		.loc 1 1345 0
 2049 0044 094B     		ldr	r3, .L292+8
1357:Libraries/STM32F10x_StdPeriph_Driver/src/stm32f10x_rcc.c ****   if ((statusreg & ((uint32_t)1 << tmp)) != (uint32_t)RESET)
 2050              		.loc 1 1357 0
 2051 0046 04F01F04 		and	r4, r4, #31
1345:Libraries/STM32F10x_StdPeriph_Driver/src/stm32f10x_rcc.c ****   }
 2052              		.loc 1 1345 0
 2053 004a 1868     		ldr	r0, [r3]
 2054              	.LVL185:
1358:Libraries/STM32F10x_StdPeriph_Driver/src/stm32f10x_rcc.c ****   {
 2055              		.loc 1 1358 0
 2056 004c E040     		lsrs	r0, r0, r4
 2057              	.LVL186:
 2058              		.loc 1 1369 0
 2059 004e 00F00100 		and	r0, r0, #1
 2060 0052 10BD     		pop	{r4, pc}
 2061              	.LVL187:
 2062              	.L278:
1349:Libraries/STM32F10x_StdPeriph_Driver/src/stm32f10x_rcc.c ****   }
 2063              		.loc 1 1349 0
 2064 0054 054B     		ldr	r3, .L292+8
1357:Libraries/STM32F10x_StdPeriph_Driver/src/stm32f10x_rcc.c ****   if ((statusreg & ((uint32_t)1 << tmp)) != (uint32_t)RESET)
 2065              		.loc 1 1357 0
 2066 0056 04F01F04 		and	r4, r4, #31
1349:Libraries/STM32F10x_StdPeriph_Driver/src/stm32f10x_rcc.c ****   }
 2067              		.loc 1 1349 0
 2068 005a 186A     		ldr	r0, [r3, #32]
 2069              	.LVL188:
1358:Libraries/STM32F10x_StdPeriph_Driver/src/stm32f10x_rcc.c ****   {
 2070              		.loc 1 1358 0
 2071 005c E040     		lsrs	r0, r0, r4
 2072              	.LVL189:
 2073              		.loc 1 1369 0
 2074 005e 00F00100 		and	r0, r0, #1
 2075 0062 10BD     		pop	{r4, pc}
 2076              	.L293:
 2077              		.align	2
 2078              	.L292:
 2079 0064 00000000 		.word	assert_failed
 2080 0068 00000000 		.word	.LC0
 2081 006c 00100240 		.word	1073876992
 2082              		.cfi_endproc
 2083              	.LFE57:
 2085              		.section	.text.RCC_ClearFlag,"ax",%progbits
 2086              		.align	1
 2087              		.p2align 2,,3
 2088              		.global	RCC_ClearFlag
 2089              		.syntax unified
 2090              		.thumb
 2091              		.thumb_func
 2092              		.fpu softvfp
 2094              	RCC_ClearFlag:
 2095              	.LFB58:
1370:Libraries/STM32F10x_StdPeriph_Driver/src/stm32f10x_rcc.c **** 
1371:Libraries/STM32F10x_StdPeriph_Driver/src/stm32f10x_rcc.c **** /**
1372:Libraries/STM32F10x_StdPeriph_Driver/src/stm32f10x_rcc.c ****   * @brief  Clears the RCC reset flags.
1373:Libraries/STM32F10x_StdPeriph_Driver/src/stm32f10x_rcc.c ****   * @note   The reset flags are: RCC_FLAG_PINRST, RCC_FLAG_PORRST, RCC_FLAG_SFTRST,
1374:Libraries/STM32F10x_StdPeriph_Driver/src/stm32f10x_rcc.c ****   *   RCC_FLAG_IWDGRST, RCC_FLAG_WWDGRST, RCC_FLAG_LPWRRST
1375:Libraries/STM32F10x_StdPeriph_Driver/src/stm32f10x_rcc.c ****   * @param  None
1376:Libraries/STM32F10x_StdPeriph_Driver/src/stm32f10x_rcc.c ****   * @retval None
1377:Libraries/STM32F10x_StdPeriph_Driver/src/stm32f10x_rcc.c ****   */
1378:Libraries/STM32F10x_StdPeriph_Driver/src/stm32f10x_rcc.c **** void RCC_ClearFlag(void)
1379:Libraries/STM32F10x_StdPeriph_Driver/src/stm32f10x_rcc.c **** {
 2096              		.loc 1 1379 0
 2097              		.cfi_startproc
 2098              		@ args = 0, pretend = 0, frame = 0
 2099              		@ frame_needed = 0, uses_anonymous_args = 0
 2100              		@ link register save eliminated.
1380:Libraries/STM32F10x_StdPeriph_Driver/src/stm32f10x_rcc.c ****   /* Set RMVF bit to clear the reset flags */
1381:Libraries/STM32F10x_StdPeriph_Driver/src/stm32f10x_rcc.c ****   RCC->CSR |= CSR_RMVF_Set;
 2101              		.loc 1 1381 0
 2102 0000 024A     		ldr	r2, .L295
 2103 0002 536A     		ldr	r3, [r2, #36]
 2104 0004 43F08073 		orr	r3, r3, #16777216
 2105 0008 5362     		str	r3, [r2, #36]
1382:Libraries/STM32F10x_StdPeriph_Driver/src/stm32f10x_rcc.c **** }
 2106              		.loc 1 1382 0
 2107 000a 7047     		bx	lr
 2108              	.L296:
 2109              		.align	2
 2110              	.L295:
 2111 000c 00100240 		.word	1073876992
 2112              		.cfi_endproc
 2113              	.LFE58:
 2115              		.section	.text.RCC_GetITStatus,"ax",%progbits
 2116              		.align	1
 2117              		.p2align 2,,3
 2118              		.global	RCC_GetITStatus
 2119              		.syntax unified
 2120              		.thumb
 2121              		.thumb_func
 2122              		.fpu softvfp
 2124              	RCC_GetITStatus:
 2125              	.LFB59:
1383:Libraries/STM32F10x_StdPeriph_Driver/src/stm32f10x_rcc.c **** 
1384:Libraries/STM32F10x_StdPeriph_Driver/src/stm32f10x_rcc.c **** /**
1385:Libraries/STM32F10x_StdPeriph_Driver/src/stm32f10x_rcc.c ****   * @brief  Checks whether the specified RCC interrupt has occurred or not.
1386:Libraries/STM32F10x_StdPeriph_Driver/src/stm32f10x_rcc.c ****   * @param  RCC_IT: specifies the RCC interrupt source to check.
1387:Libraries/STM32F10x_StdPeriph_Driver/src/stm32f10x_rcc.c ****   *   
1388:Libraries/STM32F10x_StdPeriph_Driver/src/stm32f10x_rcc.c ****   *   For @b STM32_Connectivity_line_devices, this parameter can be one of the
1389:Libraries/STM32F10x_StdPeriph_Driver/src/stm32f10x_rcc.c ****   *   following values:
1390:Libraries/STM32F10x_StdPeriph_Driver/src/stm32f10x_rcc.c ****   *     @arg RCC_IT_LSIRDY: LSI ready interrupt
1391:Libraries/STM32F10x_StdPeriph_Driver/src/stm32f10x_rcc.c ****   *     @arg RCC_IT_LSERDY: LSE ready interrupt
1392:Libraries/STM32F10x_StdPeriph_Driver/src/stm32f10x_rcc.c ****   *     @arg RCC_IT_HSIRDY: HSI ready interrupt
1393:Libraries/STM32F10x_StdPeriph_Driver/src/stm32f10x_rcc.c ****   *     @arg RCC_IT_HSERDY: HSE ready interrupt
1394:Libraries/STM32F10x_StdPeriph_Driver/src/stm32f10x_rcc.c ****   *     @arg RCC_IT_PLLRDY: PLL ready interrupt
1395:Libraries/STM32F10x_StdPeriph_Driver/src/stm32f10x_rcc.c ****   *     @arg RCC_IT_PLL2RDY: PLL2 ready interrupt 
1396:Libraries/STM32F10x_StdPeriph_Driver/src/stm32f10x_rcc.c ****   *     @arg RCC_IT_PLL3RDY: PLL3 ready interrupt                      
1397:Libraries/STM32F10x_StdPeriph_Driver/src/stm32f10x_rcc.c ****   *     @arg RCC_IT_CSS: Clock Security System interrupt
1398:Libraries/STM32F10x_StdPeriph_Driver/src/stm32f10x_rcc.c ****   * 
1399:Libraries/STM32F10x_StdPeriph_Driver/src/stm32f10x_rcc.c ****   *   For @b other_STM32_devices, this parameter can be one of the following values:        
1400:Libraries/STM32F10x_StdPeriph_Driver/src/stm32f10x_rcc.c ****   *     @arg RCC_IT_LSIRDY: LSI ready interrupt
1401:Libraries/STM32F10x_StdPeriph_Driver/src/stm32f10x_rcc.c ****   *     @arg RCC_IT_LSERDY: LSE ready interrupt
1402:Libraries/STM32F10x_StdPeriph_Driver/src/stm32f10x_rcc.c ****   *     @arg RCC_IT_HSIRDY: HSI ready interrupt
1403:Libraries/STM32F10x_StdPeriph_Driver/src/stm32f10x_rcc.c ****   *     @arg RCC_IT_HSERDY: HSE ready interrupt
1404:Libraries/STM32F10x_StdPeriph_Driver/src/stm32f10x_rcc.c ****   *     @arg RCC_IT_PLLRDY: PLL ready interrupt
1405:Libraries/STM32F10x_StdPeriph_Driver/src/stm32f10x_rcc.c ****   *     @arg RCC_IT_CSS: Clock Security System interrupt
1406:Libraries/STM32F10x_StdPeriph_Driver/src/stm32f10x_rcc.c ****   *   
1407:Libraries/STM32F10x_StdPeriph_Driver/src/stm32f10x_rcc.c ****   * @retval The new state of RCC_IT (SET or RESET).
1408:Libraries/STM32F10x_StdPeriph_Driver/src/stm32f10x_rcc.c ****   */
1409:Libraries/STM32F10x_StdPeriph_Driver/src/stm32f10x_rcc.c **** ITStatus RCC_GetITStatus(uint8_t RCC_IT)
1410:Libraries/STM32F10x_StdPeriph_Driver/src/stm32f10x_rcc.c **** {
 2126              		.loc 1 1410 0
 2127              		.cfi_startproc
