   1              		.cpu cortex-m3
   2              		.eabi_attribute 20, 1
   3              		.eabi_attribute 21, 1
   4              		.eabi_attribute 23, 3
   5              		.eabi_attribute 24, 1
   6              		.eabi_attribute 25, 1
   7              		.eabi_attribute 26, 1
   8              		.eabi_attribute 30, 2
   9              		.eabi_attribute 34, 1
  10              		.eabi_attribute 18, 4
  11              		.file	"stm32f10x_flash.c"
  12              		.text
  13              	.Ltext0:
  14              		.cfi_sections	.debug_frame
  15              		.section	.text.FLASH_SetLatency,"ax",%progbits
  16              		.align	1
  17              		.p2align 2,,3
  18              		.global	FLASH_SetLatency
  19              		.syntax unified
  20              		.thumb
  21              		.thumb_func
  22              		.fpu softvfp
  24              	FLASH_SetLatency:
  25              	.LFB29:
  26              		.file 1 "Libraries/STM32F10x_StdPeriph_Driver/src/stm32f10x_flash.c"
   1:Libraries/STM32F10x_StdPeriph_Driver/src/stm32f10x_flash.c **** /**
   2:Libraries/STM32F10x_StdPeriph_Driver/src/stm32f10x_flash.c ****   ******************************************************************************
   3:Libraries/STM32F10x_StdPeriph_Driver/src/stm32f10x_flash.c ****   * @file    stm32f10x_flash.c
   4:Libraries/STM32F10x_StdPeriph_Driver/src/stm32f10x_flash.c ****   * @author  MCD Application Team
   5:Libraries/STM32F10x_StdPeriph_Driver/src/stm32f10x_flash.c ****   * @version V3.3.0
   6:Libraries/STM32F10x_StdPeriph_Driver/src/stm32f10x_flash.c ****   * @date    04/16/2010
   7:Libraries/STM32F10x_StdPeriph_Driver/src/stm32f10x_flash.c ****   * @brief   This file provides all the FLASH firmware functions.
   8:Libraries/STM32F10x_StdPeriph_Driver/src/stm32f10x_flash.c ****   ******************************************************************************
   9:Libraries/STM32F10x_StdPeriph_Driver/src/stm32f10x_flash.c ****   * @copy
  10:Libraries/STM32F10x_StdPeriph_Driver/src/stm32f10x_flash.c ****   *
  11:Libraries/STM32F10x_StdPeriph_Driver/src/stm32f10x_flash.c ****   * THE PRESENT FIRMWARE WHICH IS FOR GUIDANCE ONLY AIMS AT PROVIDING CUSTOMERS
  12:Libraries/STM32F10x_StdPeriph_Driver/src/stm32f10x_flash.c ****   * WITH CODING INFORMATION REGARDING THEIR PRODUCTS IN ORDER FOR THEM TO SAVE
  13:Libraries/STM32F10x_StdPeriph_Driver/src/stm32f10x_flash.c ****   * TIME. AS A RESULT, STMICROELECTRONICS SHALL NOT BE HELD LIABLE FOR ANY
  14:Libraries/STM32F10x_StdPeriph_Driver/src/stm32f10x_flash.c ****   * DIRECT, INDIRECT OR CONSEQUENTIAL DAMAGES WITH RESPECT TO ANY CLAIMS ARISING
  15:Libraries/STM32F10x_StdPeriph_Driver/src/stm32f10x_flash.c ****   * FROM THE CONTENT OF SUCH FIRMWARE AND/OR THE USE MADE BY CUSTOMERS OF THE
  16:Libraries/STM32F10x_StdPeriph_Driver/src/stm32f10x_flash.c ****   * CODING INFORMATION CONTAINED HEREIN IN CONNECTION WITH THEIR PRODUCTS.
  17:Libraries/STM32F10x_StdPeriph_Driver/src/stm32f10x_flash.c ****   *
  18:Libraries/STM32F10x_StdPeriph_Driver/src/stm32f10x_flash.c ****   * <h2><center>&copy; COPYRIGHT 2010 STMicroelectronics</center></h2>
  19:Libraries/STM32F10x_StdPeriph_Driver/src/stm32f10x_flash.c ****   */ 
  20:Libraries/STM32F10x_StdPeriph_Driver/src/stm32f10x_flash.c **** 
  21:Libraries/STM32F10x_StdPeriph_Driver/src/stm32f10x_flash.c **** /* Includes ------------------------------------------------------------------*/
  22:Libraries/STM32F10x_StdPeriph_Driver/src/stm32f10x_flash.c **** #include "stm32f10x_flash.h"
  23:Libraries/STM32F10x_StdPeriph_Driver/src/stm32f10x_flash.c **** 
  24:Libraries/STM32F10x_StdPeriph_Driver/src/stm32f10x_flash.c **** /** @addtogroup STM32F10x_StdPeriph_Driver
  25:Libraries/STM32F10x_StdPeriph_Driver/src/stm32f10x_flash.c ****   * @{
  26:Libraries/STM32F10x_StdPeriph_Driver/src/stm32f10x_flash.c ****   */
  27:Libraries/STM32F10x_StdPeriph_Driver/src/stm32f10x_flash.c **** 
  28:Libraries/STM32F10x_StdPeriph_Driver/src/stm32f10x_flash.c **** /** @defgroup FLASH 
  29:Libraries/STM32F10x_StdPeriph_Driver/src/stm32f10x_flash.c ****   * @brief FLASH driver modules
  30:Libraries/STM32F10x_StdPeriph_Driver/src/stm32f10x_flash.c ****   * @{
  31:Libraries/STM32F10x_StdPeriph_Driver/src/stm32f10x_flash.c ****   */ 
  32:Libraries/STM32F10x_StdPeriph_Driver/src/stm32f10x_flash.c **** 
  33:Libraries/STM32F10x_StdPeriph_Driver/src/stm32f10x_flash.c **** /** @defgroup FLASH_Private_TypesDefinitions
  34:Libraries/STM32F10x_StdPeriph_Driver/src/stm32f10x_flash.c ****   * @{
  35:Libraries/STM32F10x_StdPeriph_Driver/src/stm32f10x_flash.c ****   */
  36:Libraries/STM32F10x_StdPeriph_Driver/src/stm32f10x_flash.c **** 
  37:Libraries/STM32F10x_StdPeriph_Driver/src/stm32f10x_flash.c **** /**
  38:Libraries/STM32F10x_StdPeriph_Driver/src/stm32f10x_flash.c ****   * @}
  39:Libraries/STM32F10x_StdPeriph_Driver/src/stm32f10x_flash.c ****   */ 
  40:Libraries/STM32F10x_StdPeriph_Driver/src/stm32f10x_flash.c **** 
  41:Libraries/STM32F10x_StdPeriph_Driver/src/stm32f10x_flash.c **** /** @defgroup FLASH_Private_Defines
  42:Libraries/STM32F10x_StdPeriph_Driver/src/stm32f10x_flash.c ****   * @{
  43:Libraries/STM32F10x_StdPeriph_Driver/src/stm32f10x_flash.c ****   */ 
  44:Libraries/STM32F10x_StdPeriph_Driver/src/stm32f10x_flash.c **** 
  45:Libraries/STM32F10x_StdPeriph_Driver/src/stm32f10x_flash.c **** /* Flash Access Control Register bits */
  46:Libraries/STM32F10x_StdPeriph_Driver/src/stm32f10x_flash.c **** #define ACR_LATENCY_Mask         ((uint32_t)0x00000038)
  47:Libraries/STM32F10x_StdPeriph_Driver/src/stm32f10x_flash.c **** #define ACR_HLFCYA_Mask          ((uint32_t)0xFFFFFFF7)
  48:Libraries/STM32F10x_StdPeriph_Driver/src/stm32f10x_flash.c **** #define ACR_PRFTBE_Mask          ((uint32_t)0xFFFFFFEF)
  49:Libraries/STM32F10x_StdPeriph_Driver/src/stm32f10x_flash.c **** 
  50:Libraries/STM32F10x_StdPeriph_Driver/src/stm32f10x_flash.c **** /* Flash Access Control Register bits */
  51:Libraries/STM32F10x_StdPeriph_Driver/src/stm32f10x_flash.c **** #define ACR_PRFTBS_Mask          ((uint32_t)0x00000020) 
  52:Libraries/STM32F10x_StdPeriph_Driver/src/stm32f10x_flash.c **** 
  53:Libraries/STM32F10x_StdPeriph_Driver/src/stm32f10x_flash.c **** /* Flash Control Register bits */
  54:Libraries/STM32F10x_StdPeriph_Driver/src/stm32f10x_flash.c **** #define CR_PG_Set                ((uint32_t)0x00000001)
  55:Libraries/STM32F10x_StdPeriph_Driver/src/stm32f10x_flash.c **** #define CR_PG_Reset              ((uint32_t)0x00001FFE) 
  56:Libraries/STM32F10x_StdPeriph_Driver/src/stm32f10x_flash.c **** #define CR_PER_Set               ((uint32_t)0x00000002)
  57:Libraries/STM32F10x_StdPeriph_Driver/src/stm32f10x_flash.c **** #define CR_PER_Reset             ((uint32_t)0x00001FFD)
  58:Libraries/STM32F10x_StdPeriph_Driver/src/stm32f10x_flash.c **** #define CR_MER_Set               ((uint32_t)0x00000004)
  59:Libraries/STM32F10x_StdPeriph_Driver/src/stm32f10x_flash.c **** #define CR_MER_Reset             ((uint32_t)0x00001FFB)
  60:Libraries/STM32F10x_StdPeriph_Driver/src/stm32f10x_flash.c **** #define CR_OPTPG_Set             ((uint32_t)0x00000010)
  61:Libraries/STM32F10x_StdPeriph_Driver/src/stm32f10x_flash.c **** #define CR_OPTPG_Reset           ((uint32_t)0x00001FEF)
  62:Libraries/STM32F10x_StdPeriph_Driver/src/stm32f10x_flash.c **** #define CR_OPTER_Set             ((uint32_t)0x00000020)
  63:Libraries/STM32F10x_StdPeriph_Driver/src/stm32f10x_flash.c **** #define CR_OPTER_Reset           ((uint32_t)0x00001FDF)
  64:Libraries/STM32F10x_StdPeriph_Driver/src/stm32f10x_flash.c **** #define CR_STRT_Set              ((uint32_t)0x00000040)
  65:Libraries/STM32F10x_StdPeriph_Driver/src/stm32f10x_flash.c **** #define CR_LOCK_Set              ((uint32_t)0x00000080)
  66:Libraries/STM32F10x_StdPeriph_Driver/src/stm32f10x_flash.c **** 
  67:Libraries/STM32F10x_StdPeriph_Driver/src/stm32f10x_flash.c **** /* FLASH Mask */
  68:Libraries/STM32F10x_StdPeriph_Driver/src/stm32f10x_flash.c **** #define RDPRT_Mask               ((uint32_t)0x00000002)
  69:Libraries/STM32F10x_StdPeriph_Driver/src/stm32f10x_flash.c **** #define WRP0_Mask                ((uint32_t)0x000000FF)
  70:Libraries/STM32F10x_StdPeriph_Driver/src/stm32f10x_flash.c **** #define WRP1_Mask                ((uint32_t)0x0000FF00)
  71:Libraries/STM32F10x_StdPeriph_Driver/src/stm32f10x_flash.c **** #define WRP2_Mask                ((uint32_t)0x00FF0000)
  72:Libraries/STM32F10x_StdPeriph_Driver/src/stm32f10x_flash.c **** #define WRP3_Mask                ((uint32_t)0xFF000000)
  73:Libraries/STM32F10x_StdPeriph_Driver/src/stm32f10x_flash.c **** #define OB_USER_BFB2             ((uint16_t)0x0008)
  74:Libraries/STM32F10x_StdPeriph_Driver/src/stm32f10x_flash.c **** 
  75:Libraries/STM32F10x_StdPeriph_Driver/src/stm32f10x_flash.c **** /* FLASH Keys */
  76:Libraries/STM32F10x_StdPeriph_Driver/src/stm32f10x_flash.c **** #define RDP_Key                  ((uint16_t)0x00A5)
  77:Libraries/STM32F10x_StdPeriph_Driver/src/stm32f10x_flash.c **** #define FLASH_KEY1               ((uint32_t)0x45670123)
  78:Libraries/STM32F10x_StdPeriph_Driver/src/stm32f10x_flash.c **** #define FLASH_KEY2               ((uint32_t)0xCDEF89AB)
  79:Libraries/STM32F10x_StdPeriph_Driver/src/stm32f10x_flash.c **** 
  80:Libraries/STM32F10x_StdPeriph_Driver/src/stm32f10x_flash.c **** /* FLASH BANK address */
  81:Libraries/STM32F10x_StdPeriph_Driver/src/stm32f10x_flash.c **** #define FLASH_BANK1_END_ADDRESS   ((uint32_t)0x807FFFF)
  82:Libraries/STM32F10x_StdPeriph_Driver/src/stm32f10x_flash.c **** 
  83:Libraries/STM32F10x_StdPeriph_Driver/src/stm32f10x_flash.c **** /* Delay definition */   
  84:Libraries/STM32F10x_StdPeriph_Driver/src/stm32f10x_flash.c **** #define EraseTimeout          ((uint32_t)0x000B0000)
  85:Libraries/STM32F10x_StdPeriph_Driver/src/stm32f10x_flash.c **** #define ProgramTimeout        ((uint32_t)0x00002000)
  86:Libraries/STM32F10x_StdPeriph_Driver/src/stm32f10x_flash.c **** /**
  87:Libraries/STM32F10x_StdPeriph_Driver/src/stm32f10x_flash.c ****   * @}
  88:Libraries/STM32F10x_StdPeriph_Driver/src/stm32f10x_flash.c ****   */ 
  89:Libraries/STM32F10x_StdPeriph_Driver/src/stm32f10x_flash.c **** 
  90:Libraries/STM32F10x_StdPeriph_Driver/src/stm32f10x_flash.c **** /** @defgroup FLASH_Private_Macros
  91:Libraries/STM32F10x_StdPeriph_Driver/src/stm32f10x_flash.c ****   * @{
  92:Libraries/STM32F10x_StdPeriph_Driver/src/stm32f10x_flash.c ****   */
  93:Libraries/STM32F10x_StdPeriph_Driver/src/stm32f10x_flash.c **** 
  94:Libraries/STM32F10x_StdPeriph_Driver/src/stm32f10x_flash.c **** /**
  95:Libraries/STM32F10x_StdPeriph_Driver/src/stm32f10x_flash.c ****   * @}
  96:Libraries/STM32F10x_StdPeriph_Driver/src/stm32f10x_flash.c ****   */ 
  97:Libraries/STM32F10x_StdPeriph_Driver/src/stm32f10x_flash.c **** 
  98:Libraries/STM32F10x_StdPeriph_Driver/src/stm32f10x_flash.c **** /** @defgroup FLASH_Private_Variables
  99:Libraries/STM32F10x_StdPeriph_Driver/src/stm32f10x_flash.c ****   * @{
 100:Libraries/STM32F10x_StdPeriph_Driver/src/stm32f10x_flash.c ****   */
 101:Libraries/STM32F10x_StdPeriph_Driver/src/stm32f10x_flash.c **** 
 102:Libraries/STM32F10x_StdPeriph_Driver/src/stm32f10x_flash.c **** /**
 103:Libraries/STM32F10x_StdPeriph_Driver/src/stm32f10x_flash.c ****   * @}
 104:Libraries/STM32F10x_StdPeriph_Driver/src/stm32f10x_flash.c ****   */ 
 105:Libraries/STM32F10x_StdPeriph_Driver/src/stm32f10x_flash.c **** 
 106:Libraries/STM32F10x_StdPeriph_Driver/src/stm32f10x_flash.c **** /** @defgroup FLASH_Private_FunctionPrototypes
 107:Libraries/STM32F10x_StdPeriph_Driver/src/stm32f10x_flash.c ****   * @{
 108:Libraries/STM32F10x_StdPeriph_Driver/src/stm32f10x_flash.c ****   */
 109:Libraries/STM32F10x_StdPeriph_Driver/src/stm32f10x_flash.c ****   
 110:Libraries/STM32F10x_StdPeriph_Driver/src/stm32f10x_flash.c **** /**
 111:Libraries/STM32F10x_StdPeriph_Driver/src/stm32f10x_flash.c ****   * @}
 112:Libraries/STM32F10x_StdPeriph_Driver/src/stm32f10x_flash.c ****   */
 113:Libraries/STM32F10x_StdPeriph_Driver/src/stm32f10x_flash.c **** 
 114:Libraries/STM32F10x_StdPeriph_Driver/src/stm32f10x_flash.c **** /** @defgroup FLASH_Private_Functions
 115:Libraries/STM32F10x_StdPeriph_Driver/src/stm32f10x_flash.c ****   * @{
 116:Libraries/STM32F10x_StdPeriph_Driver/src/stm32f10x_flash.c ****   */
 117:Libraries/STM32F10x_StdPeriph_Driver/src/stm32f10x_flash.c **** 
 118:Libraries/STM32F10x_StdPeriph_Driver/src/stm32f10x_flash.c **** /**
 119:Libraries/STM32F10x_StdPeriph_Driver/src/stm32f10x_flash.c **** @code  
 120:Libraries/STM32F10x_StdPeriph_Driver/src/stm32f10x_flash.c ****  
 121:Libraries/STM32F10x_StdPeriph_Driver/src/stm32f10x_flash.c ****  This driver provides functions to configure and program the Flash memory of all STM32F10x devices,
 122:Libraries/STM32F10x_StdPeriph_Driver/src/stm32f10x_flash.c ****  including the latest STM32F10x_XL density devices. 
 123:Libraries/STM32F10x_StdPeriph_Driver/src/stm32f10x_flash.c **** 
 124:Libraries/STM32F10x_StdPeriph_Driver/src/stm32f10x_flash.c ****  STM32F10x_XL devices feature up to 1 Mbyte with dual bank architecture for read-while-write (RWW) 
 125:Libraries/STM32F10x_StdPeriph_Driver/src/stm32f10x_flash.c ****     - bank1: fixed size of 512 Kbytes (256 pages of 2Kbytes each)
 126:Libraries/STM32F10x_StdPeriph_Driver/src/stm32f10x_flash.c ****     - bank2: up to 512 Kbytes (up to 256 pages of 2Kbytes each)
 127:Libraries/STM32F10x_StdPeriph_Driver/src/stm32f10x_flash.c ****  While other STM32F10x devices features only one bank with memory up to 512 Kbytes.
 128:Libraries/STM32F10x_StdPeriph_Driver/src/stm32f10x_flash.c **** 
 129:Libraries/STM32F10x_StdPeriph_Driver/src/stm32f10x_flash.c ****  In version V3.3.0, some functions were updated and new ones were added to support
 130:Libraries/STM32F10x_StdPeriph_Driver/src/stm32f10x_flash.c ****  STM32F10x_XL devices. Thus some functions manages all devices, while other are 
 131:Libraries/STM32F10x_StdPeriph_Driver/src/stm32f10x_flash.c ****  dedicated for XL devices only.
 132:Libraries/STM32F10x_StdPeriph_Driver/src/stm32f10x_flash.c ****  
 133:Libraries/STM32F10x_StdPeriph_Driver/src/stm32f10x_flash.c ****  The table below presents the list of available functions depending on the used STM32F10x devices. 
 134:Libraries/STM32F10x_StdPeriph_Driver/src/stm32f10x_flash.c ****       
 135:Libraries/STM32F10x_StdPeriph_Driver/src/stm32f10x_flash.c ****    ***************************************************
 136:Libraries/STM32F10x_StdPeriph_Driver/src/stm32f10x_flash.c ****    * Legacy functions used for all STM32F10x devices *
 137:Libraries/STM32F10x_StdPeriph_Driver/src/stm32f10x_flash.c ****    ***************************************************
 138:Libraries/STM32F10x_StdPeriph_Driver/src/stm32f10x_flash.c ****    +-----------------------------------------------------------------------------------------------
 139:Libraries/STM32F10x_StdPeriph_Driver/src/stm32f10x_flash.c ****    |       Functions prototypes         |STM32F10x_XL|Other STM32F10x|    Comments                 
 140:Libraries/STM32F10x_StdPeriph_Driver/src/stm32f10x_flash.c ****    |                                    |   devices  |  devices      |                             
 141:Libraries/STM32F10x_StdPeriph_Driver/src/stm32f10x_flash.c ****    |-----------------------------------------------------------------------------------------------
 142:Libraries/STM32F10x_StdPeriph_Driver/src/stm32f10x_flash.c ****    |FLASH_SetLatency                    |    Yes     |      Yes      | No change                   
 143:Libraries/STM32F10x_StdPeriph_Driver/src/stm32f10x_flash.c ****    |-----------------------------------------------------------------------------------------------
 144:Libraries/STM32F10x_StdPeriph_Driver/src/stm32f10x_flash.c ****    |FLASH_HalfCycleAccessCmd            |    Yes     |      Yes      | No change                   
 145:Libraries/STM32F10x_StdPeriph_Driver/src/stm32f10x_flash.c ****    |-----------------------------------------------------------------------------------------------
 146:Libraries/STM32F10x_StdPeriph_Driver/src/stm32f10x_flash.c ****    |FLASH_PrefetchBufferCmd             |    Yes     |      Yes      | No change                   
 147:Libraries/STM32F10x_StdPeriph_Driver/src/stm32f10x_flash.c ****    |-----------------------------------------------------------------------------------------------
 148:Libraries/STM32F10x_StdPeriph_Driver/src/stm32f10x_flash.c ****    |FLASH_Unlock                        |    Yes     |      Yes      | - For STM32F10X_XL devices: 
 149:Libraries/STM32F10x_StdPeriph_Driver/src/stm32f10x_flash.c ****    |                                    |            |               | - For other devices: unlock 
 150:Libraries/STM32F10x_StdPeriph_Driver/src/stm32f10x_flash.c ****    |                                    |            |               |   to FLASH_UnlockBank1 funct
 151:Libraries/STM32F10x_StdPeriph_Driver/src/stm32f10x_flash.c ****    |-----------------------------------------------------------------------------------------------
 152:Libraries/STM32F10x_StdPeriph_Driver/src/stm32f10x_flash.c ****    |FLASH_Lock                          |    Yes     |      Yes      | - For STM32F10X_XL devices: 
 153:Libraries/STM32F10x_StdPeriph_Driver/src/stm32f10x_flash.c ****    |                                    |            |               | - For other devices: lock Ba
 154:Libraries/STM32F10x_StdPeriph_Driver/src/stm32f10x_flash.c ****    |                                    |            |               |   to FLASH_LockBank1 functio
 155:Libraries/STM32F10x_StdPeriph_Driver/src/stm32f10x_flash.c ****    |-----------------------------------------------------------------------------------------------
 156:Libraries/STM32F10x_StdPeriph_Driver/src/stm32f10x_flash.c ****    |FLASH_ErasePage                     |    Yes     |      Yes      | - For STM32F10x_XL devices: 
 157:Libraries/STM32F10x_StdPeriph_Driver/src/stm32f10x_flash.c ****    |                                    |            |               | - For other devices: erase a
 158:Libraries/STM32F10x_StdPeriph_Driver/src/stm32f10x_flash.c ****    |-----------------------------------------------------------------------------------------------
 159:Libraries/STM32F10x_StdPeriph_Driver/src/stm32f10x_flash.c ****    |FLASH_EraseAllPages                 |    Yes     |      Yes      | - For STM32F10x_XL devices: 
 160:Libraries/STM32F10x_StdPeriph_Driver/src/stm32f10x_flash.c ****    |                                    |            |               | - For other devices: erase a
 161:Libraries/STM32F10x_StdPeriph_Driver/src/stm32f10x_flash.c ****    |-----------------------------------------------------------------------------------------------
 162:Libraries/STM32F10x_StdPeriph_Driver/src/stm32f10x_flash.c ****    |FLASH_EraseOptionBytes              |    Yes     |      Yes      | No change                   
 163:Libraries/STM32F10x_StdPeriph_Driver/src/stm32f10x_flash.c ****    |-----------------------------------------------------------------------------------------------
 164:Libraries/STM32F10x_StdPeriph_Driver/src/stm32f10x_flash.c ****    |FLASH_ProgramWord                   |    Yes     |      Yes      | Updated to program up to 1MB
 165:Libraries/STM32F10x_StdPeriph_Driver/src/stm32f10x_flash.c ****    |-----------------------------------------------------------------------------------------------
 166:Libraries/STM32F10x_StdPeriph_Driver/src/stm32f10x_flash.c ****    |FLASH_ProgramHalfWord               |    Yes     |      Yes      | Updated to program up to 1MB
 167:Libraries/STM32F10x_StdPeriph_Driver/src/stm32f10x_flash.c ****    |-----------------------------------------------------------------------------------------------
 168:Libraries/STM32F10x_StdPeriph_Driver/src/stm32f10x_flash.c ****    |FLASH_ProgramOptionByteData         |    Yes     |      Yes      | No change                   
 169:Libraries/STM32F10x_StdPeriph_Driver/src/stm32f10x_flash.c ****    |-----------------------------------------------------------------------------------------------
 170:Libraries/STM32F10x_StdPeriph_Driver/src/stm32f10x_flash.c ****    |FLASH_EnableWriteProtection         |    Yes     |      Yes      | No change                   
 171:Libraries/STM32F10x_StdPeriph_Driver/src/stm32f10x_flash.c ****    |-----------------------------------------------------------------------------------------------
 172:Libraries/STM32F10x_StdPeriph_Driver/src/stm32f10x_flash.c ****    |FLASH_ReadOutProtection             |    Yes     |      Yes      | No change                   
 173:Libraries/STM32F10x_StdPeriph_Driver/src/stm32f10x_flash.c ****    |-----------------------------------------------------------------------------------------------
 174:Libraries/STM32F10x_StdPeriph_Driver/src/stm32f10x_flash.c ****    |FLASH_UserOptionByteConfig          |    Yes     |      Yes      | No change                   
 175:Libraries/STM32F10x_StdPeriph_Driver/src/stm32f10x_flash.c ****    |-----------------------------------------------------------------------------------------------
 176:Libraries/STM32F10x_StdPeriph_Driver/src/stm32f10x_flash.c ****    |FLASH_GetUserOptionByte             |    Yes     |      Yes      | No change                   
 177:Libraries/STM32F10x_StdPeriph_Driver/src/stm32f10x_flash.c ****    |-----------------------------------------------------------------------------------------------
 178:Libraries/STM32F10x_StdPeriph_Driver/src/stm32f10x_flash.c ****    |FLASH_GetWriteProtectionOptionByte  |    Yes     |      Yes      | No change                   
 179:Libraries/STM32F10x_StdPeriph_Driver/src/stm32f10x_flash.c ****    |-----------------------------------------------------------------------------------------------
 180:Libraries/STM32F10x_StdPeriph_Driver/src/stm32f10x_flash.c ****    |FLASH_GetReadOutProtectionStatus    |    Yes     |      Yes      | No change                   
 181:Libraries/STM32F10x_StdPeriph_Driver/src/stm32f10x_flash.c ****    |-----------------------------------------------------------------------------------------------
 182:Libraries/STM32F10x_StdPeriph_Driver/src/stm32f10x_flash.c ****    |FLASH_GetPrefetchBufferStatus       |    Yes     |      Yes      | No change                   
 183:Libraries/STM32F10x_StdPeriph_Driver/src/stm32f10x_flash.c ****    |-----------------------------------------------------------------------------------------------
 184:Libraries/STM32F10x_StdPeriph_Driver/src/stm32f10x_flash.c ****    |FLASH_ITConfig                      |    Yes     |      Yes      | - For STM32F10x_XL devices: 
 185:Libraries/STM32F10x_StdPeriph_Driver/src/stm32f10x_flash.c ****    |                                    |            |               | - For other devices: enable 
 186:Libraries/STM32F10x_StdPeriph_Driver/src/stm32f10x_flash.c ****    |-----------------------------------------------------------------------------------------------
 187:Libraries/STM32F10x_StdPeriph_Driver/src/stm32f10x_flash.c ****    |FLASH_GetFlagStatus                 |    Yes     |      Yes      | - For STM32F10x_XL devices: 
 188:Libraries/STM32F10x_StdPeriph_Driver/src/stm32f10x_flash.c ****    |                                    |            |               | - For other devices: return 
 189:Libraries/STM32F10x_StdPeriph_Driver/src/stm32f10x_flash.c ****    |-----------------------------------------------------------------------------------------------
 190:Libraries/STM32F10x_StdPeriph_Driver/src/stm32f10x_flash.c ****    |FLASH_ClearFlag                     |    Yes     |      Yes      | - For STM32F10x_XL devices: 
 191:Libraries/STM32F10x_StdPeriph_Driver/src/stm32f10x_flash.c ****    |                                    |            |               | - For other devices: clear B
 192:Libraries/STM32F10x_StdPeriph_Driver/src/stm32f10x_flash.c ****    |-----------------------------------------------------------------------------------------------
 193:Libraries/STM32F10x_StdPeriph_Driver/src/stm32f10x_flash.c ****    |FLASH_GetStatus                     |    Yes     |      Yes      | - Return the status of Bank1
 194:Libraries/STM32F10x_StdPeriph_Driver/src/stm32f10x_flash.c ****    |                                    |            |               |   equivalent to FLASH_GetBan
 195:Libraries/STM32F10x_StdPeriph_Driver/src/stm32f10x_flash.c ****    |-----------------------------------------------------------------------------------------------
 196:Libraries/STM32F10x_StdPeriph_Driver/src/stm32f10x_flash.c ****    |FLASH_WaitForLastOperation          |    Yes     |      Yes      | - Wait for Bank1 last operat
 197:Libraries/STM32F10x_StdPeriph_Driver/src/stm32f10x_flash.c ****    |                                    |            |               |   equivalent to: FLASH_WaitF
 198:Libraries/STM32F10x_StdPeriph_Driver/src/stm32f10x_flash.c ****    +-----------------------------------------------------------------------------------------------
 199:Libraries/STM32F10x_StdPeriph_Driver/src/stm32f10x_flash.c **** 
 200:Libraries/STM32F10x_StdPeriph_Driver/src/stm32f10x_flash.c ****    ************************************************************************************************
 201:Libraries/STM32F10x_StdPeriph_Driver/src/stm32f10x_flash.c ****    * New functions used for all STM32F10x devices to manage Bank1:                                 
 202:Libraries/STM32F10x_StdPeriph_Driver/src/stm32f10x_flash.c ****    *   - These functions are mainly useful for STM32F10x_XL density devices, to have separate contr
 203:Libraries/STM32F10x_StdPeriph_Driver/src/stm32f10x_flash.c ****    *   - For other devices, these functions are optional (covered by functions listed above)       
 204:Libraries/STM32F10x_StdPeriph_Driver/src/stm32f10x_flash.c ****    ************************************************************************************************
 205:Libraries/STM32F10x_StdPeriph_Driver/src/stm32f10x_flash.c ****    +-----------------------------------------------------------------------------------------------
 206:Libraries/STM32F10x_StdPeriph_Driver/src/stm32f10x_flash.c ****    |       Functions prototypes         |STM32F10x_XL|Other STM32F10x|    Comments                 
 207:Libraries/STM32F10x_StdPeriph_Driver/src/stm32f10x_flash.c ****    |                                    |   devices  |  devices      |                             
 208:Libraries/STM32F10x_StdPeriph_Driver/src/stm32f10x_flash.c ****    |-----------------------------------------------------------------------------------------------
 209:Libraries/STM32F10x_StdPeriph_Driver/src/stm32f10x_flash.c ****    | FLASH_UnlockBank1                  |    Yes     |      Yes      | - Unlock Bank1              
 210:Libraries/STM32F10x_StdPeriph_Driver/src/stm32f10x_flash.c ****    |-----------------------------------------------------------------------------------------------
 211:Libraries/STM32F10x_StdPeriph_Driver/src/stm32f10x_flash.c ****    |FLASH_LockBank1                     |    Yes     |      Yes      | - Lock Bank1                
 212:Libraries/STM32F10x_StdPeriph_Driver/src/stm32f10x_flash.c ****    |-----------------------------------------------------------------------------------------------
 213:Libraries/STM32F10x_StdPeriph_Driver/src/stm32f10x_flash.c ****    | FLASH_EraseAllBank1Pages           |    Yes     |      Yes      | - Erase all pages in Bank1  
 214:Libraries/STM32F10x_StdPeriph_Driver/src/stm32f10x_flash.c ****    |-----------------------------------------------------------------------------------------------
 215:Libraries/STM32F10x_StdPeriph_Driver/src/stm32f10x_flash.c ****    | FLASH_GetBank1Status               |    Yes     |      Yes      | - Return the status of Bank1
 216:Libraries/STM32F10x_StdPeriph_Driver/src/stm32f10x_flash.c ****    |-----------------------------------------------------------------------------------------------
 217:Libraries/STM32F10x_StdPeriph_Driver/src/stm32f10x_flash.c ****    | FLASH_WaitForLastBank1Operation    |    Yes     |      Yes      | - Wait for Bank1 last operat
 218:Libraries/STM32F10x_StdPeriph_Driver/src/stm32f10x_flash.c ****    +-----------------------------------------------------------------------------------------------
 219:Libraries/STM32F10x_StdPeriph_Driver/src/stm32f10x_flash.c **** 
 220:Libraries/STM32F10x_StdPeriph_Driver/src/stm32f10x_flash.c ****    *****************************************************************************
 221:Libraries/STM32F10x_StdPeriph_Driver/src/stm32f10x_flash.c ****    * New Functions used only with STM32F10x_XL density devices to manage Bank2 *
 222:Libraries/STM32F10x_StdPeriph_Driver/src/stm32f10x_flash.c ****    *****************************************************************************
 223:Libraries/STM32F10x_StdPeriph_Driver/src/stm32f10x_flash.c ****    +-----------------------------------------------------------------------------------------------
 224:Libraries/STM32F10x_StdPeriph_Driver/src/stm32f10x_flash.c ****    |       Functions prototypes         |STM32F10x_XL|Other STM32F10x|    Comments                 
 225:Libraries/STM32F10x_StdPeriph_Driver/src/stm32f10x_flash.c ****    |                                    |   devices  |  devices      |                             
 226:Libraries/STM32F10x_StdPeriph_Driver/src/stm32f10x_flash.c ****    |-----------------------------------------------------------------------------------------------
 227:Libraries/STM32F10x_StdPeriph_Driver/src/stm32f10x_flash.c ****    | FLASH_UnlockBank2                  |    Yes     |      No       | - Unlock Bank2              
 228:Libraries/STM32F10x_StdPeriph_Driver/src/stm32f10x_flash.c ****    |-----------------------------------------------------------------------------------------------
 229:Libraries/STM32F10x_StdPeriph_Driver/src/stm32f10x_flash.c ****    |FLASH_LockBank2                     |    Yes     |      No       | - Lock Bank2                
 230:Libraries/STM32F10x_StdPeriph_Driver/src/stm32f10x_flash.c ****    |-----------------------------------------------------------------------------------------------
 231:Libraries/STM32F10x_StdPeriph_Driver/src/stm32f10x_flash.c ****    | FLASH_EraseAllBank2Pages           |    Yes     |      No       | - Erase all pages in Bank2  
 232:Libraries/STM32F10x_StdPeriph_Driver/src/stm32f10x_flash.c ****    |-----------------------------------------------------------------------------------------------
 233:Libraries/STM32F10x_StdPeriph_Driver/src/stm32f10x_flash.c ****    | FLASH_GetBank2Status               |    Yes     |      No       | - Return the status of Bank2
 234:Libraries/STM32F10x_StdPeriph_Driver/src/stm32f10x_flash.c ****    |-----------------------------------------------------------------------------------------------
 235:Libraries/STM32F10x_StdPeriph_Driver/src/stm32f10x_flash.c ****    | FLASH_WaitForLastBank2Operation    |    Yes     |      No       | - Wait for Bank2 last operat
 236:Libraries/STM32F10x_StdPeriph_Driver/src/stm32f10x_flash.c ****    |-----------------------------------------------------------------------------------------------
 237:Libraries/STM32F10x_StdPeriph_Driver/src/stm32f10x_flash.c ****    | FLASH_BootConfig                   |    Yes     |      No       | - Configure to boot from Ban
 238:Libraries/STM32F10x_StdPeriph_Driver/src/stm32f10x_flash.c ****    +-----------------------------------------------------------------------------------------------
 239:Libraries/STM32F10x_StdPeriph_Driver/src/stm32f10x_flash.c **** @endcode
 240:Libraries/STM32F10x_StdPeriph_Driver/src/stm32f10x_flash.c **** */
 241:Libraries/STM32F10x_StdPeriph_Driver/src/stm32f10x_flash.c **** 
 242:Libraries/STM32F10x_StdPeriph_Driver/src/stm32f10x_flash.c **** 
 243:Libraries/STM32F10x_StdPeriph_Driver/src/stm32f10x_flash.c **** /**
 244:Libraries/STM32F10x_StdPeriph_Driver/src/stm32f10x_flash.c ****   * @brief  Sets the code latency value.
 245:Libraries/STM32F10x_StdPeriph_Driver/src/stm32f10x_flash.c ****   * @note   This function can be used for all STM32F10x devices.
 246:Libraries/STM32F10x_StdPeriph_Driver/src/stm32f10x_flash.c ****   * @param  FLASH_Latency: specifies the FLASH Latency value.
 247:Libraries/STM32F10x_StdPeriph_Driver/src/stm32f10x_flash.c ****   *   This parameter can be one of the following values:
 248:Libraries/STM32F10x_StdPeriph_Driver/src/stm32f10x_flash.c ****   *     @arg FLASH_Latency_0: FLASH Zero Latency cycle
 249:Libraries/STM32F10x_StdPeriph_Driver/src/stm32f10x_flash.c ****   *     @arg FLASH_Latency_1: FLASH One Latency cycle
 250:Libraries/STM32F10x_StdPeriph_Driver/src/stm32f10x_flash.c ****   *     @arg FLASH_Latency_2: FLASH Two Latency cycles
 251:Libraries/STM32F10x_StdPeriph_Driver/src/stm32f10x_flash.c ****   * @retval None
 252:Libraries/STM32F10x_StdPeriph_Driver/src/stm32f10x_flash.c ****   */
 253:Libraries/STM32F10x_StdPeriph_Driver/src/stm32f10x_flash.c **** void FLASH_SetLatency(uint32_t FLASH_Latency)
 254:Libraries/STM32F10x_StdPeriph_Driver/src/stm32f10x_flash.c **** {
  27              		.loc 1 254 0
  28              		.cfi_startproc
  29              		@ args = 0, pretend = 0, frame = 0
  30              		@ frame_needed = 0, uses_anonymous_args = 0
  31              	.LVL0:
 255:Libraries/STM32F10x_StdPeriph_Driver/src/stm32f10x_flash.c ****   uint32_t tmpreg = 0;
 256:Libraries/STM32F10x_StdPeriph_Driver/src/stm32f10x_flash.c ****   
 257:Libraries/STM32F10x_StdPeriph_Driver/src/stm32f10x_flash.c ****   /* Check the parameters */
 258:Libraries/STM32F10x_StdPeriph_Driver/src/stm32f10x_flash.c ****   assert_param(IS_FLASH_LATENCY(FLASH_Latency));
  32              		.loc 1 258 0
  33 0000 0228     		cmp	r0, #2
 254:Libraries/STM32F10x_StdPeriph_Driver/src/stm32f10x_flash.c ****   uint32_t tmpreg = 0;
  34              		.loc 1 254 0
  35 0002 10B5     		push	{r4, lr}
  36              		.cfi_def_cfa_offset 8
  37              		.cfi_offset 4, -8
  38              		.cfi_offset 14, -4
 254:Libraries/STM32F10x_StdPeriph_Driver/src/stm32f10x_flash.c ****   uint32_t tmpreg = 0;
  39              		.loc 1 254 0
  40 0004 0446     		mov	r4, r0
  41              		.loc 1 258 0
  42 0006 04D9     		bls	.L2
  43              		.loc 1 258 0 is_stmt 0 discriminator 1
  44 0008 4FF48171 		mov	r1, #258
  45 000c 0448     		ldr	r0, .L5
  46              	.LVL1:
  47 000e 054B     		ldr	r3, .L5+4
  48 0010 9847     		blx	r3
  49              	.LVL2:
  50              	.L2:
 259:Libraries/STM32F10x_StdPeriph_Driver/src/stm32f10x_flash.c ****   
 260:Libraries/STM32F10x_StdPeriph_Driver/src/stm32f10x_flash.c ****   /* Read the ACR register */
 261:Libraries/STM32F10x_StdPeriph_Driver/src/stm32f10x_flash.c ****   tmpreg = FLASH->ACR;  
  51              		.loc 1 261 0 is_stmt 1
  52 0012 054A     		ldr	r2, .L5+8
  53 0014 1368     		ldr	r3, [r2]
  54              	.LVL3:
 262:Libraries/STM32F10x_StdPeriph_Driver/src/stm32f10x_flash.c ****   
 263:Libraries/STM32F10x_StdPeriph_Driver/src/stm32f10x_flash.c ****   /* Sets the Latency value */
 264:Libraries/STM32F10x_StdPeriph_Driver/src/stm32f10x_flash.c ****   tmpreg &= ACR_LATENCY_Mask;
  55              		.loc 1 264 0
  56 0016 03F03803 		and	r3, r3, #56
  57              	.LVL4:
 265:Libraries/STM32F10x_StdPeriph_Driver/src/stm32f10x_flash.c ****   tmpreg |= FLASH_Latency;
  58              		.loc 1 265 0
  59 001a 1C43     		orrs	r4, r4, r3
  60              	.LVL5:
 266:Libraries/STM32F10x_StdPeriph_Driver/src/stm32f10x_flash.c ****   
 267:Libraries/STM32F10x_StdPeriph_Driver/src/stm32f10x_flash.c ****   /* Write the ACR register */
 268:Libraries/STM32F10x_StdPeriph_Driver/src/stm32f10x_flash.c ****   FLASH->ACR = tmpreg;
  61              		.loc 1 268 0
  62 001c 1460     		str	r4, [r2]
 269:Libraries/STM32F10x_StdPeriph_Driver/src/stm32f10x_flash.c **** }
  63              		.loc 1 269 0
  64 001e 10BD     		pop	{r4, pc}
  65              	.LVL6:
  66              	.L6:
  67              		.align	2
  68              	.L5:
  69 0020 00000000 		.word	.LC0
  70 0024 00000000 		.word	assert_failed
  71 0028 00200240 		.word	1073881088
  72              		.cfi_endproc
  73              	.LFE29:
  75              		.section	.text.FLASH_HalfCycleAccessCmd,"ax",%progbits
  76              		.align	1
  77              		.p2align 2,,3
  78              		.global	FLASH_HalfCycleAccessCmd
  79              		.syntax unified
  80              		.thumb
  81              		.thumb_func
  82              		.fpu softvfp
  84              	FLASH_HalfCycleAccessCmd:
  85              	.LFB30:
 270:Libraries/STM32F10x_StdPeriph_Driver/src/stm32f10x_flash.c **** 
 271:Libraries/STM32F10x_StdPeriph_Driver/src/stm32f10x_flash.c **** /**
 272:Libraries/STM32F10x_StdPeriph_Driver/src/stm32f10x_flash.c ****   * @brief  Enables or disables the Half cycle flash access.
 273:Libraries/STM32F10x_StdPeriph_Driver/src/stm32f10x_flash.c ****   * @note   This function can be used for all STM32F10x devices.
 274:Libraries/STM32F10x_StdPeriph_Driver/src/stm32f10x_flash.c ****   * @param  FLASH_HalfCycleAccess: specifies the FLASH Half cycle Access mode.
 275:Libraries/STM32F10x_StdPeriph_Driver/src/stm32f10x_flash.c ****   *   This parameter can be one of the following values:
 276:Libraries/STM32F10x_StdPeriph_Driver/src/stm32f10x_flash.c ****   *     @arg FLASH_HalfCycleAccess_Enable: FLASH Half Cycle Enable
 277:Libraries/STM32F10x_StdPeriph_Driver/src/stm32f10x_flash.c ****   *     @arg FLASH_HalfCycleAccess_Disable: FLASH Half Cycle Disable
 278:Libraries/STM32F10x_StdPeriph_Driver/src/stm32f10x_flash.c ****   * @retval None
 279:Libraries/STM32F10x_StdPeriph_Driver/src/stm32f10x_flash.c ****   */
 280:Libraries/STM32F10x_StdPeriph_Driver/src/stm32f10x_flash.c **** void FLASH_HalfCycleAccessCmd(uint32_t FLASH_HalfCycleAccess)
 281:Libraries/STM32F10x_StdPeriph_Driver/src/stm32f10x_flash.c **** {
  86              		.loc 1 281 0
  87              		.cfi_startproc
  88              		@ args = 0, pretend = 0, frame = 0
  89              		@ frame_needed = 0, uses_anonymous_args = 0
  90              	.LVL7:
 282:Libraries/STM32F10x_StdPeriph_Driver/src/stm32f10x_flash.c ****   /* Check the parameters */
 283:Libraries/STM32F10x_StdPeriph_Driver/src/stm32f10x_flash.c ****   assert_param(IS_FLASH_HALFCYCLEACCESS_STATE(FLASH_HalfCycleAccess));
  91              		.loc 1 283 0
  92 0000 30F00803 		bics	r3, r0, #8
 281:Libraries/STM32F10x_StdPeriph_Driver/src/stm32f10x_flash.c ****   /* Check the parameters */
  93              		.loc 1 281 0
  94 0004 10B5     		push	{r4, lr}
  95              		.cfi_def_cfa_offset 8
  96              		.cfi_offset 4, -8
  97              		.cfi_offset 14, -4
 281:Libraries/STM32F10x_StdPeriph_Driver/src/stm32f10x_flash.c ****   /* Check the parameters */
  98              		.loc 1 281 0
  99 0006 0446     		mov	r4, r0
 100              		.loc 1 283 0
 101 0008 08D1     		bne	.L13
 102              	.LVL8:
 103              	.L8:
 284:Libraries/STM32F10x_StdPeriph_Driver/src/stm32f10x_flash.c ****   
 285:Libraries/STM32F10x_StdPeriph_Driver/src/stm32f10x_flash.c ****   /* Enable or disable the Half cycle access */
 286:Libraries/STM32F10x_StdPeriph_Driver/src/stm32f10x_flash.c ****   FLASH->ACR &= ACR_HLFCYA_Mask;
 104              		.loc 1 286 0
 105 000a 074B     		ldr	r3, .L14
 106 000c 1A68     		ldr	r2, [r3]
 107 000e 22F00802 		bic	r2, r2, #8
 108 0012 1A60     		str	r2, [r3]
 287:Libraries/STM32F10x_StdPeriph_Driver/src/stm32f10x_flash.c ****   FLASH->ACR |= FLASH_HalfCycleAccess;
 109              		.loc 1 287 0
 110 0014 1868     		ldr	r0, [r3]
 111 0016 2043     		orrs	r0, r0, r4
 112 0018 1860     		str	r0, [r3]
 288:Libraries/STM32F10x_StdPeriph_Driver/src/stm32f10x_flash.c **** }
 113              		.loc 1 288 0
 114 001a 10BD     		pop	{r4, pc}
 115              	.LVL9:
 116              	.L13:
 283:Libraries/STM32F10x_StdPeriph_Driver/src/stm32f10x_flash.c ****   
 117              		.loc 1 283 0 discriminator 2
 118 001c 40F21B11 		movw	r1, #283
 119 0020 024B     		ldr	r3, .L14+4
 120 0022 0348     		ldr	r0, .L14+8
 121              	.LVL10:
 122 0024 9847     		blx	r3
 123              	.LVL11:
 124 0026 F0E7     		b	.L8
 125              	.L15:
 126              		.align	2
 127              	.L14:
 128 0028 00200240 		.word	1073881088
 129 002c 00000000 		.word	assert_failed
 130 0030 00000000 		.word	.LC0
 131              		.cfi_endproc
 132              	.LFE30:
 134              		.section	.text.FLASH_PrefetchBufferCmd,"ax",%progbits
 135              		.align	1
 136              		.p2align 2,,3
 137              		.global	FLASH_PrefetchBufferCmd
 138              		.syntax unified
 139              		.thumb
 140              		.thumb_func
 141              		.fpu softvfp
 143              	FLASH_PrefetchBufferCmd:
 144              	.LFB31:
 289:Libraries/STM32F10x_StdPeriph_Driver/src/stm32f10x_flash.c **** 
 290:Libraries/STM32F10x_StdPeriph_Driver/src/stm32f10x_flash.c **** /**
 291:Libraries/STM32F10x_StdPeriph_Driver/src/stm32f10x_flash.c ****   * @brief  Enables or disables the Prefetch Buffer.
 292:Libraries/STM32F10x_StdPeriph_Driver/src/stm32f10x_flash.c ****   * @note   This function can be used for all STM32F10x devices.
 293:Libraries/STM32F10x_StdPeriph_Driver/src/stm32f10x_flash.c ****   * @param  FLASH_PrefetchBuffer: specifies the Prefetch buffer status.
 294:Libraries/STM32F10x_StdPeriph_Driver/src/stm32f10x_flash.c ****   *   This parameter can be one of the following values:
 295:Libraries/STM32F10x_StdPeriph_Driver/src/stm32f10x_flash.c ****   *     @arg FLASH_PrefetchBuffer_Enable: FLASH Prefetch Buffer Enable
 296:Libraries/STM32F10x_StdPeriph_Driver/src/stm32f10x_flash.c ****   *     @arg FLASH_PrefetchBuffer_Disable: FLASH Prefetch Buffer Disable
 297:Libraries/STM32F10x_StdPeriph_Driver/src/stm32f10x_flash.c ****   * @retval None
 298:Libraries/STM32F10x_StdPeriph_Driver/src/stm32f10x_flash.c ****   */
 299:Libraries/STM32F10x_StdPeriph_Driver/src/stm32f10x_flash.c **** void FLASH_PrefetchBufferCmd(uint32_t FLASH_PrefetchBuffer)
 300:Libraries/STM32F10x_StdPeriph_Driver/src/stm32f10x_flash.c **** {
 145              		.loc 1 300 0
 146              		.cfi_startproc
 147              		@ args = 0, pretend = 0, frame = 0
 148              		@ frame_needed = 0, uses_anonymous_args = 0
 149              	.LVL12:
 301:Libraries/STM32F10x_StdPeriph_Driver/src/stm32f10x_flash.c ****   /* Check the parameters */
 302:Libraries/STM32F10x_StdPeriph_Driver/src/stm32f10x_flash.c ****   assert_param(IS_FLASH_PREFETCHBUFFER_STATE(FLASH_PrefetchBuffer));
 150              		.loc 1 302 0
 151 0000 30F01003 		bics	r3, r0, #16
 300:Libraries/STM32F10x_StdPeriph_Driver/src/stm32f10x_flash.c ****   /* Check the parameters */
 152              		.loc 1 300 0
 153 0004 10B5     		push	{r4, lr}
 154              		.cfi_def_cfa_offset 8
 155              		.cfi_offset 4, -8
 156              		.cfi_offset 14, -4
 300:Libraries/STM32F10x_StdPeriph_Driver/src/stm32f10x_flash.c ****   /* Check the parameters */
 157              		.loc 1 300 0
 158 0006 0446     		mov	r4, r0
 159              		.loc 1 302 0
 160 0008 08D1     		bne	.L22
 161              	.LVL13:
 162              	.L17:
 303:Libraries/STM32F10x_StdPeriph_Driver/src/stm32f10x_flash.c ****   
 304:Libraries/STM32F10x_StdPeriph_Driver/src/stm32f10x_flash.c ****   /* Enable or disable the Prefetch Buffer */
 305:Libraries/STM32F10x_StdPeriph_Driver/src/stm32f10x_flash.c ****   FLASH->ACR &= ACR_PRFTBE_Mask;
 163              		.loc 1 305 0
 164 000a 074B     		ldr	r3, .L23
 165 000c 1A68     		ldr	r2, [r3]
 166 000e 22F01002 		bic	r2, r2, #16
 167 0012 1A60     		str	r2, [r3]
 306:Libraries/STM32F10x_StdPeriph_Driver/src/stm32f10x_flash.c ****   FLASH->ACR |= FLASH_PrefetchBuffer;
 168              		.loc 1 306 0
 169 0014 1868     		ldr	r0, [r3]
 170 0016 2043     		orrs	r0, r0, r4
 171 0018 1860     		str	r0, [r3]
 307:Libraries/STM32F10x_StdPeriph_Driver/src/stm32f10x_flash.c **** }
 172              		.loc 1 307 0
 173 001a 10BD     		pop	{r4, pc}
 174              	.LVL14:
 175              	.L22:
 302:Libraries/STM32F10x_StdPeriph_Driver/src/stm32f10x_flash.c ****   
 176              		.loc 1 302 0 discriminator 2
 177 001c 4FF49771 		mov	r1, #302
 178 0020 024B     		ldr	r3, .L23+4
 179 0022 0348     		ldr	r0, .L23+8
 180              	.LVL15:
 181 0024 9847     		blx	r3
 182              	.LVL16:
 183 0026 F0E7     		b	.L17
 184              	.L24:
 185              		.align	2
 186              	.L23:
 187 0028 00200240 		.word	1073881088
 188 002c 00000000 		.word	assert_failed
 189 0030 00000000 		.word	.LC0
 190              		.cfi_endproc
 191              	.LFE31:
 193              		.section	.text.FLASH_Unlock,"ax",%progbits
 194              		.align	1
 195              		.p2align 2,,3
 196              		.global	FLASH_Unlock
 197              		.syntax unified
 198              		.thumb
 199              		.thumb_func
 200              		.fpu softvfp
 202              	FLASH_Unlock:
 203              	.LFB32:
 308:Libraries/STM32F10x_StdPeriph_Driver/src/stm32f10x_flash.c **** 
 309:Libraries/STM32F10x_StdPeriph_Driver/src/stm32f10x_flash.c **** /**
 310:Libraries/STM32F10x_StdPeriph_Driver/src/stm32f10x_flash.c ****   * @brief  Unlocks the FLASH Program Erase Controller.
 311:Libraries/STM32F10x_StdPeriph_Driver/src/stm32f10x_flash.c ****   * @note   This function can be used for all STM32F10x devices.
 312:Libraries/STM32F10x_StdPeriph_Driver/src/stm32f10x_flash.c ****   *         - For STM32F10X_XL devices this function unlocks Bank1 and Bank2.
 313:Libraries/STM32F10x_StdPeriph_Driver/src/stm32f10x_flash.c ****   *         - For all other devices it unlocks Bank1 and it is equivalent 
 314:Libraries/STM32F10x_StdPeriph_Driver/src/stm32f10x_flash.c ****   *           to FLASH_UnlockBank1 function.. 
 315:Libraries/STM32F10x_StdPeriph_Driver/src/stm32f10x_flash.c ****   * @param  None
 316:Libraries/STM32F10x_StdPeriph_Driver/src/stm32f10x_flash.c ****   * @retval None
 317:Libraries/STM32F10x_StdPeriph_Driver/src/stm32f10x_flash.c ****   */
 318:Libraries/STM32F10x_StdPeriph_Driver/src/stm32f10x_flash.c **** void FLASH_Unlock(void)
 319:Libraries/STM32F10x_StdPeriph_Driver/src/stm32f10x_flash.c **** {
 204              		.loc 1 319 0
 205              		.cfi_startproc
 206              		@ args = 0, pretend = 0, frame = 0
 207              		@ frame_needed = 0, uses_anonymous_args = 0
 208              		@ link register save eliminated.
 320:Libraries/STM32F10x_StdPeriph_Driver/src/stm32f10x_flash.c ****   /* Authorize the FPEC of Bank1 Access */
 321:Libraries/STM32F10x_StdPeriph_Driver/src/stm32f10x_flash.c ****   FLASH->KEYR = FLASH_KEY1;
 209              		.loc 1 321 0
 210 0000 024B     		ldr	r3, .L26
 211 0002 0349     		ldr	r1, .L26+4
 322:Libraries/STM32F10x_StdPeriph_Driver/src/stm32f10x_flash.c ****   FLASH->KEYR = FLASH_KEY2;
 212              		.loc 1 322 0
 213 0004 034A     		ldr	r2, .L26+8
 321:Libraries/STM32F10x_StdPeriph_Driver/src/stm32f10x_flash.c ****   FLASH->KEYR = FLASH_KEY2;
 214              		.loc 1 321 0
 215 0006 5960     		str	r1, [r3, #4]
 216              		.loc 1 322 0
 217 0008 5A60     		str	r2, [r3, #4]
 323:Libraries/STM32F10x_StdPeriph_Driver/src/stm32f10x_flash.c **** 
 324:Libraries/STM32F10x_StdPeriph_Driver/src/stm32f10x_flash.c **** #ifdef STM32F10X_XL
 325:Libraries/STM32F10x_StdPeriph_Driver/src/stm32f10x_flash.c ****   /* Authorize the FPEC of Bank2 Access */
 326:Libraries/STM32F10x_StdPeriph_Driver/src/stm32f10x_flash.c ****   FLASH->KEYR2 = FLASH_KEY1;
 327:Libraries/STM32F10x_StdPeriph_Driver/src/stm32f10x_flash.c ****   FLASH->KEYR2 = FLASH_KEY2;
 328:Libraries/STM32F10x_StdPeriph_Driver/src/stm32f10x_flash.c **** #endif /* STM32F10X_XL */
 329:Libraries/STM32F10x_StdPeriph_Driver/src/stm32f10x_flash.c **** }
 218              		.loc 1 329 0
 219 000a 7047     		bx	lr
 220              	.L27:
 221              		.align	2
 222              	.L26:
 223 000c 00200240 		.word	1073881088
 224 0010 23016745 		.word	1164378403
 225 0014 AB89EFCD 		.word	-839939669
 226              		.cfi_endproc
 227              	.LFE32:
 229              		.section	.text.FLASH_UnlockBank1,"ax",%progbits
 230              		.align	1
 231              		.p2align 2,,3
 232              		.global	FLASH_UnlockBank1
 233              		.syntax unified
 234              		.thumb
 235              		.thumb_func
 236              		.fpu softvfp
 238              	FLASH_UnlockBank1:
 239              	.LFB59:
 240              		.cfi_startproc
 241              		@ args = 0, pretend = 0, frame = 0
 242              		@ frame_needed = 0, uses_anonymous_args = 0
 243              		@ link register save eliminated.
 244 0000 004B     		ldr	r3, .L29
 245 0002 1847     		bx	r3	@ indirect register sibling call
 246              	.L30:
 247              		.align	2
 248              	.L29:
 249 0004 00000000 		.word	FLASH_Unlock
 250              		.cfi_endproc
 251              	.LFE59:
 253              		.section	.text.FLASH_Lock,"ax",%progbits
 254              		.align	1
 255              		.p2align 2,,3
 256              		.global	FLASH_Lock
 257              		.syntax unified
 258              		.thumb
 259              		.thumb_func
 260              		.fpu softvfp
 262              	FLASH_Lock:
 263              	.LFB34:
 330:Libraries/STM32F10x_StdPeriph_Driver/src/stm32f10x_flash.c **** /**
 331:Libraries/STM32F10x_StdPeriph_Driver/src/stm32f10x_flash.c ****   * @brief  Unlocks the FLASH Bank1 Program Erase Controller.
 332:Libraries/STM32F10x_StdPeriph_Driver/src/stm32f10x_flash.c ****   * @note   This function can be used for all STM32F10x devices.
 333:Libraries/STM32F10x_StdPeriph_Driver/src/stm32f10x_flash.c ****   *         - For STM32F10X_XL devices this function unlocks Bank1.
 334:Libraries/STM32F10x_StdPeriph_Driver/src/stm32f10x_flash.c ****   *         - For all other devices it unlocks Bank1 and it is 
 335:Libraries/STM32F10x_StdPeriph_Driver/src/stm32f10x_flash.c ****   *           equivalent to FLASH_Unlock function.
 336:Libraries/STM32F10x_StdPeriph_Driver/src/stm32f10x_flash.c ****   * @param  None
 337:Libraries/STM32F10x_StdPeriph_Driver/src/stm32f10x_flash.c ****   * @retval None
 338:Libraries/STM32F10x_StdPeriph_Driver/src/stm32f10x_flash.c ****   */
 339:Libraries/STM32F10x_StdPeriph_Driver/src/stm32f10x_flash.c **** void FLASH_UnlockBank1(void)
 340:Libraries/STM32F10x_StdPeriph_Driver/src/stm32f10x_flash.c **** {
 341:Libraries/STM32F10x_StdPeriph_Driver/src/stm32f10x_flash.c ****   /* Authorize the FPEC of Bank1 Access */
 342:Libraries/STM32F10x_StdPeriph_Driver/src/stm32f10x_flash.c ****   FLASH->KEYR = FLASH_KEY1;
 343:Libraries/STM32F10x_StdPeriph_Driver/src/stm32f10x_flash.c ****   FLASH->KEYR = FLASH_KEY2;
 344:Libraries/STM32F10x_StdPeriph_Driver/src/stm32f10x_flash.c **** }
 345:Libraries/STM32F10x_StdPeriph_Driver/src/stm32f10x_flash.c **** 
 346:Libraries/STM32F10x_StdPeriph_Driver/src/stm32f10x_flash.c **** #ifdef STM32F10X_XL
 347:Libraries/STM32F10x_StdPeriph_Driver/src/stm32f10x_flash.c **** /**
 348:Libraries/STM32F10x_StdPeriph_Driver/src/stm32f10x_flash.c ****   * @brief  Unlocks the FLASH Bank2 Program Erase Controller.
 349:Libraries/STM32F10x_StdPeriph_Driver/src/stm32f10x_flash.c ****   * @note   This function can be used only for STM32F10X_XL density devices.
 350:Libraries/STM32F10x_StdPeriph_Driver/src/stm32f10x_flash.c ****   * @param  None
 351:Libraries/STM32F10x_StdPeriph_Driver/src/stm32f10x_flash.c ****   * @retval None
 352:Libraries/STM32F10x_StdPeriph_Driver/src/stm32f10x_flash.c ****   */
 353:Libraries/STM32F10x_StdPeriph_Driver/src/stm32f10x_flash.c **** void FLASH_UnlockBank2(void)
 354:Libraries/STM32F10x_StdPeriph_Driver/src/stm32f10x_flash.c **** {
 355:Libraries/STM32F10x_StdPeriph_Driver/src/stm32f10x_flash.c ****   /* Authorize the FPEC of Bank2 Access */
 356:Libraries/STM32F10x_StdPeriph_Driver/src/stm32f10x_flash.c ****   FLASH->KEYR2 = FLASH_KEY1;
 357:Libraries/STM32F10x_StdPeriph_Driver/src/stm32f10x_flash.c ****   FLASH->KEYR2 = FLASH_KEY2;
 358:Libraries/STM32F10x_StdPeriph_Driver/src/stm32f10x_flash.c **** 
 359:Libraries/STM32F10x_StdPeriph_Driver/src/stm32f10x_flash.c **** }
 360:Libraries/STM32F10x_StdPeriph_Driver/src/stm32f10x_flash.c **** #endif /* STM32F10X_XL */
 361:Libraries/STM32F10x_StdPeriph_Driver/src/stm32f10x_flash.c **** 
 362:Libraries/STM32F10x_StdPeriph_Driver/src/stm32f10x_flash.c **** /**
 363:Libraries/STM32F10x_StdPeriph_Driver/src/stm32f10x_flash.c ****   * @brief  Locks the FLASH Program Erase Controller.
 364:Libraries/STM32F10x_StdPeriph_Driver/src/stm32f10x_flash.c ****   * @note   This function can be used for all STM32F10x devices.
 365:Libraries/STM32F10x_StdPeriph_Driver/src/stm32f10x_flash.c ****   *         - For STM32F10X_XL devices this function Locks Bank1 and Bank2.
 366:Libraries/STM32F10x_StdPeriph_Driver/src/stm32f10x_flash.c ****   *         - For all other devices it Locks Bank1 and it is equivalent 
 367:Libraries/STM32F10x_StdPeriph_Driver/src/stm32f10x_flash.c ****   *           to FLASH_LockBank1 function.
 368:Libraries/STM32F10x_StdPeriph_Driver/src/stm32f10x_flash.c ****   * @param  None
 369:Libraries/STM32F10x_StdPeriph_Driver/src/stm32f10x_flash.c ****   * @retval None
 370:Libraries/STM32F10x_StdPeriph_Driver/src/stm32f10x_flash.c ****   */
 371:Libraries/STM32F10x_StdPeriph_Driver/src/stm32f10x_flash.c **** void FLASH_Lock(void)
 372:Libraries/STM32F10x_StdPeriph_Driver/src/stm32f10x_flash.c **** {
 264              		.loc 1 372 0
 265              		.cfi_startproc
 266              		@ args = 0, pretend = 0, frame = 0
 267              		@ frame_needed = 0, uses_anonymous_args = 0
 268              		@ link register save eliminated.
 373:Libraries/STM32F10x_StdPeriph_Driver/src/stm32f10x_flash.c ****   /* Set the Lock Bit to lock the FPEC and the CR of  Bank1 */
 374:Libraries/STM32F10x_StdPeriph_Driver/src/stm32f10x_flash.c ****   FLASH->CR |= CR_LOCK_Set;
 269              		.loc 1 374 0
 270 0000 024A     		ldr	r2, .L32
 271 0002 1369     		ldr	r3, [r2, #16]
 272 0004 43F08003 		orr	r3, r3, #128
 273 0008 1361     		str	r3, [r2, #16]
 375:Libraries/STM32F10x_StdPeriph_Driver/src/stm32f10x_flash.c **** 
 376:Libraries/STM32F10x_StdPeriph_Driver/src/stm32f10x_flash.c **** #ifdef STM32F10X_XL
 377:Libraries/STM32F10x_StdPeriph_Driver/src/stm32f10x_flash.c ****   /* Set the Lock Bit to lock the FPEC and the CR of  Bank2 */
 378:Libraries/STM32F10x_StdPeriph_Driver/src/stm32f10x_flash.c ****   FLASH->CR2 |= CR_LOCK_Set;
 379:Libraries/STM32F10x_StdPeriph_Driver/src/stm32f10x_flash.c **** #endif /* STM32F10X_XL */
 380:Libraries/STM32F10x_StdPeriph_Driver/src/stm32f10x_flash.c **** }
 274              		.loc 1 380 0
 275 000a 7047     		bx	lr
 276              	.L33:
 277              		.align	2
 278              	.L32:
 279 000c 00200240 		.word	1073881088
 280              		.cfi_endproc
 281              	.LFE34:
 283              		.section	.text.FLASH_LockBank1,"ax",%progbits
 284              		.align	1
 285              		.p2align 2,,3
 286              		.global	FLASH_LockBank1
 287              		.syntax unified
 288              		.thumb
 289              		.thumb_func
 290              		.fpu softvfp
 292              	FLASH_LockBank1:
 293              	.LFB61:
 294              		.cfi_startproc
 295              		@ args = 0, pretend = 0, frame = 0
 296              		@ frame_needed = 0, uses_anonymous_args = 0
 297              		@ link register save eliminated.
 298 0000 004B     		ldr	r3, .L35
 299 0002 1847     		bx	r3	@ indirect register sibling call
 300              	.L36:
 301              		.align	2
 302              	.L35:
 303 0004 00000000 		.word	FLASH_Lock
 304              		.cfi_endproc
 305              	.LFE61:
 307              		.section	.text.FLASH_GetUserOptionByte,"ax",%progbits
 308              		.align	1
 309              		.p2align 2,,3
 310              		.global	FLASH_GetUserOptionByte
 311              		.syntax unified
 312              		.thumb
 313              		.thumb_func
 314              		.fpu softvfp
 316              	FLASH_GetUserOptionByte:
 317              	.LFB46:
 381:Libraries/STM32F10x_StdPeriph_Driver/src/stm32f10x_flash.c **** 
 382:Libraries/STM32F10x_StdPeriph_Driver/src/stm32f10x_flash.c **** /**
 383:Libraries/STM32F10x_StdPeriph_Driver/src/stm32f10x_flash.c ****   * @brief  Locks the FLASH Bank1 Program Erase Controller.
 384:Libraries/STM32F10x_StdPeriph_Driver/src/stm32f10x_flash.c ****   * @note   this function can be used for all STM32F10x devices.
 385:Libraries/STM32F10x_StdPeriph_Driver/src/stm32f10x_flash.c ****   *         - For STM32F10X_XL devices this function Locks Bank1.
 386:Libraries/STM32F10x_StdPeriph_Driver/src/stm32f10x_flash.c ****   *         - For all other devices it Locks Bank1 and it is equivalent 
 387:Libraries/STM32F10x_StdPeriph_Driver/src/stm32f10x_flash.c ****   *           to FLASH_Lock function.
 388:Libraries/STM32F10x_StdPeriph_Driver/src/stm32f10x_flash.c ****   * @param  None
 389:Libraries/STM32F10x_StdPeriph_Driver/src/stm32f10x_flash.c ****   * @retval None
 390:Libraries/STM32F10x_StdPeriph_Driver/src/stm32f10x_flash.c ****   */
 391:Libraries/STM32F10x_StdPeriph_Driver/src/stm32f10x_flash.c **** void FLASH_LockBank1(void)
 392:Libraries/STM32F10x_StdPeriph_Driver/src/stm32f10x_flash.c **** {
 393:Libraries/STM32F10x_StdPeriph_Driver/src/stm32f10x_flash.c ****   /* Set the Lock Bit to lock the FPEC and the CR of  Bank1 */
 394:Libraries/STM32F10x_StdPeriph_Driver/src/stm32f10x_flash.c ****   FLASH->CR |= CR_LOCK_Set;
 395:Libraries/STM32F10x_StdPeriph_Driver/src/stm32f10x_flash.c **** }
 396:Libraries/STM32F10x_StdPeriph_Driver/src/stm32f10x_flash.c **** 
 397:Libraries/STM32F10x_StdPeriph_Driver/src/stm32f10x_flash.c **** #ifdef STM32F10X_XL
 398:Libraries/STM32F10x_StdPeriph_Driver/src/stm32f10x_flash.c **** /**
 399:Libraries/STM32F10x_StdPeriph_Driver/src/stm32f10x_flash.c ****   * @brief  Locks the FLASH Bank2 Program Erase Controller.
 400:Libraries/STM32F10x_StdPeriph_Driver/src/stm32f10x_flash.c ****   * @note   This function can be used only for STM32F10X_XL density devices.
 401:Libraries/STM32F10x_StdPeriph_Driver/src/stm32f10x_flash.c ****   * @param  None
 402:Libraries/STM32F10x_StdPeriph_Driver/src/stm32f10x_flash.c ****   * @retval None
 403:Libraries/STM32F10x_StdPeriph_Driver/src/stm32f10x_flash.c ****   */
 404:Libraries/STM32F10x_StdPeriph_Driver/src/stm32f10x_flash.c **** void FLASH_LockBank2(void)
 405:Libraries/STM32F10x_StdPeriph_Driver/src/stm32f10x_flash.c **** {
 406:Libraries/STM32F10x_StdPeriph_Driver/src/stm32f10x_flash.c ****   /* Set the Lock Bit to lock the FPEC and the CR of  Bank2 */
 407:Libraries/STM32F10x_StdPeriph_Driver/src/stm32f10x_flash.c ****   FLASH->CR2 |= CR_LOCK_Set;
 408:Libraries/STM32F10x_StdPeriph_Driver/src/stm32f10x_flash.c **** }
 409:Libraries/STM32F10x_StdPeriph_Driver/src/stm32f10x_flash.c **** #endif /* STM32F10X_XL */
 410:Libraries/STM32F10x_StdPeriph_Driver/src/stm32f10x_flash.c **** 
 411:Libraries/STM32F10x_StdPeriph_Driver/src/stm32f10x_flash.c **** /**
 412:Libraries/STM32F10x_StdPeriph_Driver/src/stm32f10x_flash.c ****   * @brief  Erases a specified FLASH page.
 413:Libraries/STM32F10x_StdPeriph_Driver/src/stm32f10x_flash.c ****   * @note   This function can be used for all STM32F10x devices.
 414:Libraries/STM32F10x_StdPeriph_Driver/src/stm32f10x_flash.c ****   * @param  Page_Address: The page address to be erased.
 415:Libraries/STM32F10x_StdPeriph_Driver/src/stm32f10x_flash.c ****   * @retval FLASH Status: The returned value can be: FLASH_BUSY, FLASH_ERROR_PG,
 416:Libraries/STM32F10x_StdPeriph_Driver/src/stm32f10x_flash.c ****   *   FLASH_ERROR_WRP, FLASH_COMPLETE or FLASH_TIMEOUT.
 417:Libraries/STM32F10x_StdPeriph_Driver/src/stm32f10x_flash.c ****   */
 418:Libraries/STM32F10x_StdPeriph_Driver/src/stm32f10x_flash.c **** FLASH_Status FLASH_ErasePage(uint32_t Page_Address)
 419:Libraries/STM32F10x_StdPeriph_Driver/src/stm32f10x_flash.c **** {
 420:Libraries/STM32F10x_StdPeriph_Driver/src/stm32f10x_flash.c ****   FLASH_Status status = FLASH_COMPLETE;
 421:Libraries/STM32F10x_StdPeriph_Driver/src/stm32f10x_flash.c ****   /* Check the parameters */
 422:Libraries/STM32F10x_StdPeriph_Driver/src/stm32f10x_flash.c ****   assert_param(IS_FLASH_ADDRESS(Page_Address));
 423:Libraries/STM32F10x_StdPeriph_Driver/src/stm32f10x_flash.c **** 
 424:Libraries/STM32F10x_StdPeriph_Driver/src/stm32f10x_flash.c **** #ifdef STM32F10X_XL
 425:Libraries/STM32F10x_StdPeriph_Driver/src/stm32f10x_flash.c ****   if(Page_Address < FLASH_BANK1_END_ADDRESS)  
 426:Libraries/STM32F10x_StdPeriph_Driver/src/stm32f10x_flash.c ****   {
 427:Libraries/STM32F10x_StdPeriph_Driver/src/stm32f10x_flash.c ****     /* Wait for last operation to be completed */
 428:Libraries/STM32F10x_StdPeriph_Driver/src/stm32f10x_flash.c ****     status = FLASH_WaitForLastBank1Operation(EraseTimeout);
 429:Libraries/STM32F10x_StdPeriph_Driver/src/stm32f10x_flash.c ****     if(status == FLASH_COMPLETE)
 430:Libraries/STM32F10x_StdPeriph_Driver/src/stm32f10x_flash.c ****     { 
 431:Libraries/STM32F10x_StdPeriph_Driver/src/stm32f10x_flash.c ****       /* if the previous operation is completed, proceed to erase the page */
 432:Libraries/STM32F10x_StdPeriph_Driver/src/stm32f10x_flash.c ****       FLASH->CR|= CR_PER_Set;
 433:Libraries/STM32F10x_StdPeriph_Driver/src/stm32f10x_flash.c ****       FLASH->AR = Page_Address; 
 434:Libraries/STM32F10x_StdPeriph_Driver/src/stm32f10x_flash.c ****       FLASH->CR|= CR_STRT_Set;
 435:Libraries/STM32F10x_StdPeriph_Driver/src/stm32f10x_flash.c ****     
 436:Libraries/STM32F10x_StdPeriph_Driver/src/stm32f10x_flash.c ****       /* Wait for last operation to be completed */
 437:Libraries/STM32F10x_StdPeriph_Driver/src/stm32f10x_flash.c ****       status = FLASH_WaitForLastBank1Operation(EraseTimeout);
 438:Libraries/STM32F10x_StdPeriph_Driver/src/stm32f10x_flash.c ****       if(status != FLASH_TIMEOUT)
 439:Libraries/STM32F10x_StdPeriph_Driver/src/stm32f10x_flash.c ****       {
 440:Libraries/STM32F10x_StdPeriph_Driver/src/stm32f10x_flash.c ****         /* if the erase operation is completed, disable the PER Bit */
 441:Libraries/STM32F10x_StdPeriph_Driver/src/stm32f10x_flash.c ****         FLASH->CR &= CR_PER_Reset;
 442:Libraries/STM32F10x_StdPeriph_Driver/src/stm32f10x_flash.c ****       }
 443:Libraries/STM32F10x_StdPeriph_Driver/src/stm32f10x_flash.c ****     }
 444:Libraries/STM32F10x_StdPeriph_Driver/src/stm32f10x_flash.c ****   }
 445:Libraries/STM32F10x_StdPeriph_Driver/src/stm32f10x_flash.c ****   else
 446:Libraries/STM32F10x_StdPeriph_Driver/src/stm32f10x_flash.c ****   {
 447:Libraries/STM32F10x_StdPeriph_Driver/src/stm32f10x_flash.c ****     /* Wait for last operation to be completed */
 448:Libraries/STM32F10x_StdPeriph_Driver/src/stm32f10x_flash.c ****     status = FLASH_WaitForLastBank2Operation(EraseTimeout);
 449:Libraries/STM32F10x_StdPeriph_Driver/src/stm32f10x_flash.c ****     if(status == FLASH_COMPLETE)
 450:Libraries/STM32F10x_StdPeriph_Driver/src/stm32f10x_flash.c ****     { 
 451:Libraries/STM32F10x_StdPeriph_Driver/src/stm32f10x_flash.c ****       /* if the previous operation is completed, proceed to erase the page */
 452:Libraries/STM32F10x_StdPeriph_Driver/src/stm32f10x_flash.c ****       FLASH->CR2|= CR_PER_Set;
 453:Libraries/STM32F10x_StdPeriph_Driver/src/stm32f10x_flash.c ****       FLASH->AR2 = Page_Address; 
 454:Libraries/STM32F10x_StdPeriph_Driver/src/stm32f10x_flash.c ****       FLASH->CR2|= CR_STRT_Set;
 455:Libraries/STM32F10x_StdPeriph_Driver/src/stm32f10x_flash.c ****     
 456:Libraries/STM32F10x_StdPeriph_Driver/src/stm32f10x_flash.c ****       /* Wait for last operation to be completed */
 457:Libraries/STM32F10x_StdPeriph_Driver/src/stm32f10x_flash.c ****       status = FLASH_WaitForLastBank2Operation(EraseTimeout);
 458:Libraries/STM32F10x_StdPeriph_Driver/src/stm32f10x_flash.c ****       if(status != FLASH_TIMEOUT)
 459:Libraries/STM32F10x_StdPeriph_Driver/src/stm32f10x_flash.c ****       {
 460:Libraries/STM32F10x_StdPeriph_Driver/src/stm32f10x_flash.c ****         /* if the erase operation is completed, disable the PER Bit */
 461:Libraries/STM32F10x_StdPeriph_Driver/src/stm32f10x_flash.c ****         FLASH->CR2 &= CR_PER_Reset;
 462:Libraries/STM32F10x_StdPeriph_Driver/src/stm32f10x_flash.c ****       }
 463:Libraries/STM32F10x_StdPeriph_Driver/src/stm32f10x_flash.c ****     }
 464:Libraries/STM32F10x_StdPeriph_Driver/src/stm32f10x_flash.c ****   }
 465:Libraries/STM32F10x_StdPeriph_Driver/src/stm32f10x_flash.c **** #else
 466:Libraries/STM32F10x_StdPeriph_Driver/src/stm32f10x_flash.c ****   /* Wait for last operation to be completed */
 467:Libraries/STM32F10x_StdPeriph_Driver/src/stm32f10x_flash.c ****   status = FLASH_WaitForLastOperation(EraseTimeout);
 468:Libraries/STM32F10x_StdPeriph_Driver/src/stm32f10x_flash.c ****   
 469:Libraries/STM32F10x_StdPeriph_Driver/src/stm32f10x_flash.c ****   if(status == FLASH_COMPLETE)
 470:Libraries/STM32F10x_StdPeriph_Driver/src/stm32f10x_flash.c ****   { 
 471:Libraries/STM32F10x_StdPeriph_Driver/src/stm32f10x_flash.c ****     /* if the previous operation is completed, proceed to erase the page */
 472:Libraries/STM32F10x_StdPeriph_Driver/src/stm32f10x_flash.c ****     FLASH->CR|= CR_PER_Set;
 473:Libraries/STM32F10x_StdPeriph_Driver/src/stm32f10x_flash.c ****     FLASH->AR = Page_Address; 
 474:Libraries/STM32F10x_StdPeriph_Driver/src/stm32f10x_flash.c ****     FLASH->CR|= CR_STRT_Set;
 475:Libraries/STM32F10x_StdPeriph_Driver/src/stm32f10x_flash.c ****     
 476:Libraries/STM32F10x_StdPeriph_Driver/src/stm32f10x_flash.c ****     /* Wait for last operation to be completed */
 477:Libraries/STM32F10x_StdPeriph_Driver/src/stm32f10x_flash.c ****     status = FLASH_WaitForLastOperation(EraseTimeout);
 478:Libraries/STM32F10x_StdPeriph_Driver/src/stm32f10x_flash.c ****     if(status != FLASH_TIMEOUT)
 479:Libraries/STM32F10x_StdPeriph_Driver/src/stm32f10x_flash.c ****     {
 480:Libraries/STM32F10x_StdPeriph_Driver/src/stm32f10x_flash.c ****       /* if the erase operation is completed, disable the PER Bit */
 481:Libraries/STM32F10x_StdPeriph_Driver/src/stm32f10x_flash.c ****       FLASH->CR &= CR_PER_Reset;
 482:Libraries/STM32F10x_StdPeriph_Driver/src/stm32f10x_flash.c ****     }
 483:Libraries/STM32F10x_StdPeriph_Driver/src/stm32f10x_flash.c ****   }
 484:Libraries/STM32F10x_StdPeriph_Driver/src/stm32f10x_flash.c **** #endif /* STM32F10X_XL */
 485:Libraries/STM32F10x_StdPeriph_Driver/src/stm32f10x_flash.c **** 
 486:Libraries/STM32F10x_StdPeriph_Driver/src/stm32f10x_flash.c ****   /* Return the Erase Status */
 487:Libraries/STM32F10x_StdPeriph_Driver/src/stm32f10x_flash.c ****   return status;
 488:Libraries/STM32F10x_StdPeriph_Driver/src/stm32f10x_flash.c **** }
 489:Libraries/STM32F10x_StdPeriph_Driver/src/stm32f10x_flash.c **** 
 490:Libraries/STM32F10x_StdPeriph_Driver/src/stm32f10x_flash.c **** /**
 491:Libraries/STM32F10x_StdPeriph_Driver/src/stm32f10x_flash.c ****   * @brief  Erases all FLASH pages.
 492:Libraries/STM32F10x_StdPeriph_Driver/src/stm32f10x_flash.c ****   * @note   This function can be used for all STM32F10x devices.
 493:Libraries/STM32F10x_StdPeriph_Driver/src/stm32f10x_flash.c ****   * @param  None
 494:Libraries/STM32F10x_StdPeriph_Driver/src/stm32f10x_flash.c ****   * @retval FLASH Status: The returned value can be: FLASH_ERROR_PG,
 495:Libraries/STM32F10x_StdPeriph_Driver/src/stm32f10x_flash.c ****   *   FLASH_ERROR_WRP, FLASH_COMPLETE or FLASH_TIMEOUT.
 496:Libraries/STM32F10x_StdPeriph_Driver/src/stm32f10x_flash.c ****   */
 497:Libraries/STM32F10x_StdPeriph_Driver/src/stm32f10x_flash.c **** FLASH_Status FLASH_EraseAllPages(void)
 498:Libraries/STM32F10x_StdPeriph_Driver/src/stm32f10x_flash.c **** {
 499:Libraries/STM32F10x_StdPeriph_Driver/src/stm32f10x_flash.c ****   FLASH_Status status = FLASH_COMPLETE;
 500:Libraries/STM32F10x_StdPeriph_Driver/src/stm32f10x_flash.c **** 
 501:Libraries/STM32F10x_StdPeriph_Driver/src/stm32f10x_flash.c **** #ifdef STM32F10X_XL
 502:Libraries/STM32F10x_StdPeriph_Driver/src/stm32f10x_flash.c ****   /* Wait for last operation to be completed */
 503:Libraries/STM32F10x_StdPeriph_Driver/src/stm32f10x_flash.c ****   status = FLASH_WaitForLastBank1Operation(EraseTimeout);
 504:Libraries/STM32F10x_StdPeriph_Driver/src/stm32f10x_flash.c ****   
 505:Libraries/STM32F10x_StdPeriph_Driver/src/stm32f10x_flash.c ****   if(status == FLASH_COMPLETE)
 506:Libraries/STM32F10x_StdPeriph_Driver/src/stm32f10x_flash.c ****   {
 507:Libraries/STM32F10x_StdPeriph_Driver/src/stm32f10x_flash.c ****     /* if the previous operation is completed, proceed to erase all pages */
 508:Libraries/STM32F10x_StdPeriph_Driver/src/stm32f10x_flash.c ****      FLASH->CR |= CR_MER_Set;
 509:Libraries/STM32F10x_StdPeriph_Driver/src/stm32f10x_flash.c ****      FLASH->CR |= CR_STRT_Set;
 510:Libraries/STM32F10x_StdPeriph_Driver/src/stm32f10x_flash.c ****     
 511:Libraries/STM32F10x_StdPeriph_Driver/src/stm32f10x_flash.c ****     /* Wait for last operation to be completed */
 512:Libraries/STM32F10x_StdPeriph_Driver/src/stm32f10x_flash.c ****     status = FLASH_WaitForLastBank1Operation(EraseTimeout);
 513:Libraries/STM32F10x_StdPeriph_Driver/src/stm32f10x_flash.c ****     if(status != FLASH_TIMEOUT)
 514:Libraries/STM32F10x_StdPeriph_Driver/src/stm32f10x_flash.c ****     {
 515:Libraries/STM32F10x_StdPeriph_Driver/src/stm32f10x_flash.c ****       /* if the erase operation is completed, disable the MER Bit */
 516:Libraries/STM32F10x_StdPeriph_Driver/src/stm32f10x_flash.c ****       FLASH->CR &= CR_MER_Reset;
 517:Libraries/STM32F10x_StdPeriph_Driver/src/stm32f10x_flash.c ****     }
 518:Libraries/STM32F10x_StdPeriph_Driver/src/stm32f10x_flash.c ****   }    
 519:Libraries/STM32F10x_StdPeriph_Driver/src/stm32f10x_flash.c ****   if(status == FLASH_COMPLETE)
 520:Libraries/STM32F10x_StdPeriph_Driver/src/stm32f10x_flash.c ****   {
 521:Libraries/STM32F10x_StdPeriph_Driver/src/stm32f10x_flash.c ****     /* if the previous operation is completed, proceed to erase all pages */
 522:Libraries/STM32F10x_StdPeriph_Driver/src/stm32f10x_flash.c ****      FLASH->CR2 |= CR_MER_Set;
 523:Libraries/STM32F10x_StdPeriph_Driver/src/stm32f10x_flash.c ****      FLASH->CR2 |= CR_STRT_Set;
 524:Libraries/STM32F10x_StdPeriph_Driver/src/stm32f10x_flash.c ****     
 525:Libraries/STM32F10x_StdPeriph_Driver/src/stm32f10x_flash.c ****     /* Wait for last operation to be completed */
 526:Libraries/STM32F10x_StdPeriph_Driver/src/stm32f10x_flash.c ****     status = FLASH_WaitForLastBank2Operation(EraseTimeout);
 527:Libraries/STM32F10x_StdPeriph_Driver/src/stm32f10x_flash.c ****     if(status != FLASH_TIMEOUT)
 528:Libraries/STM32F10x_StdPeriph_Driver/src/stm32f10x_flash.c ****     {
 529:Libraries/STM32F10x_StdPeriph_Driver/src/stm32f10x_flash.c ****       /* if the erase operation is completed, disable the MER Bit */
 530:Libraries/STM32F10x_StdPeriph_Driver/src/stm32f10x_flash.c ****       FLASH->CR2 &= CR_MER_Reset;
 531:Libraries/STM32F10x_StdPeriph_Driver/src/stm32f10x_flash.c ****     }
 532:Libraries/STM32F10x_StdPeriph_Driver/src/stm32f10x_flash.c ****   }
 533:Libraries/STM32F10x_StdPeriph_Driver/src/stm32f10x_flash.c **** #else
 534:Libraries/STM32F10x_StdPeriph_Driver/src/stm32f10x_flash.c ****   /* Wait for last operation to be completed */
 535:Libraries/STM32F10x_StdPeriph_Driver/src/stm32f10x_flash.c ****   status = FLASH_WaitForLastOperation(EraseTimeout);
 536:Libraries/STM32F10x_StdPeriph_Driver/src/stm32f10x_flash.c ****   if(status == FLASH_COMPLETE)
 537:Libraries/STM32F10x_StdPeriph_Driver/src/stm32f10x_flash.c ****   {
 538:Libraries/STM32F10x_StdPeriph_Driver/src/stm32f10x_flash.c ****     /* if the previous operation is completed, proceed to erase all pages */
 539:Libraries/STM32F10x_StdPeriph_Driver/src/stm32f10x_flash.c ****      FLASH->CR |= CR_MER_Set;
 540:Libraries/STM32F10x_StdPeriph_Driver/src/stm32f10x_flash.c ****      FLASH->CR |= CR_STRT_Set;
 541:Libraries/STM32F10x_StdPeriph_Driver/src/stm32f10x_flash.c ****     
 542:Libraries/STM32F10x_StdPeriph_Driver/src/stm32f10x_flash.c ****     /* Wait for last operation to be completed */
 543:Libraries/STM32F10x_StdPeriph_Driver/src/stm32f10x_flash.c ****     status = FLASH_WaitForLastOperation(EraseTimeout);
 544:Libraries/STM32F10x_StdPeriph_Driver/src/stm32f10x_flash.c ****     if(status != FLASH_TIMEOUT)
 545:Libraries/STM32F10x_StdPeriph_Driver/src/stm32f10x_flash.c ****     {
 546:Libraries/STM32F10x_StdPeriph_Driver/src/stm32f10x_flash.c ****       /* if the erase operation is completed, disable the MER Bit */
 547:Libraries/STM32F10x_StdPeriph_Driver/src/stm32f10x_flash.c ****       FLASH->CR &= CR_MER_Reset;
 548:Libraries/STM32F10x_StdPeriph_Driver/src/stm32f10x_flash.c ****     }
 549:Libraries/STM32F10x_StdPeriph_Driver/src/stm32f10x_flash.c ****   }
 550:Libraries/STM32F10x_StdPeriph_Driver/src/stm32f10x_flash.c **** #endif /* STM32F10X_XL */
 551:Libraries/STM32F10x_StdPeriph_Driver/src/stm32f10x_flash.c **** 
 552:Libraries/STM32F10x_StdPeriph_Driver/src/stm32f10x_flash.c ****   /* Return the Erase Status */
 553:Libraries/STM32F10x_StdPeriph_Driver/src/stm32f10x_flash.c ****   return status;
 554:Libraries/STM32F10x_StdPeriph_Driver/src/stm32f10x_flash.c **** }
 555:Libraries/STM32F10x_StdPeriph_Driver/src/stm32f10x_flash.c **** 
 556:Libraries/STM32F10x_StdPeriph_Driver/src/stm32f10x_flash.c **** /**
 557:Libraries/STM32F10x_StdPeriph_Driver/src/stm32f10x_flash.c ****   * @brief  Erases all Bank1 FLASH pages.
 558:Libraries/STM32F10x_StdPeriph_Driver/src/stm32f10x_flash.c ****   * @note   This function can be used for all STM32F10x devices.
 559:Libraries/STM32F10x_StdPeriph_Driver/src/stm32f10x_flash.c ****   *         - For STM32F10X_XL devices this function erases all Bank1 pages.
 560:Libraries/STM32F10x_StdPeriph_Driver/src/stm32f10x_flash.c ****   *         - For all other devices it erases all Bank1 pages and it is equivalent 
 561:Libraries/STM32F10x_StdPeriph_Driver/src/stm32f10x_flash.c ****   *           to FLASH_EraseAllPages function.
 562:Libraries/STM32F10x_StdPeriph_Driver/src/stm32f10x_flash.c ****   * @param  None
 563:Libraries/STM32F10x_StdPeriph_Driver/src/stm32f10x_flash.c ****   * @retval FLASH Status: The returned value can be: FLASH_ERROR_PG,
 564:Libraries/STM32F10x_StdPeriph_Driver/src/stm32f10x_flash.c ****   *   FLASH_ERROR_WRP, FLASH_COMPLETE or FLASH_TIMEOUT.
 565:Libraries/STM32F10x_StdPeriph_Driver/src/stm32f10x_flash.c ****   */
 566:Libraries/STM32F10x_StdPeriph_Driver/src/stm32f10x_flash.c **** FLASH_Status FLASH_EraseAllBank1Pages(void)
 567:Libraries/STM32F10x_StdPeriph_Driver/src/stm32f10x_flash.c **** {
 568:Libraries/STM32F10x_StdPeriph_Driver/src/stm32f10x_flash.c ****   FLASH_Status status = FLASH_COMPLETE;
 569:Libraries/STM32F10x_StdPeriph_Driver/src/stm32f10x_flash.c ****   /* Wait for last operation to be completed */
 570:Libraries/STM32F10x_StdPeriph_Driver/src/stm32f10x_flash.c ****   status = FLASH_WaitForLastBank1Operation(EraseTimeout);
 571:Libraries/STM32F10x_StdPeriph_Driver/src/stm32f10x_flash.c ****   
 572:Libraries/STM32F10x_StdPeriph_Driver/src/stm32f10x_flash.c ****   if(status == FLASH_COMPLETE)
 573:Libraries/STM32F10x_StdPeriph_Driver/src/stm32f10x_flash.c ****   {
 574:Libraries/STM32F10x_StdPeriph_Driver/src/stm32f10x_flash.c ****     /* if the previous operation is completed, proceed to erase all pages */
 575:Libraries/STM32F10x_StdPeriph_Driver/src/stm32f10x_flash.c ****      FLASH->CR |= CR_MER_Set;
 576:Libraries/STM32F10x_StdPeriph_Driver/src/stm32f10x_flash.c ****      FLASH->CR |= CR_STRT_Set;
 577:Libraries/STM32F10x_StdPeriph_Driver/src/stm32f10x_flash.c ****     
 578:Libraries/STM32F10x_StdPeriph_Driver/src/stm32f10x_flash.c ****     /* Wait for last operation to be completed */
 579:Libraries/STM32F10x_StdPeriph_Driver/src/stm32f10x_flash.c ****     status = FLASH_WaitForLastBank1Operation(EraseTimeout);
 580:Libraries/STM32F10x_StdPeriph_Driver/src/stm32f10x_flash.c ****     if(status != FLASH_TIMEOUT)
 581:Libraries/STM32F10x_StdPeriph_Driver/src/stm32f10x_flash.c ****     {
 582:Libraries/STM32F10x_StdPeriph_Driver/src/stm32f10x_flash.c ****       /* if the erase operation is completed, disable the MER Bit */
 583:Libraries/STM32F10x_StdPeriph_Driver/src/stm32f10x_flash.c ****       FLASH->CR &= CR_MER_Reset;
 584:Libraries/STM32F10x_StdPeriph_Driver/src/stm32f10x_flash.c ****     }
 585:Libraries/STM32F10x_StdPeriph_Driver/src/stm32f10x_flash.c ****   }    
 586:Libraries/STM32F10x_StdPeriph_Driver/src/stm32f10x_flash.c ****   /* Return the Erase Status */
 587:Libraries/STM32F10x_StdPeriph_Driver/src/stm32f10x_flash.c ****   return status;
 588:Libraries/STM32F10x_StdPeriph_Driver/src/stm32f10x_flash.c **** }
 589:Libraries/STM32F10x_StdPeriph_Driver/src/stm32f10x_flash.c **** 
 590:Libraries/STM32F10x_StdPeriph_Driver/src/stm32f10x_flash.c **** #ifdef STM32F10X_XL
 591:Libraries/STM32F10x_StdPeriph_Driver/src/stm32f10x_flash.c **** /**
 592:Libraries/STM32F10x_StdPeriph_Driver/src/stm32f10x_flash.c ****   * @brief  Erases all Bank2 FLASH pages.
 593:Libraries/STM32F10x_StdPeriph_Driver/src/stm32f10x_flash.c ****   * @note   This function can be used only for STM32F10x_XL density devices.
 594:Libraries/STM32F10x_StdPeriph_Driver/src/stm32f10x_flash.c ****   * @param  None
 595:Libraries/STM32F10x_StdPeriph_Driver/src/stm32f10x_flash.c ****   * @retval FLASH Status: The returned value can be: FLASH_ERROR_PG,
 596:Libraries/STM32F10x_StdPeriph_Driver/src/stm32f10x_flash.c ****   *   FLASH_ERROR_WRP, FLASH_COMPLETE or FLASH_TIMEOUT.
 597:Libraries/STM32F10x_StdPeriph_Driver/src/stm32f10x_flash.c ****   */
 598:Libraries/STM32F10x_StdPeriph_Driver/src/stm32f10x_flash.c **** FLASH_Status FLASH_EraseAllBank2Pages(void)
 599:Libraries/STM32F10x_StdPeriph_Driver/src/stm32f10x_flash.c **** {
 600:Libraries/STM32F10x_StdPeriph_Driver/src/stm32f10x_flash.c ****   FLASH_Status status = FLASH_COMPLETE;
 601:Libraries/STM32F10x_StdPeriph_Driver/src/stm32f10x_flash.c ****   /* Wait for last operation to be completed */
 602:Libraries/STM32F10x_StdPeriph_Driver/src/stm32f10x_flash.c ****   status = FLASH_WaitForLastBank2Operation(EraseTimeout);
 603:Libraries/STM32F10x_StdPeriph_Driver/src/stm32f10x_flash.c ****   
 604:Libraries/STM32F10x_StdPeriph_Driver/src/stm32f10x_flash.c ****   if(status == FLASH_COMPLETE)
 605:Libraries/STM32F10x_StdPeriph_Driver/src/stm32f10x_flash.c ****   {
 606:Libraries/STM32F10x_StdPeriph_Driver/src/stm32f10x_flash.c ****     /* if the previous operation is completed, proceed to erase all pages */
 607:Libraries/STM32F10x_StdPeriph_Driver/src/stm32f10x_flash.c ****      FLASH->CR2 |= CR_MER_Set;
 608:Libraries/STM32F10x_StdPeriph_Driver/src/stm32f10x_flash.c ****      FLASH->CR2 |= CR_STRT_Set;
 609:Libraries/STM32F10x_StdPeriph_Driver/src/stm32f10x_flash.c ****     
 610:Libraries/STM32F10x_StdPeriph_Driver/src/stm32f10x_flash.c ****     /* Wait for last operation to be completed */
 611:Libraries/STM32F10x_StdPeriph_Driver/src/stm32f10x_flash.c ****     status = FLASH_WaitForLastBank2Operation(EraseTimeout);
 612:Libraries/STM32F10x_StdPeriph_Driver/src/stm32f10x_flash.c ****     if(status != FLASH_TIMEOUT)
 613:Libraries/STM32F10x_StdPeriph_Driver/src/stm32f10x_flash.c ****     {
 614:Libraries/STM32F10x_StdPeriph_Driver/src/stm32f10x_flash.c ****       /* if the erase operation is completed, disable the MER Bit */
 615:Libraries/STM32F10x_StdPeriph_Driver/src/stm32f10x_flash.c ****       FLASH->CR2 &= CR_MER_Reset;
 616:Libraries/STM32F10x_StdPeriph_Driver/src/stm32f10x_flash.c ****     }
 617:Libraries/STM32F10x_StdPeriph_Driver/src/stm32f10x_flash.c ****   }    
 618:Libraries/STM32F10x_StdPeriph_Driver/src/stm32f10x_flash.c ****   /* Return the Erase Status */
 619:Libraries/STM32F10x_StdPeriph_Driver/src/stm32f10x_flash.c ****   return status;
 620:Libraries/STM32F10x_StdPeriph_Driver/src/stm32f10x_flash.c **** }
 621:Libraries/STM32F10x_StdPeriph_Driver/src/stm32f10x_flash.c **** #endif /* STM32F10X_XL */
 622:Libraries/STM32F10x_StdPeriph_Driver/src/stm32f10x_flash.c **** 
 623:Libraries/STM32F10x_StdPeriph_Driver/src/stm32f10x_flash.c **** /**
 624:Libraries/STM32F10x_StdPeriph_Driver/src/stm32f10x_flash.c ****   * @brief  Erases the FLASH option bytes.
 625:Libraries/STM32F10x_StdPeriph_Driver/src/stm32f10x_flash.c ****   * @note   This functions erases all option bytes except the Read protection (RDP). 
 626:Libraries/STM32F10x_StdPeriph_Driver/src/stm32f10x_flash.c ****   * @note   This function can be used for all STM32F10x devices.
 627:Libraries/STM32F10x_StdPeriph_Driver/src/stm32f10x_flash.c ****   * @param  None
 628:Libraries/STM32F10x_StdPeriph_Driver/src/stm32f10x_flash.c ****   * @retval FLASH Status: The returned value can be: FLASH_ERROR_PG,
 629:Libraries/STM32F10x_StdPeriph_Driver/src/stm32f10x_flash.c ****   *   FLASH_ERROR_WRP, FLASH_COMPLETE or FLASH_TIMEOUT.
 630:Libraries/STM32F10x_StdPeriph_Driver/src/stm32f10x_flash.c ****   */
 631:Libraries/STM32F10x_StdPeriph_Driver/src/stm32f10x_flash.c **** FLASH_Status FLASH_EraseOptionBytes(void)
 632:Libraries/STM32F10x_StdPeriph_Driver/src/stm32f10x_flash.c **** {
 633:Libraries/STM32F10x_StdPeriph_Driver/src/stm32f10x_flash.c ****   uint16_t rdptmp = RDP_Key;
 634:Libraries/STM32F10x_StdPeriph_Driver/src/stm32f10x_flash.c **** 
 635:Libraries/STM32F10x_StdPeriph_Driver/src/stm32f10x_flash.c ****   FLASH_Status status = FLASH_COMPLETE;
 636:Libraries/STM32F10x_StdPeriph_Driver/src/stm32f10x_flash.c **** 
 637:Libraries/STM32F10x_StdPeriph_Driver/src/stm32f10x_flash.c ****   /* Get the actual read protection Option Byte value */ 
 638:Libraries/STM32F10x_StdPeriph_Driver/src/stm32f10x_flash.c ****   if(FLASH_GetReadOutProtectionStatus() != RESET)
 639:Libraries/STM32F10x_StdPeriph_Driver/src/stm32f10x_flash.c ****   {
 640:Libraries/STM32F10x_StdPeriph_Driver/src/stm32f10x_flash.c ****     rdptmp = 0x00;  
 641:Libraries/STM32F10x_StdPeriph_Driver/src/stm32f10x_flash.c ****   }
 642:Libraries/STM32F10x_StdPeriph_Driver/src/stm32f10x_flash.c **** 
 643:Libraries/STM32F10x_StdPeriph_Driver/src/stm32f10x_flash.c ****   /* Wait for last operation to be completed */
 644:Libraries/STM32F10x_StdPeriph_Driver/src/stm32f10x_flash.c ****   status = FLASH_WaitForLastOperation(EraseTimeout);
 645:Libraries/STM32F10x_StdPeriph_Driver/src/stm32f10x_flash.c ****   if(status == FLASH_COMPLETE)
 646:Libraries/STM32F10x_StdPeriph_Driver/src/stm32f10x_flash.c ****   {
 647:Libraries/STM32F10x_StdPeriph_Driver/src/stm32f10x_flash.c ****     /* Authorize the small information block programming */
 648:Libraries/STM32F10x_StdPeriph_Driver/src/stm32f10x_flash.c ****     FLASH->OPTKEYR = FLASH_KEY1;
 649:Libraries/STM32F10x_StdPeriph_Driver/src/stm32f10x_flash.c ****     FLASH->OPTKEYR = FLASH_KEY2;
 650:Libraries/STM32F10x_StdPeriph_Driver/src/stm32f10x_flash.c ****     
 651:Libraries/STM32F10x_StdPeriph_Driver/src/stm32f10x_flash.c ****     /* if the previous operation is completed, proceed to erase the option bytes */
 652:Libraries/STM32F10x_StdPeriph_Driver/src/stm32f10x_flash.c ****     FLASH->CR |= CR_OPTER_Set;
 653:Libraries/STM32F10x_StdPeriph_Driver/src/stm32f10x_flash.c ****     FLASH->CR |= CR_STRT_Set;
 654:Libraries/STM32F10x_StdPeriph_Driver/src/stm32f10x_flash.c ****     /* Wait for last operation to be completed */
 655:Libraries/STM32F10x_StdPeriph_Driver/src/stm32f10x_flash.c ****     status = FLASH_WaitForLastOperation(EraseTimeout);
 656:Libraries/STM32F10x_StdPeriph_Driver/src/stm32f10x_flash.c ****     
 657:Libraries/STM32F10x_StdPeriph_Driver/src/stm32f10x_flash.c ****     if(status == FLASH_COMPLETE)
 658:Libraries/STM32F10x_StdPeriph_Driver/src/stm32f10x_flash.c ****     {
 659:Libraries/STM32F10x_StdPeriph_Driver/src/stm32f10x_flash.c ****       /* if the erase operation is completed, disable the OPTER Bit */
 660:Libraries/STM32F10x_StdPeriph_Driver/src/stm32f10x_flash.c ****       FLASH->CR &= CR_OPTER_Reset;
 661:Libraries/STM32F10x_StdPeriph_Driver/src/stm32f10x_flash.c ****        
 662:Libraries/STM32F10x_StdPeriph_Driver/src/stm32f10x_flash.c ****       /* Enable the Option Bytes Programming operation */
 663:Libraries/STM32F10x_StdPeriph_Driver/src/stm32f10x_flash.c ****       FLASH->CR |= CR_OPTPG_Set;
 664:Libraries/STM32F10x_StdPeriph_Driver/src/stm32f10x_flash.c ****       /* Restore the last read protection Option Byte value */
 665:Libraries/STM32F10x_StdPeriph_Driver/src/stm32f10x_flash.c ****       OB->RDP = (uint16_t)rdptmp; 
 666:Libraries/STM32F10x_StdPeriph_Driver/src/stm32f10x_flash.c ****       /* Wait for last operation to be completed */
 667:Libraries/STM32F10x_StdPeriph_Driver/src/stm32f10x_flash.c ****       status = FLASH_WaitForLastOperation(ProgramTimeout);
 668:Libraries/STM32F10x_StdPeriph_Driver/src/stm32f10x_flash.c ****  
 669:Libraries/STM32F10x_StdPeriph_Driver/src/stm32f10x_flash.c ****       if(status != FLASH_TIMEOUT)
 670:Libraries/STM32F10x_StdPeriph_Driver/src/stm32f10x_flash.c ****       {
 671:Libraries/STM32F10x_StdPeriph_Driver/src/stm32f10x_flash.c ****         /* if the program operation is completed, disable the OPTPG Bit */
 672:Libraries/STM32F10x_StdPeriph_Driver/src/stm32f10x_flash.c ****         FLASH->CR &= CR_OPTPG_Reset;
 673:Libraries/STM32F10x_StdPeriph_Driver/src/stm32f10x_flash.c ****       }
 674:Libraries/STM32F10x_StdPeriph_Driver/src/stm32f10x_flash.c ****     }
 675:Libraries/STM32F10x_StdPeriph_Driver/src/stm32f10x_flash.c ****     else
 676:Libraries/STM32F10x_StdPeriph_Driver/src/stm32f10x_flash.c ****     {
 677:Libraries/STM32F10x_StdPeriph_Driver/src/stm32f10x_flash.c ****       if (status != FLASH_TIMEOUT)
 678:Libraries/STM32F10x_StdPeriph_Driver/src/stm32f10x_flash.c ****       {
 679:Libraries/STM32F10x_StdPeriph_Driver/src/stm32f10x_flash.c ****         /* Disable the OPTPG Bit */
 680:Libraries/STM32F10x_StdPeriph_Driver/src/stm32f10x_flash.c ****         FLASH->CR &= CR_OPTPG_Reset;
 681:Libraries/STM32F10x_StdPeriph_Driver/src/stm32f10x_flash.c ****       }
 682:Libraries/STM32F10x_StdPeriph_Driver/src/stm32f10x_flash.c ****     }  
 683:Libraries/STM32F10x_StdPeriph_Driver/src/stm32f10x_flash.c ****   }
 684:Libraries/STM32F10x_StdPeriph_Driver/src/stm32f10x_flash.c ****   /* Return the erase status */
 685:Libraries/STM32F10x_StdPeriph_Driver/src/stm32f10x_flash.c ****   return status;
 686:Libraries/STM32F10x_StdPeriph_Driver/src/stm32f10x_flash.c **** }
 687:Libraries/STM32F10x_StdPeriph_Driver/src/stm32f10x_flash.c **** 
 688:Libraries/STM32F10x_StdPeriph_Driver/src/stm32f10x_flash.c **** /**
 689:Libraries/STM32F10x_StdPeriph_Driver/src/stm32f10x_flash.c ****   * @brief  Programs a word at a specified address.
 690:Libraries/STM32F10x_StdPeriph_Driver/src/stm32f10x_flash.c ****   * @note   This function can be used for all STM32F10x devices.
 691:Libraries/STM32F10x_StdPeriph_Driver/src/stm32f10x_flash.c ****   * @param  Address: specifies the address to be programmed.
 692:Libraries/STM32F10x_StdPeriph_Driver/src/stm32f10x_flash.c ****   * @param  Data: specifies the data to be programmed.
 693:Libraries/STM32F10x_StdPeriph_Driver/src/stm32f10x_flash.c ****   * @retval FLASH Status: The returned value can be: FLASH_ERROR_PG,
 694:Libraries/STM32F10x_StdPeriph_Driver/src/stm32f10x_flash.c ****   *   FLASH_ERROR_WRP, FLASH_COMPLETE or FLASH_TIMEOUT. 
 695:Libraries/STM32F10x_StdPeriph_Driver/src/stm32f10x_flash.c ****   */
 696:Libraries/STM32F10x_StdPeriph_Driver/src/stm32f10x_flash.c **** FLASH_Status FLASH_ProgramWord(uint32_t Address, uint32_t Data)
 697:Libraries/STM32F10x_StdPeriph_Driver/src/stm32f10x_flash.c **** {
 698:Libraries/STM32F10x_StdPeriph_Driver/src/stm32f10x_flash.c ****   FLASH_Status status = FLASH_COMPLETE;
 699:Libraries/STM32F10x_StdPeriph_Driver/src/stm32f10x_flash.c ****   __IO uint32_t tmp = 0;
 700:Libraries/STM32F10x_StdPeriph_Driver/src/stm32f10x_flash.c **** 
 701:Libraries/STM32F10x_StdPeriph_Driver/src/stm32f10x_flash.c ****   /* Check the parameters */
 702:Libraries/STM32F10x_StdPeriph_Driver/src/stm32f10x_flash.c ****   assert_param(IS_FLASH_ADDRESS(Address));
 703:Libraries/STM32F10x_StdPeriph_Driver/src/stm32f10x_flash.c **** 
 704:Libraries/STM32F10x_StdPeriph_Driver/src/stm32f10x_flash.c **** #ifdef STM32F10X_XL
 705:Libraries/STM32F10x_StdPeriph_Driver/src/stm32f10x_flash.c ****   if(Address < FLASH_BANK1_END_ADDRESS - 2)
 706:Libraries/STM32F10x_StdPeriph_Driver/src/stm32f10x_flash.c ****   { 
 707:Libraries/STM32F10x_StdPeriph_Driver/src/stm32f10x_flash.c ****     /* Wait for last operation to be completed */
 708:Libraries/STM32F10x_StdPeriph_Driver/src/stm32f10x_flash.c ****     status = FLASH_WaitForLastBank1Operation(ProgramTimeout); 
 709:Libraries/STM32F10x_StdPeriph_Driver/src/stm32f10x_flash.c ****     if(status == FLASH_COMPLETE)
 710:Libraries/STM32F10x_StdPeriph_Driver/src/stm32f10x_flash.c ****     {
 711:Libraries/STM32F10x_StdPeriph_Driver/src/stm32f10x_flash.c ****       /* if the previous operation is completed, proceed to program the new first 
 712:Libraries/STM32F10x_StdPeriph_Driver/src/stm32f10x_flash.c ****         half word */
 713:Libraries/STM32F10x_StdPeriph_Driver/src/stm32f10x_flash.c ****       FLASH->CR |= CR_PG_Set;
 714:Libraries/STM32F10x_StdPeriph_Driver/src/stm32f10x_flash.c ****   
 715:Libraries/STM32F10x_StdPeriph_Driver/src/stm32f10x_flash.c ****       *(__IO uint16_t*)Address = (uint16_t)Data;
 716:Libraries/STM32F10x_StdPeriph_Driver/src/stm32f10x_flash.c ****       /* Wait for last operation to be completed */
 717:Libraries/STM32F10x_StdPeriph_Driver/src/stm32f10x_flash.c ****       status = FLASH_WaitForLastOperation(ProgramTimeout);
 718:Libraries/STM32F10x_StdPeriph_Driver/src/stm32f10x_flash.c ****  
 719:Libraries/STM32F10x_StdPeriph_Driver/src/stm32f10x_flash.c ****       if(status == FLASH_COMPLETE)
 720:Libraries/STM32F10x_StdPeriph_Driver/src/stm32f10x_flash.c ****       {
 721:Libraries/STM32F10x_StdPeriph_Driver/src/stm32f10x_flash.c ****         /* if the previous operation is completed, proceed to program the new second 
 722:Libraries/STM32F10x_StdPeriph_Driver/src/stm32f10x_flash.c ****         half word */
 723:Libraries/STM32F10x_StdPeriph_Driver/src/stm32f10x_flash.c ****         tmp = Address + 2;
 724:Libraries/STM32F10x_StdPeriph_Driver/src/stm32f10x_flash.c **** 
 725:Libraries/STM32F10x_StdPeriph_Driver/src/stm32f10x_flash.c ****         *(__IO uint16_t*) tmp = Data >> 16;
 726:Libraries/STM32F10x_StdPeriph_Driver/src/stm32f10x_flash.c ****     
 727:Libraries/STM32F10x_StdPeriph_Driver/src/stm32f10x_flash.c ****         /* Wait for last operation to be completed */
 728:Libraries/STM32F10x_StdPeriph_Driver/src/stm32f10x_flash.c ****         status = FLASH_WaitForLastOperation(ProgramTimeout);
 729:Libraries/STM32F10x_StdPeriph_Driver/src/stm32f10x_flash.c ****         
 730:Libraries/STM32F10x_StdPeriph_Driver/src/stm32f10x_flash.c ****         if(status != FLASH_TIMEOUT)
 731:Libraries/STM32F10x_StdPeriph_Driver/src/stm32f10x_flash.c ****         {
 732:Libraries/STM32F10x_StdPeriph_Driver/src/stm32f10x_flash.c ****           /* Disable the PG Bit */
 733:Libraries/STM32F10x_StdPeriph_Driver/src/stm32f10x_flash.c ****           FLASH->CR &= CR_PG_Reset;
 734:Libraries/STM32F10x_StdPeriph_Driver/src/stm32f10x_flash.c ****         }
 735:Libraries/STM32F10x_StdPeriph_Driver/src/stm32f10x_flash.c ****       }
 736:Libraries/STM32F10x_StdPeriph_Driver/src/stm32f10x_flash.c ****       else
 737:Libraries/STM32F10x_StdPeriph_Driver/src/stm32f10x_flash.c ****       {
 738:Libraries/STM32F10x_StdPeriph_Driver/src/stm32f10x_flash.c ****         if (status != FLASH_TIMEOUT)
 739:Libraries/STM32F10x_StdPeriph_Driver/src/stm32f10x_flash.c ****         {
 740:Libraries/STM32F10x_StdPeriph_Driver/src/stm32f10x_flash.c ****           /* Disable the PG Bit */
 741:Libraries/STM32F10x_StdPeriph_Driver/src/stm32f10x_flash.c ****           FLASH->CR &= CR_PG_Reset;
 742:Libraries/STM32F10x_StdPeriph_Driver/src/stm32f10x_flash.c ****         }
 743:Libraries/STM32F10x_StdPeriph_Driver/src/stm32f10x_flash.c ****        }
 744:Libraries/STM32F10x_StdPeriph_Driver/src/stm32f10x_flash.c ****     }
 745:Libraries/STM32F10x_StdPeriph_Driver/src/stm32f10x_flash.c ****   }
 746:Libraries/STM32F10x_StdPeriph_Driver/src/stm32f10x_flash.c ****   else if(Address == (FLASH_BANK1_END_ADDRESS - 1))
 747:Libraries/STM32F10x_StdPeriph_Driver/src/stm32f10x_flash.c ****   {
 748:Libraries/STM32F10x_StdPeriph_Driver/src/stm32f10x_flash.c ****     /* Wait for last operation to be completed */
 749:Libraries/STM32F10x_StdPeriph_Driver/src/stm32f10x_flash.c ****     status = FLASH_WaitForLastBank1Operation(ProgramTimeout);
 750:Libraries/STM32F10x_StdPeriph_Driver/src/stm32f10x_flash.c **** 
 751:Libraries/STM32F10x_StdPeriph_Driver/src/stm32f10x_flash.c ****     if(status == FLASH_COMPLETE)
 752:Libraries/STM32F10x_StdPeriph_Driver/src/stm32f10x_flash.c ****     {
 753:Libraries/STM32F10x_StdPeriph_Driver/src/stm32f10x_flash.c ****       /* if the previous operation is completed, proceed to program the new first 
 754:Libraries/STM32F10x_StdPeriph_Driver/src/stm32f10x_flash.c ****         half word */
 755:Libraries/STM32F10x_StdPeriph_Driver/src/stm32f10x_flash.c ****       FLASH->CR |= CR_PG_Set;
 756:Libraries/STM32F10x_StdPeriph_Driver/src/stm32f10x_flash.c ****   
 757:Libraries/STM32F10x_StdPeriph_Driver/src/stm32f10x_flash.c ****       *(__IO uint16_t*)Address = (uint16_t)Data;
 758:Libraries/STM32F10x_StdPeriph_Driver/src/stm32f10x_flash.c **** 
 759:Libraries/STM32F10x_StdPeriph_Driver/src/stm32f10x_flash.c ****       /* Wait for last operation to be completed */
 760:Libraries/STM32F10x_StdPeriph_Driver/src/stm32f10x_flash.c ****       status = FLASH_WaitForLastBank1Operation(ProgramTimeout);
 761:Libraries/STM32F10x_StdPeriph_Driver/src/stm32f10x_flash.c **** 
 762:Libraries/STM32F10x_StdPeriph_Driver/src/stm32f10x_flash.c ****       if(status != FLASH_TIMEOUT)
 763:Libraries/STM32F10x_StdPeriph_Driver/src/stm32f10x_flash.c ****       {
 764:Libraries/STM32F10x_StdPeriph_Driver/src/stm32f10x_flash.c ****         /* Disable the PG Bit */
 765:Libraries/STM32F10x_StdPeriph_Driver/src/stm32f10x_flash.c ****         FLASH->CR &= CR_PG_Reset;
 766:Libraries/STM32F10x_StdPeriph_Driver/src/stm32f10x_flash.c ****       }
 767:Libraries/STM32F10x_StdPeriph_Driver/src/stm32f10x_flash.c ****     }
 768:Libraries/STM32F10x_StdPeriph_Driver/src/stm32f10x_flash.c ****     else
 769:Libraries/STM32F10x_StdPeriph_Driver/src/stm32f10x_flash.c ****     {
 770:Libraries/STM32F10x_StdPeriph_Driver/src/stm32f10x_flash.c ****       if (status != FLASH_TIMEOUT)
 771:Libraries/STM32F10x_StdPeriph_Driver/src/stm32f10x_flash.c ****       {
 772:Libraries/STM32F10x_StdPeriph_Driver/src/stm32f10x_flash.c ****         /* Disable the PG Bit */
 773:Libraries/STM32F10x_StdPeriph_Driver/src/stm32f10x_flash.c ****         FLASH->CR &= CR_PG_Reset;
 774:Libraries/STM32F10x_StdPeriph_Driver/src/stm32f10x_flash.c ****       }
 775:Libraries/STM32F10x_StdPeriph_Driver/src/stm32f10x_flash.c ****     }
 776:Libraries/STM32F10x_StdPeriph_Driver/src/stm32f10x_flash.c **** 
 777:Libraries/STM32F10x_StdPeriph_Driver/src/stm32f10x_flash.c ****     /* Wait for last operation to be completed */
 778:Libraries/STM32F10x_StdPeriph_Driver/src/stm32f10x_flash.c ****     status = FLASH_WaitForLastBank2Operation(ProgramTimeout);
 779:Libraries/STM32F10x_StdPeriph_Driver/src/stm32f10x_flash.c **** 
 780:Libraries/STM32F10x_StdPeriph_Driver/src/stm32f10x_flash.c ****     if(status == FLASH_COMPLETE)
 781:Libraries/STM32F10x_StdPeriph_Driver/src/stm32f10x_flash.c ****     {
 782:Libraries/STM32F10x_StdPeriph_Driver/src/stm32f10x_flash.c ****       /* if the previous operation is completed, proceed to program the new second 
 783:Libraries/STM32F10x_StdPeriph_Driver/src/stm32f10x_flash.c ****       half word */
 784:Libraries/STM32F10x_StdPeriph_Driver/src/stm32f10x_flash.c ****       FLASH->CR2 |= CR_PG_Set;
 785:Libraries/STM32F10x_StdPeriph_Driver/src/stm32f10x_flash.c ****       tmp = Address + 2;
 786:Libraries/STM32F10x_StdPeriph_Driver/src/stm32f10x_flash.c **** 
 787:Libraries/STM32F10x_StdPeriph_Driver/src/stm32f10x_flash.c ****       *(__IO uint16_t*) tmp = Data >> 16;
 788:Libraries/STM32F10x_StdPeriph_Driver/src/stm32f10x_flash.c ****     
 789:Libraries/STM32F10x_StdPeriph_Driver/src/stm32f10x_flash.c ****       /* Wait for last operation to be completed */
 790:Libraries/STM32F10x_StdPeriph_Driver/src/stm32f10x_flash.c ****       status = FLASH_WaitForLastBank2Operation(ProgramTimeout);
 791:Libraries/STM32F10x_StdPeriph_Driver/src/stm32f10x_flash.c ****         
 792:Libraries/STM32F10x_StdPeriph_Driver/src/stm32f10x_flash.c ****       if(status != FLASH_TIMEOUT)
 793:Libraries/STM32F10x_StdPeriph_Driver/src/stm32f10x_flash.c ****       {
 794:Libraries/STM32F10x_StdPeriph_Driver/src/stm32f10x_flash.c ****         /* Disable the PG Bit */
 795:Libraries/STM32F10x_StdPeriph_Driver/src/stm32f10x_flash.c ****         FLASH->CR2 &= CR_PG_Reset;
 796:Libraries/STM32F10x_StdPeriph_Driver/src/stm32f10x_flash.c ****       }
 797:Libraries/STM32F10x_StdPeriph_Driver/src/stm32f10x_flash.c ****     }
 798:Libraries/STM32F10x_StdPeriph_Driver/src/stm32f10x_flash.c ****     else
 799:Libraries/STM32F10x_StdPeriph_Driver/src/stm32f10x_flash.c ****     {
 800:Libraries/STM32F10x_StdPeriph_Driver/src/stm32f10x_flash.c ****       if (status != FLASH_TIMEOUT)
 801:Libraries/STM32F10x_StdPeriph_Driver/src/stm32f10x_flash.c ****       {
 802:Libraries/STM32F10x_StdPeriph_Driver/src/stm32f10x_flash.c ****         /* Disable the PG Bit */
 803:Libraries/STM32F10x_StdPeriph_Driver/src/stm32f10x_flash.c ****         FLASH->CR2 &= CR_PG_Reset;
 804:Libraries/STM32F10x_StdPeriph_Driver/src/stm32f10x_flash.c ****       }
 805:Libraries/STM32F10x_StdPeriph_Driver/src/stm32f10x_flash.c ****     }
 806:Libraries/STM32F10x_StdPeriph_Driver/src/stm32f10x_flash.c ****   }
 807:Libraries/STM32F10x_StdPeriph_Driver/src/stm32f10x_flash.c ****   else
 808:Libraries/STM32F10x_StdPeriph_Driver/src/stm32f10x_flash.c ****   {
 809:Libraries/STM32F10x_StdPeriph_Driver/src/stm32f10x_flash.c ****     /* Wait for last operation to be completed */
 810:Libraries/STM32F10x_StdPeriph_Driver/src/stm32f10x_flash.c ****     status = FLASH_WaitForLastBank2Operation(ProgramTimeout);
 811:Libraries/STM32F10x_StdPeriph_Driver/src/stm32f10x_flash.c **** 
 812:Libraries/STM32F10x_StdPeriph_Driver/src/stm32f10x_flash.c ****     if(status == FLASH_COMPLETE)
 813:Libraries/STM32F10x_StdPeriph_Driver/src/stm32f10x_flash.c ****     {
 814:Libraries/STM32F10x_StdPeriph_Driver/src/stm32f10x_flash.c ****       /* if the previous operation is completed, proceed to program the new first 
 815:Libraries/STM32F10x_StdPeriph_Driver/src/stm32f10x_flash.c ****         half word */
 816:Libraries/STM32F10x_StdPeriph_Driver/src/stm32f10x_flash.c ****       FLASH->CR2 |= CR_PG_Set;
 817:Libraries/STM32F10x_StdPeriph_Driver/src/stm32f10x_flash.c ****   
 818:Libraries/STM32F10x_StdPeriph_Driver/src/stm32f10x_flash.c ****       *(__IO uint16_t*)Address = (uint16_t)Data;
 819:Libraries/STM32F10x_StdPeriph_Driver/src/stm32f10x_flash.c ****       /* Wait for last operation to be completed */
 820:Libraries/STM32F10x_StdPeriph_Driver/src/stm32f10x_flash.c ****       status = FLASH_WaitForLastBank2Operation(ProgramTimeout);
 821:Libraries/STM32F10x_StdPeriph_Driver/src/stm32f10x_flash.c ****  
 822:Libraries/STM32F10x_StdPeriph_Driver/src/stm32f10x_flash.c ****       if(status == FLASH_COMPLETE)
 823:Libraries/STM32F10x_StdPeriph_Driver/src/stm32f10x_flash.c ****       {
 824:Libraries/STM32F10x_StdPeriph_Driver/src/stm32f10x_flash.c ****         /* if the previous operation is completed, proceed to program the new second 
 825:Libraries/STM32F10x_StdPeriph_Driver/src/stm32f10x_flash.c ****         half word */
 826:Libraries/STM32F10x_StdPeriph_Driver/src/stm32f10x_flash.c ****         tmp = Address + 2;
 827:Libraries/STM32F10x_StdPeriph_Driver/src/stm32f10x_flash.c **** 
 828:Libraries/STM32F10x_StdPeriph_Driver/src/stm32f10x_flash.c ****         *(__IO uint16_t*) tmp = Data >> 16;
 829:Libraries/STM32F10x_StdPeriph_Driver/src/stm32f10x_flash.c ****     
 830:Libraries/STM32F10x_StdPeriph_Driver/src/stm32f10x_flash.c ****         /* Wait for last operation to be completed */
 831:Libraries/STM32F10x_StdPeriph_Driver/src/stm32f10x_flash.c ****         status = FLASH_WaitForLastBank2Operation(ProgramTimeout);
 832:Libraries/STM32F10x_StdPeriph_Driver/src/stm32f10x_flash.c ****         
 833:Libraries/STM32F10x_StdPeriph_Driver/src/stm32f10x_flash.c ****         if(status != FLASH_TIMEOUT)
 834:Libraries/STM32F10x_StdPeriph_Driver/src/stm32f10x_flash.c ****         {
 835:Libraries/STM32F10x_StdPeriph_Driver/src/stm32f10x_flash.c ****           /* Disable the PG Bit */
 836:Libraries/STM32F10x_StdPeriph_Driver/src/stm32f10x_flash.c ****           FLASH->CR2 &= CR_PG_Reset;
 837:Libraries/STM32F10x_StdPeriph_Driver/src/stm32f10x_flash.c ****         }
 838:Libraries/STM32F10x_StdPeriph_Driver/src/stm32f10x_flash.c ****       }
 839:Libraries/STM32F10x_StdPeriph_Driver/src/stm32f10x_flash.c ****       else
 840:Libraries/STM32F10x_StdPeriph_Driver/src/stm32f10x_flash.c ****       {
 841:Libraries/STM32F10x_StdPeriph_Driver/src/stm32f10x_flash.c ****         if (status != FLASH_TIMEOUT)
 842:Libraries/STM32F10x_StdPeriph_Driver/src/stm32f10x_flash.c ****         {
 843:Libraries/STM32F10x_StdPeriph_Driver/src/stm32f10x_flash.c ****           /* Disable the PG Bit */
 844:Libraries/STM32F10x_StdPeriph_Driver/src/stm32f10x_flash.c ****           FLASH->CR2 &= CR_PG_Reset;
 845:Libraries/STM32F10x_StdPeriph_Driver/src/stm32f10x_flash.c ****         }
 846:Libraries/STM32F10x_StdPeriph_Driver/src/stm32f10x_flash.c ****       }
 847:Libraries/STM32F10x_StdPeriph_Driver/src/stm32f10x_flash.c ****     }
 848:Libraries/STM32F10x_StdPeriph_Driver/src/stm32f10x_flash.c ****   }
 849:Libraries/STM32F10x_StdPeriph_Driver/src/stm32f10x_flash.c **** #else
 850:Libraries/STM32F10x_StdPeriph_Driver/src/stm32f10x_flash.c ****   /* Wait for last operation to be completed */
 851:Libraries/STM32F10x_StdPeriph_Driver/src/stm32f10x_flash.c ****   status = FLASH_WaitForLastOperation(ProgramTimeout);
 852:Libraries/STM32F10x_StdPeriph_Driver/src/stm32f10x_flash.c ****   
 853:Libraries/STM32F10x_StdPeriph_Driver/src/stm32f10x_flash.c ****   if(status == FLASH_COMPLETE)
 854:Libraries/STM32F10x_StdPeriph_Driver/src/stm32f10x_flash.c ****   {
 855:Libraries/STM32F10x_StdPeriph_Driver/src/stm32f10x_flash.c ****     /* if the previous operation is completed, proceed to program the new first 
 856:Libraries/STM32F10x_StdPeriph_Driver/src/stm32f10x_flash.c ****     half word */
 857:Libraries/STM32F10x_StdPeriph_Driver/src/stm32f10x_flash.c ****     FLASH->CR |= CR_PG_Set;
 858:Libraries/STM32F10x_StdPeriph_Driver/src/stm32f10x_flash.c ****   
 859:Libraries/STM32F10x_StdPeriph_Driver/src/stm32f10x_flash.c ****     *(__IO uint16_t*)Address = (uint16_t)Data;
 860:Libraries/STM32F10x_StdPeriph_Driver/src/stm32f10x_flash.c ****     /* Wait for last operation to be completed */
 861:Libraries/STM32F10x_StdPeriph_Driver/src/stm32f10x_flash.c ****     status = FLASH_WaitForLastOperation(ProgramTimeout);
 862:Libraries/STM32F10x_StdPeriph_Driver/src/stm32f10x_flash.c ****  
 863:Libraries/STM32F10x_StdPeriph_Driver/src/stm32f10x_flash.c ****     if(status == FLASH_COMPLETE)
 864:Libraries/STM32F10x_StdPeriph_Driver/src/stm32f10x_flash.c ****     {
 865:Libraries/STM32F10x_StdPeriph_Driver/src/stm32f10x_flash.c ****       /* if the previous operation is completed, proceed to program the new second 
 866:Libraries/STM32F10x_StdPeriph_Driver/src/stm32f10x_flash.c ****       half word */
 867:Libraries/STM32F10x_StdPeriph_Driver/src/stm32f10x_flash.c ****       tmp = Address + 2;
 868:Libraries/STM32F10x_StdPeriph_Driver/src/stm32f10x_flash.c **** 
 869:Libraries/STM32F10x_StdPeriph_Driver/src/stm32f10x_flash.c ****       *(__IO uint16_t*) tmp = Data >> 16;
 870:Libraries/STM32F10x_StdPeriph_Driver/src/stm32f10x_flash.c ****     
 871:Libraries/STM32F10x_StdPeriph_Driver/src/stm32f10x_flash.c ****       /* Wait for last operation to be completed */
 872:Libraries/STM32F10x_StdPeriph_Driver/src/stm32f10x_flash.c ****       status = FLASH_WaitForLastOperation(ProgramTimeout);
 873:Libraries/STM32F10x_StdPeriph_Driver/src/stm32f10x_flash.c ****         
 874:Libraries/STM32F10x_StdPeriph_Driver/src/stm32f10x_flash.c ****       if(status != FLASH_TIMEOUT)
 875:Libraries/STM32F10x_StdPeriph_Driver/src/stm32f10x_flash.c ****       {
 876:Libraries/STM32F10x_StdPeriph_Driver/src/stm32f10x_flash.c ****         /* Disable the PG Bit */
 877:Libraries/STM32F10x_StdPeriph_Driver/src/stm32f10x_flash.c ****         FLASH->CR &= CR_PG_Reset;
 878:Libraries/STM32F10x_StdPeriph_Driver/src/stm32f10x_flash.c ****       }
 879:Libraries/STM32F10x_StdPeriph_Driver/src/stm32f10x_flash.c ****     }
 880:Libraries/STM32F10x_StdPeriph_Driver/src/stm32f10x_flash.c ****     else
 881:Libraries/STM32F10x_StdPeriph_Driver/src/stm32f10x_flash.c ****     {
 882:Libraries/STM32F10x_StdPeriph_Driver/src/stm32f10x_flash.c ****       if (status != FLASH_TIMEOUT)
 883:Libraries/STM32F10x_StdPeriph_Driver/src/stm32f10x_flash.c ****       {
 884:Libraries/STM32F10x_StdPeriph_Driver/src/stm32f10x_flash.c ****         /* Disable the PG Bit */
 885:Libraries/STM32F10x_StdPeriph_Driver/src/stm32f10x_flash.c ****         FLASH->CR &= CR_PG_Reset;
 886:Libraries/STM32F10x_StdPeriph_Driver/src/stm32f10x_flash.c ****       }
 887:Libraries/STM32F10x_StdPeriph_Driver/src/stm32f10x_flash.c ****     }
 888:Libraries/STM32F10x_StdPeriph_Driver/src/stm32f10x_flash.c ****   }         
 889:Libraries/STM32F10x_StdPeriph_Driver/src/stm32f10x_flash.c **** #endif /* STM32F10X_XL */
 890:Libraries/STM32F10x_StdPeriph_Driver/src/stm32f10x_flash.c ****    
 891:Libraries/STM32F10x_StdPeriph_Driver/src/stm32f10x_flash.c ****   /* Return the Program Status */
 892:Libraries/STM32F10x_StdPeriph_Driver/src/stm32f10x_flash.c ****   return status;
 893:Libraries/STM32F10x_StdPeriph_Driver/src/stm32f10x_flash.c **** }
 894:Libraries/STM32F10x_StdPeriph_Driver/src/stm32f10x_flash.c **** 
 895:Libraries/STM32F10x_StdPeriph_Driver/src/stm32f10x_flash.c **** /**
 896:Libraries/STM32F10x_StdPeriph_Driver/src/stm32f10x_flash.c ****   * @brief  Programs a half word at a specified address.
 897:Libraries/STM32F10x_StdPeriph_Driver/src/stm32f10x_flash.c ****   * @note   This function can be used for all STM32F10x devices.
 898:Libraries/STM32F10x_StdPeriph_Driver/src/stm32f10x_flash.c ****   * @param  Address: specifies the address to be programmed.
 899:Libraries/STM32F10x_StdPeriph_Driver/src/stm32f10x_flash.c ****   * @param  Data: specifies the data to be programmed.
 900:Libraries/STM32F10x_StdPeriph_Driver/src/stm32f10x_flash.c ****   * @retval FLASH Status: The returned value can be: FLASH_ERROR_PG,
 901:Libraries/STM32F10x_StdPeriph_Driver/src/stm32f10x_flash.c ****   *   FLASH_ERROR_WRP, FLASH_COMPLETE or FLASH_TIMEOUT. 
 902:Libraries/STM32F10x_StdPeriph_Driver/src/stm32f10x_flash.c ****   */
 903:Libraries/STM32F10x_StdPeriph_Driver/src/stm32f10x_flash.c **** FLASH_Status FLASH_ProgramHalfWord(uint32_t Address, uint16_t Data)
 904:Libraries/STM32F10x_StdPeriph_Driver/src/stm32f10x_flash.c **** {
 905:Libraries/STM32F10x_StdPeriph_Driver/src/stm32f10x_flash.c ****   FLASH_Status status = FLASH_COMPLETE;
 906:Libraries/STM32F10x_StdPeriph_Driver/src/stm32f10x_flash.c ****   /* Check the parameters */
 907:Libraries/STM32F10x_StdPeriph_Driver/src/stm32f10x_flash.c ****   assert_param(IS_FLASH_ADDRESS(Address));
 908:Libraries/STM32F10x_StdPeriph_Driver/src/stm32f10x_flash.c **** 
 909:Libraries/STM32F10x_StdPeriph_Driver/src/stm32f10x_flash.c **** #ifdef STM32F10X_XL
 910:Libraries/STM32F10x_StdPeriph_Driver/src/stm32f10x_flash.c ****   /* Wait for last operation to be completed */
 911:Libraries/STM32F10x_StdPeriph_Driver/src/stm32f10x_flash.c ****   status = FLASH_WaitForLastOperation(ProgramTimeout);
 912:Libraries/STM32F10x_StdPeriph_Driver/src/stm32f10x_flash.c ****   
 913:Libraries/STM32F10x_StdPeriph_Driver/src/stm32f10x_flash.c ****   if(Address < FLASH_BANK1_END_ADDRESS)
 914:Libraries/STM32F10x_StdPeriph_Driver/src/stm32f10x_flash.c ****   {
 915:Libraries/STM32F10x_StdPeriph_Driver/src/stm32f10x_flash.c ****     if(status == FLASH_COMPLETE)
 916:Libraries/STM32F10x_StdPeriph_Driver/src/stm32f10x_flash.c ****     {
 917:Libraries/STM32F10x_StdPeriph_Driver/src/stm32f10x_flash.c ****       /* if the previous operation is completed, proceed to program the new data */
 918:Libraries/STM32F10x_StdPeriph_Driver/src/stm32f10x_flash.c ****       FLASH->CR |= CR_PG_Set;
 919:Libraries/STM32F10x_StdPeriph_Driver/src/stm32f10x_flash.c ****   
 920:Libraries/STM32F10x_StdPeriph_Driver/src/stm32f10x_flash.c ****       *(__IO uint16_t*)Address = Data;
 921:Libraries/STM32F10x_StdPeriph_Driver/src/stm32f10x_flash.c ****       /* Wait for last operation to be completed */
 922:Libraries/STM32F10x_StdPeriph_Driver/src/stm32f10x_flash.c ****       status = FLASH_WaitForLastBank1Operation(ProgramTimeout);
 923:Libraries/STM32F10x_StdPeriph_Driver/src/stm32f10x_flash.c ****       if(status != FLASH_TIMEOUT)
 924:Libraries/STM32F10x_StdPeriph_Driver/src/stm32f10x_flash.c ****       {
 925:Libraries/STM32F10x_StdPeriph_Driver/src/stm32f10x_flash.c ****         /* if the program operation is completed, disable the PG Bit */
 926:Libraries/STM32F10x_StdPeriph_Driver/src/stm32f10x_flash.c ****         FLASH->CR &= CR_PG_Reset;
 927:Libraries/STM32F10x_StdPeriph_Driver/src/stm32f10x_flash.c ****       }
 928:Libraries/STM32F10x_StdPeriph_Driver/src/stm32f10x_flash.c ****     }
 929:Libraries/STM32F10x_StdPeriph_Driver/src/stm32f10x_flash.c ****   }
 930:Libraries/STM32F10x_StdPeriph_Driver/src/stm32f10x_flash.c ****   else
 931:Libraries/STM32F10x_StdPeriph_Driver/src/stm32f10x_flash.c ****   {
 932:Libraries/STM32F10x_StdPeriph_Driver/src/stm32f10x_flash.c ****     if(status == FLASH_COMPLETE)
 933:Libraries/STM32F10x_StdPeriph_Driver/src/stm32f10x_flash.c ****     {
 934:Libraries/STM32F10x_StdPeriph_Driver/src/stm32f10x_flash.c ****       /* if the previous operation is completed, proceed to program the new data */
 935:Libraries/STM32F10x_StdPeriph_Driver/src/stm32f10x_flash.c ****       FLASH->CR2 |= CR_PG_Set;
 936:Libraries/STM32F10x_StdPeriph_Driver/src/stm32f10x_flash.c ****   
 937:Libraries/STM32F10x_StdPeriph_Driver/src/stm32f10x_flash.c ****       *(__IO uint16_t*)Address = Data;
 938:Libraries/STM32F10x_StdPeriph_Driver/src/stm32f10x_flash.c ****       /* Wait for last operation to be completed */
 939:Libraries/STM32F10x_StdPeriph_Driver/src/stm32f10x_flash.c ****       status = FLASH_WaitForLastBank2Operation(ProgramTimeout);
 940:Libraries/STM32F10x_StdPeriph_Driver/src/stm32f10x_flash.c ****       if(status != FLASH_TIMEOUT)
 941:Libraries/STM32F10x_StdPeriph_Driver/src/stm32f10x_flash.c ****       {
 942:Libraries/STM32F10x_StdPeriph_Driver/src/stm32f10x_flash.c ****         /* if the program operation is completed, disable the PG Bit */
 943:Libraries/STM32F10x_StdPeriph_Driver/src/stm32f10x_flash.c ****         FLASH->CR2 &= CR_PG_Reset;
 944:Libraries/STM32F10x_StdPeriph_Driver/src/stm32f10x_flash.c ****       }
 945:Libraries/STM32F10x_StdPeriph_Driver/src/stm32f10x_flash.c ****     }
 946:Libraries/STM32F10x_StdPeriph_Driver/src/stm32f10x_flash.c ****   }
 947:Libraries/STM32F10x_StdPeriph_Driver/src/stm32f10x_flash.c **** #else
 948:Libraries/STM32F10x_StdPeriph_Driver/src/stm32f10x_flash.c ****   /* Wait for last operation to be completed */
 949:Libraries/STM32F10x_StdPeriph_Driver/src/stm32f10x_flash.c ****   status = FLASH_WaitForLastOperation(ProgramTimeout);
 950:Libraries/STM32F10x_StdPeriph_Driver/src/stm32f10x_flash.c ****   
 951:Libraries/STM32F10x_StdPeriph_Driver/src/stm32f10x_flash.c ****   if(status == FLASH_COMPLETE)
 952:Libraries/STM32F10x_StdPeriph_Driver/src/stm32f10x_flash.c ****   {
 953:Libraries/STM32F10x_StdPeriph_Driver/src/stm32f10x_flash.c ****     /* if the previous operation is completed, proceed to program the new data */
 954:Libraries/STM32F10x_StdPeriph_Driver/src/stm32f10x_flash.c ****     FLASH->CR |= CR_PG_Set;
 955:Libraries/STM32F10x_StdPeriph_Driver/src/stm32f10x_flash.c ****   
 956:Libraries/STM32F10x_StdPeriph_Driver/src/stm32f10x_flash.c ****     *(__IO uint16_t*)Address = Data;
 957:Libraries/STM32F10x_StdPeriph_Driver/src/stm32f10x_flash.c ****     /* Wait for last operation to be completed */
 958:Libraries/STM32F10x_StdPeriph_Driver/src/stm32f10x_flash.c ****     status = FLASH_WaitForLastOperation(ProgramTimeout);
 959:Libraries/STM32F10x_StdPeriph_Driver/src/stm32f10x_flash.c ****     if(status != FLASH_TIMEOUT)
 960:Libraries/STM32F10x_StdPeriph_Driver/src/stm32f10x_flash.c ****     {
 961:Libraries/STM32F10x_StdPeriph_Driver/src/stm32f10x_flash.c ****       /* if the program operation is completed, disable the PG Bit */
 962:Libraries/STM32F10x_StdPeriph_Driver/src/stm32f10x_flash.c ****       FLASH->CR &= CR_PG_Reset;
 963:Libraries/STM32F10x_StdPeriph_Driver/src/stm32f10x_flash.c ****     }
 964:Libraries/STM32F10x_StdPeriph_Driver/src/stm32f10x_flash.c ****   } 
 965:Libraries/STM32F10x_StdPeriph_Driver/src/stm32f10x_flash.c **** #endif  /* STM32F10X_XL */
 966:Libraries/STM32F10x_StdPeriph_Driver/src/stm32f10x_flash.c ****   
 967:Libraries/STM32F10x_StdPeriph_Driver/src/stm32f10x_flash.c ****   /* Return the Program Status */
 968:Libraries/STM32F10x_StdPeriph_Driver/src/stm32f10x_flash.c ****   return status;
 969:Libraries/STM32F10x_StdPeriph_Driver/src/stm32f10x_flash.c **** }
 970:Libraries/STM32F10x_StdPeriph_Driver/src/stm32f10x_flash.c **** 
 971:Libraries/STM32F10x_StdPeriph_Driver/src/stm32f10x_flash.c **** /**
 972:Libraries/STM32F10x_StdPeriph_Driver/src/stm32f10x_flash.c ****   * @brief  Programs a half word at a specified Option Byte Data address.
 973:Libraries/STM32F10x_StdPeriph_Driver/src/stm32f10x_flash.c ****   * @note   This function can be used for all STM32F10x devices.
 974:Libraries/STM32F10x_StdPeriph_Driver/src/stm32f10x_flash.c ****   * @param  Address: specifies the address to be programmed.
 975:Libraries/STM32F10x_StdPeriph_Driver/src/stm32f10x_flash.c ****   *   This parameter can be 0x1FFFF804 or 0x1FFFF806. 
 976:Libraries/STM32F10x_StdPeriph_Driver/src/stm32f10x_flash.c ****   * @param  Data: specifies the data to be programmed.
 977:Libraries/STM32F10x_StdPeriph_Driver/src/stm32f10x_flash.c ****   * @retval FLASH Status: The returned value can be: FLASH_ERROR_PG,
 978:Libraries/STM32F10x_StdPeriph_Driver/src/stm32f10x_flash.c ****   *   FLASH_ERROR_WRP, FLASH_COMPLETE or FLASH_TIMEOUT. 
 979:Libraries/STM32F10x_StdPeriph_Driver/src/stm32f10x_flash.c ****   */
 980:Libraries/STM32F10x_StdPeriph_Driver/src/stm32f10x_flash.c **** FLASH_Status FLASH_ProgramOptionByteData(uint32_t Address, uint8_t Data)
 981:Libraries/STM32F10x_StdPeriph_Driver/src/stm32f10x_flash.c **** {
 982:Libraries/STM32F10x_StdPeriph_Driver/src/stm32f10x_flash.c ****   FLASH_Status status = FLASH_COMPLETE;
 983:Libraries/STM32F10x_StdPeriph_Driver/src/stm32f10x_flash.c ****   /* Check the parameters */
 984:Libraries/STM32F10x_StdPeriph_Driver/src/stm32f10x_flash.c ****   assert_param(IS_OB_DATA_ADDRESS(Address));
 985:Libraries/STM32F10x_StdPeriph_Driver/src/stm32f10x_flash.c ****   status = FLASH_WaitForLastOperation(ProgramTimeout);
 986:Libraries/STM32F10x_StdPeriph_Driver/src/stm32f10x_flash.c **** 
 987:Libraries/STM32F10x_StdPeriph_Driver/src/stm32f10x_flash.c ****   if(status == FLASH_COMPLETE)
 988:Libraries/STM32F10x_StdPeriph_Driver/src/stm32f10x_flash.c ****   {
 989:Libraries/STM32F10x_StdPeriph_Driver/src/stm32f10x_flash.c ****     /* Authorize the small information block programming */
 990:Libraries/STM32F10x_StdPeriph_Driver/src/stm32f10x_flash.c ****     FLASH->OPTKEYR = FLASH_KEY1;
 991:Libraries/STM32F10x_StdPeriph_Driver/src/stm32f10x_flash.c ****     FLASH->OPTKEYR = FLASH_KEY2;
 992:Libraries/STM32F10x_StdPeriph_Driver/src/stm32f10x_flash.c ****     /* Enables the Option Bytes Programming operation */
 993:Libraries/STM32F10x_StdPeriph_Driver/src/stm32f10x_flash.c ****     FLASH->CR |= CR_OPTPG_Set; 
 994:Libraries/STM32F10x_StdPeriph_Driver/src/stm32f10x_flash.c ****     *(__IO uint16_t*)Address = Data;
 995:Libraries/STM32F10x_StdPeriph_Driver/src/stm32f10x_flash.c ****     
 996:Libraries/STM32F10x_StdPeriph_Driver/src/stm32f10x_flash.c ****     /* Wait for last operation to be completed */
 997:Libraries/STM32F10x_StdPeriph_Driver/src/stm32f10x_flash.c ****     status = FLASH_WaitForLastOperation(ProgramTimeout);
 998:Libraries/STM32F10x_StdPeriph_Driver/src/stm32f10x_flash.c ****     if(status != FLASH_TIMEOUT)
 999:Libraries/STM32F10x_StdPeriph_Driver/src/stm32f10x_flash.c ****     {
1000:Libraries/STM32F10x_StdPeriph_Driver/src/stm32f10x_flash.c ****       /* if the program operation is completed, disable the OPTPG Bit */
1001:Libraries/STM32F10x_StdPeriph_Driver/src/stm32f10x_flash.c ****       FLASH->CR &= CR_OPTPG_Reset;
1002:Libraries/STM32F10x_StdPeriph_Driver/src/stm32f10x_flash.c ****     }
1003:Libraries/STM32F10x_StdPeriph_Driver/src/stm32f10x_flash.c ****   }
1004:Libraries/STM32F10x_StdPeriph_Driver/src/stm32f10x_flash.c ****   /* Return the Option Byte Data Program Status */
1005:Libraries/STM32F10x_StdPeriph_Driver/src/stm32f10x_flash.c ****   return status;
1006:Libraries/STM32F10x_StdPeriph_Driver/src/stm32f10x_flash.c **** }
1007:Libraries/STM32F10x_StdPeriph_Driver/src/stm32f10x_flash.c **** 
1008:Libraries/STM32F10x_StdPeriph_Driver/src/stm32f10x_flash.c **** /**
1009:Libraries/STM32F10x_StdPeriph_Driver/src/stm32f10x_flash.c ****   * @brief  Write protects the desired pages
1010:Libraries/STM32F10x_StdPeriph_Driver/src/stm32f10x_flash.c ****   * @note   This function can be used for all STM32F10x devices.
1011:Libraries/STM32F10x_StdPeriph_Driver/src/stm32f10x_flash.c ****   * @param  FLASH_Pages: specifies the address of the pages to be write protected.
1012:Libraries/STM32F10x_StdPeriph_Driver/src/stm32f10x_flash.c ****   *   This parameter can be:
1013:Libraries/STM32F10x_StdPeriph_Driver/src/stm32f10x_flash.c ****   *     @arg For @b STM32_Low-density_devices: value between FLASH_WRProt_Pages0to3 and FLASH_WRPro
1014:Libraries/STM32F10x_StdPeriph_Driver/src/stm32f10x_flash.c ****   *     @arg For @b STM32_Medium-density_devices: value between FLASH_WRProt_Pages0to3
1015:Libraries/STM32F10x_StdPeriph_Driver/src/stm32f10x_flash.c ****   *       and FLASH_WRProt_Pages124to127
1016:Libraries/STM32F10x_StdPeriph_Driver/src/stm32f10x_flash.c ****   *     @arg For @b STM32_High-density_devices: value between FLASH_WRProt_Pages0to1 and
1017:Libraries/STM32F10x_StdPeriph_Driver/src/stm32f10x_flash.c ****   *       FLASH_WRProt_Pages60to61 or FLASH_WRProt_Pages62to255
1018:Libraries/STM32F10x_StdPeriph_Driver/src/stm32f10x_flash.c ****   *     @arg For @b STM32_Connectivity_line_devices: value between FLASH_WRProt_Pages0to1 and
1019:Libraries/STM32F10x_StdPeriph_Driver/src/stm32f10x_flash.c ****   *       FLASH_WRProt_Pages60to61 or FLASH_WRProt_Pages62to127    
1020:Libraries/STM32F10x_StdPeriph_Driver/src/stm32f10x_flash.c ****   *     @arg For @b STM32_XL-density_devices: value between FLASH_WRProt_Pages0to1 and
1021:Libraries/STM32F10x_StdPeriph_Driver/src/stm32f10x_flash.c ****   *       FLASH_WRProt_Pages60to61 or FLASH_WRProt_Pages62to511
1022:Libraries/STM32F10x_StdPeriph_Driver/src/stm32f10x_flash.c ****   *     @arg FLASH_WRProt_AllPages
1023:Libraries/STM32F10x_StdPeriph_Driver/src/stm32f10x_flash.c ****   * @retval FLASH Status: The returned value can be: FLASH_ERROR_PG,
1024:Libraries/STM32F10x_StdPeriph_Driver/src/stm32f10x_flash.c ****   *   FLASH_ERROR_WRP, FLASH_COMPLETE or FLASH_TIMEOUT.
1025:Libraries/STM32F10x_StdPeriph_Driver/src/stm32f10x_flash.c ****   */
1026:Libraries/STM32F10x_StdPeriph_Driver/src/stm32f10x_flash.c **** FLASH_Status FLASH_EnableWriteProtection(uint32_t FLASH_Pages)
1027:Libraries/STM32F10x_StdPeriph_Driver/src/stm32f10x_flash.c **** {
1028:Libraries/STM32F10x_StdPeriph_Driver/src/stm32f10x_flash.c ****   uint16_t WRP0_Data = 0xFFFF, WRP1_Data = 0xFFFF, WRP2_Data = 0xFFFF, WRP3_Data = 0xFFFF;
1029:Libraries/STM32F10x_StdPeriph_Driver/src/stm32f10x_flash.c ****   
1030:Libraries/STM32F10x_StdPeriph_Driver/src/stm32f10x_flash.c ****   FLASH_Status status = FLASH_COMPLETE;
1031:Libraries/STM32F10x_StdPeriph_Driver/src/stm32f10x_flash.c ****   
1032:Libraries/STM32F10x_StdPeriph_Driver/src/stm32f10x_flash.c ****   /* Check the parameters */
1033:Libraries/STM32F10x_StdPeriph_Driver/src/stm32f10x_flash.c ****   assert_param(IS_FLASH_WRPROT_PAGE(FLASH_Pages));
1034:Libraries/STM32F10x_StdPeriph_Driver/src/stm32f10x_flash.c ****   
1035:Libraries/STM32F10x_StdPeriph_Driver/src/stm32f10x_flash.c ****   FLASH_Pages = (uint32_t)(~FLASH_Pages);
1036:Libraries/STM32F10x_StdPeriph_Driver/src/stm32f10x_flash.c ****   WRP0_Data = (uint16_t)(FLASH_Pages & WRP0_Mask);
1037:Libraries/STM32F10x_StdPeriph_Driver/src/stm32f10x_flash.c ****   WRP1_Data = (uint16_t)((FLASH_Pages & WRP1_Mask) >> 8);
1038:Libraries/STM32F10x_StdPeriph_Driver/src/stm32f10x_flash.c ****   WRP2_Data = (uint16_t)((FLASH_Pages & WRP2_Mask) >> 16);
1039:Libraries/STM32F10x_StdPeriph_Driver/src/stm32f10x_flash.c ****   WRP3_Data = (uint16_t)((FLASH_Pages & WRP3_Mask) >> 24);
1040:Libraries/STM32F10x_StdPeriph_Driver/src/stm32f10x_flash.c ****   
1041:Libraries/STM32F10x_StdPeriph_Driver/src/stm32f10x_flash.c ****   /* Wait for last operation to be completed */
1042:Libraries/STM32F10x_StdPeriph_Driver/src/stm32f10x_flash.c ****   status = FLASH_WaitForLastOperation(ProgramTimeout);
1043:Libraries/STM32F10x_StdPeriph_Driver/src/stm32f10x_flash.c ****   
1044:Libraries/STM32F10x_StdPeriph_Driver/src/stm32f10x_flash.c ****   if(status == FLASH_COMPLETE)
1045:Libraries/STM32F10x_StdPeriph_Driver/src/stm32f10x_flash.c ****   {
1046:Libraries/STM32F10x_StdPeriph_Driver/src/stm32f10x_flash.c ****     /* Authorizes the small information block programming */
1047:Libraries/STM32F10x_StdPeriph_Driver/src/stm32f10x_flash.c ****     FLASH->OPTKEYR = FLASH_KEY1;
1048:Libraries/STM32F10x_StdPeriph_Driver/src/stm32f10x_flash.c ****     FLASH->OPTKEYR = FLASH_KEY2;
1049:Libraries/STM32F10x_StdPeriph_Driver/src/stm32f10x_flash.c ****     FLASH->CR |= CR_OPTPG_Set;
1050:Libraries/STM32F10x_StdPeriph_Driver/src/stm32f10x_flash.c ****     if(WRP0_Data != 0xFF)
1051:Libraries/STM32F10x_StdPeriph_Driver/src/stm32f10x_flash.c ****     {
1052:Libraries/STM32F10x_StdPeriph_Driver/src/stm32f10x_flash.c ****       OB->WRP0 = WRP0_Data;
1053:Libraries/STM32F10x_StdPeriph_Driver/src/stm32f10x_flash.c ****       
1054:Libraries/STM32F10x_StdPeriph_Driver/src/stm32f10x_flash.c ****       /* Wait for last operation to be completed */
1055:Libraries/STM32F10x_StdPeriph_Driver/src/stm32f10x_flash.c ****       status = FLASH_WaitForLastOperation(ProgramTimeout);
1056:Libraries/STM32F10x_StdPeriph_Driver/src/stm32f10x_flash.c ****     }
1057:Libraries/STM32F10x_StdPeriph_Driver/src/stm32f10x_flash.c ****     if((status == FLASH_COMPLETE) && (WRP1_Data != 0xFF))
1058:Libraries/STM32F10x_StdPeriph_Driver/src/stm32f10x_flash.c ****     {
1059:Libraries/STM32F10x_StdPeriph_Driver/src/stm32f10x_flash.c ****       OB->WRP1 = WRP1_Data;
1060:Libraries/STM32F10x_StdPeriph_Driver/src/stm32f10x_flash.c ****       
1061:Libraries/STM32F10x_StdPeriph_Driver/src/stm32f10x_flash.c ****       /* Wait for last operation to be completed */
1062:Libraries/STM32F10x_StdPeriph_Driver/src/stm32f10x_flash.c ****       status = FLASH_WaitForLastOperation(ProgramTimeout);
1063:Libraries/STM32F10x_StdPeriph_Driver/src/stm32f10x_flash.c ****     }
1064:Libraries/STM32F10x_StdPeriph_Driver/src/stm32f10x_flash.c ****     if((status == FLASH_COMPLETE) && (WRP2_Data != 0xFF))
1065:Libraries/STM32F10x_StdPeriph_Driver/src/stm32f10x_flash.c ****     {
1066:Libraries/STM32F10x_StdPeriph_Driver/src/stm32f10x_flash.c ****       OB->WRP2 = WRP2_Data;
1067:Libraries/STM32F10x_StdPeriph_Driver/src/stm32f10x_flash.c ****       
1068:Libraries/STM32F10x_StdPeriph_Driver/src/stm32f10x_flash.c ****       /* Wait for last operation to be completed */
1069:Libraries/STM32F10x_StdPeriph_Driver/src/stm32f10x_flash.c ****       status = FLASH_WaitForLastOperation(ProgramTimeout);
1070:Libraries/STM32F10x_StdPeriph_Driver/src/stm32f10x_flash.c ****     }
1071:Libraries/STM32F10x_StdPeriph_Driver/src/stm32f10x_flash.c ****     
1072:Libraries/STM32F10x_StdPeriph_Driver/src/stm32f10x_flash.c ****     if((status == FLASH_COMPLETE)&& (WRP3_Data != 0xFF))
1073:Libraries/STM32F10x_StdPeriph_Driver/src/stm32f10x_flash.c ****     {
1074:Libraries/STM32F10x_StdPeriph_Driver/src/stm32f10x_flash.c ****       OB->WRP3 = WRP3_Data;
1075:Libraries/STM32F10x_StdPeriph_Driver/src/stm32f10x_flash.c ****      
1076:Libraries/STM32F10x_StdPeriph_Driver/src/stm32f10x_flash.c ****       /* Wait for last operation to be completed */
1077:Libraries/STM32F10x_StdPeriph_Driver/src/stm32f10x_flash.c ****       status = FLASH_WaitForLastOperation(ProgramTimeout);
1078:Libraries/STM32F10x_StdPeriph_Driver/src/stm32f10x_flash.c ****     }
1079:Libraries/STM32F10x_StdPeriph_Driver/src/stm32f10x_flash.c ****           
1080:Libraries/STM32F10x_StdPeriph_Driver/src/stm32f10x_flash.c ****     if(status != FLASH_TIMEOUT)
1081:Libraries/STM32F10x_StdPeriph_Driver/src/stm32f10x_flash.c ****     {
1082:Libraries/STM32F10x_StdPeriph_Driver/src/stm32f10x_flash.c ****       /* if the program operation is completed, disable the OPTPG Bit */
1083:Libraries/STM32F10x_StdPeriph_Driver/src/stm32f10x_flash.c ****       FLASH->CR &= CR_OPTPG_Reset;
1084:Libraries/STM32F10x_StdPeriph_Driver/src/stm32f10x_flash.c ****     }
1085:Libraries/STM32F10x_StdPeriph_Driver/src/stm32f10x_flash.c ****   } 
1086:Libraries/STM32F10x_StdPeriph_Driver/src/stm32f10x_flash.c ****   /* Return the write protection operation Status */
1087:Libraries/STM32F10x_StdPeriph_Driver/src/stm32f10x_flash.c ****   return status;       
1088:Libraries/STM32F10x_StdPeriph_Driver/src/stm32f10x_flash.c **** }
1089:Libraries/STM32F10x_StdPeriph_Driver/src/stm32f10x_flash.c **** 
1090:Libraries/STM32F10x_StdPeriph_Driver/src/stm32f10x_flash.c **** /**
1091:Libraries/STM32F10x_StdPeriph_Driver/src/stm32f10x_flash.c ****   * @brief  Enables or disables the read out protection.
1092:Libraries/STM32F10x_StdPeriph_Driver/src/stm32f10x_flash.c ****   * @note   If the user has already programmed the other option bytes before calling 
1093:Libraries/STM32F10x_StdPeriph_Driver/src/stm32f10x_flash.c ****   *   this function, he must re-program them since this function erases all option bytes.
1094:Libraries/STM32F10x_StdPeriph_Driver/src/stm32f10x_flash.c ****   * @note   This function can be used for all STM32F10x devices.
1095:Libraries/STM32F10x_StdPeriph_Driver/src/stm32f10x_flash.c ****   * @param  Newstate: new state of the ReadOut Protection.
1096:Libraries/STM32F10x_StdPeriph_Driver/src/stm32f10x_flash.c ****   *   This parameter can be: ENABLE or DISABLE.
1097:Libraries/STM32F10x_StdPeriph_Driver/src/stm32f10x_flash.c ****   * @retval FLASH Status: The returned value can be: FLASH_ERROR_PG,
1098:Libraries/STM32F10x_StdPeriph_Driver/src/stm32f10x_flash.c ****   *   FLASH_ERROR_WRP, FLASH_COMPLETE or FLASH_TIMEOUT.
1099:Libraries/STM32F10x_StdPeriph_Driver/src/stm32f10x_flash.c ****   */
1100:Libraries/STM32F10x_StdPeriph_Driver/src/stm32f10x_flash.c **** FLASH_Status FLASH_ReadOutProtection(FunctionalState NewState)
1101:Libraries/STM32F10x_StdPeriph_Driver/src/stm32f10x_flash.c **** {
1102:Libraries/STM32F10x_StdPeriph_Driver/src/stm32f10x_flash.c ****   FLASH_Status status = FLASH_COMPLETE;
1103:Libraries/STM32F10x_StdPeriph_Driver/src/stm32f10x_flash.c ****   /* Check the parameters */
1104:Libraries/STM32F10x_StdPeriph_Driver/src/stm32f10x_flash.c ****   assert_param(IS_FUNCTIONAL_STATE(NewState));
1105:Libraries/STM32F10x_StdPeriph_Driver/src/stm32f10x_flash.c ****   status = FLASH_WaitForLastOperation(EraseTimeout);
1106:Libraries/STM32F10x_StdPeriph_Driver/src/stm32f10x_flash.c ****   if(status == FLASH_COMPLETE)
1107:Libraries/STM32F10x_StdPeriph_Driver/src/stm32f10x_flash.c ****   {
1108:Libraries/STM32F10x_StdPeriph_Driver/src/stm32f10x_flash.c ****     /* Authorizes the small information block programming */
1109:Libraries/STM32F10x_StdPeriph_Driver/src/stm32f10x_flash.c ****     FLASH->OPTKEYR = FLASH_KEY1;
1110:Libraries/STM32F10x_StdPeriph_Driver/src/stm32f10x_flash.c ****     FLASH->OPTKEYR = FLASH_KEY2;
1111:Libraries/STM32F10x_StdPeriph_Driver/src/stm32f10x_flash.c ****     FLASH->CR |= CR_OPTER_Set;
1112:Libraries/STM32F10x_StdPeriph_Driver/src/stm32f10x_flash.c ****     FLASH->CR |= CR_STRT_Set;
1113:Libraries/STM32F10x_StdPeriph_Driver/src/stm32f10x_flash.c ****     /* Wait for last operation to be completed */
1114:Libraries/STM32F10x_StdPeriph_Driver/src/stm32f10x_flash.c ****     status = FLASH_WaitForLastOperation(EraseTimeout);
1115:Libraries/STM32F10x_StdPeriph_Driver/src/stm32f10x_flash.c ****     if(status == FLASH_COMPLETE)
1116:Libraries/STM32F10x_StdPeriph_Driver/src/stm32f10x_flash.c ****     {
1117:Libraries/STM32F10x_StdPeriph_Driver/src/stm32f10x_flash.c ****       /* if the erase operation is completed, disable the OPTER Bit */
1118:Libraries/STM32F10x_StdPeriph_Driver/src/stm32f10x_flash.c ****       FLASH->CR &= CR_OPTER_Reset;
1119:Libraries/STM32F10x_StdPeriph_Driver/src/stm32f10x_flash.c ****       /* Enable the Option Bytes Programming operation */
1120:Libraries/STM32F10x_StdPeriph_Driver/src/stm32f10x_flash.c ****       FLASH->CR |= CR_OPTPG_Set; 
1121:Libraries/STM32F10x_StdPeriph_Driver/src/stm32f10x_flash.c ****       if(NewState != DISABLE)
1122:Libraries/STM32F10x_StdPeriph_Driver/src/stm32f10x_flash.c ****       {
1123:Libraries/STM32F10x_StdPeriph_Driver/src/stm32f10x_flash.c ****         OB->RDP = 0x00;
1124:Libraries/STM32F10x_StdPeriph_Driver/src/stm32f10x_flash.c ****       }
1125:Libraries/STM32F10x_StdPeriph_Driver/src/stm32f10x_flash.c ****       else
1126:Libraries/STM32F10x_StdPeriph_Driver/src/stm32f10x_flash.c ****       {
1127:Libraries/STM32F10x_StdPeriph_Driver/src/stm32f10x_flash.c ****         OB->RDP = RDP_Key;  
1128:Libraries/STM32F10x_StdPeriph_Driver/src/stm32f10x_flash.c ****       }
1129:Libraries/STM32F10x_StdPeriph_Driver/src/stm32f10x_flash.c ****       /* Wait for last operation to be completed */
1130:Libraries/STM32F10x_StdPeriph_Driver/src/stm32f10x_flash.c ****       status = FLASH_WaitForLastOperation(EraseTimeout); 
1131:Libraries/STM32F10x_StdPeriph_Driver/src/stm32f10x_flash.c ****     
1132:Libraries/STM32F10x_StdPeriph_Driver/src/stm32f10x_flash.c ****       if(status != FLASH_TIMEOUT)
1133:Libraries/STM32F10x_StdPeriph_Driver/src/stm32f10x_flash.c ****       {
1134:Libraries/STM32F10x_StdPeriph_Driver/src/stm32f10x_flash.c ****         /* if the program operation is completed, disable the OPTPG Bit */
1135:Libraries/STM32F10x_StdPeriph_Driver/src/stm32f10x_flash.c ****         FLASH->CR &= CR_OPTPG_Reset;
1136:Libraries/STM32F10x_StdPeriph_Driver/src/stm32f10x_flash.c ****       }
1137:Libraries/STM32F10x_StdPeriph_Driver/src/stm32f10x_flash.c ****     }
1138:Libraries/STM32F10x_StdPeriph_Driver/src/stm32f10x_flash.c ****     else 
1139:Libraries/STM32F10x_StdPeriph_Driver/src/stm32f10x_flash.c ****     {
1140:Libraries/STM32F10x_StdPeriph_Driver/src/stm32f10x_flash.c ****       if(status != FLASH_TIMEOUT)
1141:Libraries/STM32F10x_StdPeriph_Driver/src/stm32f10x_flash.c ****       {
1142:Libraries/STM32F10x_StdPeriph_Driver/src/stm32f10x_flash.c ****         /* Disable the OPTER Bit */
1143:Libraries/STM32F10x_StdPeriph_Driver/src/stm32f10x_flash.c ****         FLASH->CR &= CR_OPTER_Reset;
1144:Libraries/STM32F10x_StdPeriph_Driver/src/stm32f10x_flash.c ****       }
1145:Libraries/STM32F10x_StdPeriph_Driver/src/stm32f10x_flash.c ****     }
1146:Libraries/STM32F10x_StdPeriph_Driver/src/stm32f10x_flash.c ****   }
1147:Libraries/STM32F10x_StdPeriph_Driver/src/stm32f10x_flash.c ****   /* Return the protection operation Status */
1148:Libraries/STM32F10x_StdPeriph_Driver/src/stm32f10x_flash.c ****   return status;       
1149:Libraries/STM32F10x_StdPeriph_Driver/src/stm32f10x_flash.c **** }
1150:Libraries/STM32F10x_StdPeriph_Driver/src/stm32f10x_flash.c **** 
1151:Libraries/STM32F10x_StdPeriph_Driver/src/stm32f10x_flash.c **** /**
1152:Libraries/STM32F10x_StdPeriph_Driver/src/stm32f10x_flash.c ****   * @brief  Programs the FLASH User Option Byte: IWDG_SW / RST_STOP / RST_STDBY.
1153:Libraries/STM32F10x_StdPeriph_Driver/src/stm32f10x_flash.c ****   * @note   This function can be used for all STM32F10x devices.
1154:Libraries/STM32F10x_StdPeriph_Driver/src/stm32f10x_flash.c ****   * @param  OB_IWDG: Selects the IWDG mode
1155:Libraries/STM32F10x_StdPeriph_Driver/src/stm32f10x_flash.c ****   *   This parameter can be one of the following values:
1156:Libraries/STM32F10x_StdPeriph_Driver/src/stm32f10x_flash.c ****   *     @arg OB_IWDG_SW: Software IWDG selected
1157:Libraries/STM32F10x_StdPeriph_Driver/src/stm32f10x_flash.c ****   *     @arg OB_IWDG_HW: Hardware IWDG selected
1158:Libraries/STM32F10x_StdPeriph_Driver/src/stm32f10x_flash.c ****   * @param  OB_STOP: Reset event when entering STOP mode.
1159:Libraries/STM32F10x_StdPeriph_Driver/src/stm32f10x_flash.c ****   *   This parameter can be one of the following values:
1160:Libraries/STM32F10x_StdPeriph_Driver/src/stm32f10x_flash.c ****   *     @arg OB_STOP_NoRST: No reset generated when entering in STOP
1161:Libraries/STM32F10x_StdPeriph_Driver/src/stm32f10x_flash.c ****   *     @arg OB_STOP_RST: Reset generated when entering in STOP
1162:Libraries/STM32F10x_StdPeriph_Driver/src/stm32f10x_flash.c ****   * @param  OB_STDBY: Reset event when entering Standby mode.
1163:Libraries/STM32F10x_StdPeriph_Driver/src/stm32f10x_flash.c ****   *   This parameter can be one of the following values:
1164:Libraries/STM32F10x_StdPeriph_Driver/src/stm32f10x_flash.c ****   *     @arg OB_STDBY_NoRST: No reset generated when entering in STANDBY
1165:Libraries/STM32F10x_StdPeriph_Driver/src/stm32f10x_flash.c ****   *     @arg OB_STDBY_RST: Reset generated when entering in STANDBY
1166:Libraries/STM32F10x_StdPeriph_Driver/src/stm32f10x_flash.c ****   * @retval FLASH Status: The returned value can be: FLASH_ERROR_PG, 
1167:Libraries/STM32F10x_StdPeriph_Driver/src/stm32f10x_flash.c ****   * FLASH_ERROR_WRP, FLASH_COMPLETE or FLASH_TIMEOUT.
1168:Libraries/STM32F10x_StdPeriph_Driver/src/stm32f10x_flash.c ****   */
1169:Libraries/STM32F10x_StdPeriph_Driver/src/stm32f10x_flash.c **** FLASH_Status FLASH_UserOptionByteConfig(uint16_t OB_IWDG, uint16_t OB_STOP, uint16_t OB_STDBY)
1170:Libraries/STM32F10x_StdPeriph_Driver/src/stm32f10x_flash.c **** {
1171:Libraries/STM32F10x_StdPeriph_Driver/src/stm32f10x_flash.c ****   FLASH_Status status = FLASH_COMPLETE; 
1172:Libraries/STM32F10x_StdPeriph_Driver/src/stm32f10x_flash.c **** 
1173:Libraries/STM32F10x_StdPeriph_Driver/src/stm32f10x_flash.c ****   /* Check the parameters */
1174:Libraries/STM32F10x_StdPeriph_Driver/src/stm32f10x_flash.c ****   assert_param(IS_OB_IWDG_SOURCE(OB_IWDG));
1175:Libraries/STM32F10x_StdPeriph_Driver/src/stm32f10x_flash.c ****   assert_param(IS_OB_STOP_SOURCE(OB_STOP));
1176:Libraries/STM32F10x_StdPeriph_Driver/src/stm32f10x_flash.c ****   assert_param(IS_OB_STDBY_SOURCE(OB_STDBY));
1177:Libraries/STM32F10x_StdPeriph_Driver/src/stm32f10x_flash.c **** 
1178:Libraries/STM32F10x_StdPeriph_Driver/src/stm32f10x_flash.c ****   /* Authorize the small information block programming */
1179:Libraries/STM32F10x_StdPeriph_Driver/src/stm32f10x_flash.c ****   FLASH->OPTKEYR = FLASH_KEY1;
1180:Libraries/STM32F10x_StdPeriph_Driver/src/stm32f10x_flash.c ****   FLASH->OPTKEYR = FLASH_KEY2;
1181:Libraries/STM32F10x_StdPeriph_Driver/src/stm32f10x_flash.c ****   
1182:Libraries/STM32F10x_StdPeriph_Driver/src/stm32f10x_flash.c ****   /* Wait for last operation to be completed */
1183:Libraries/STM32F10x_StdPeriph_Driver/src/stm32f10x_flash.c ****   status = FLASH_WaitForLastOperation(ProgramTimeout);
1184:Libraries/STM32F10x_StdPeriph_Driver/src/stm32f10x_flash.c ****   
1185:Libraries/STM32F10x_StdPeriph_Driver/src/stm32f10x_flash.c ****   if(status == FLASH_COMPLETE)
1186:Libraries/STM32F10x_StdPeriph_Driver/src/stm32f10x_flash.c ****   {  
1187:Libraries/STM32F10x_StdPeriph_Driver/src/stm32f10x_flash.c ****     /* Enable the Option Bytes Programming operation */
1188:Libraries/STM32F10x_StdPeriph_Driver/src/stm32f10x_flash.c ****     FLASH->CR |= CR_OPTPG_Set; 
1189:Libraries/STM32F10x_StdPeriph_Driver/src/stm32f10x_flash.c ****            
1190:Libraries/STM32F10x_StdPeriph_Driver/src/stm32f10x_flash.c ****     OB->USER = OB_IWDG | (uint16_t)(OB_STOP | (uint16_t)(OB_STDBY | ((uint16_t)0xF8))); 
1191:Libraries/STM32F10x_StdPeriph_Driver/src/stm32f10x_flash.c ****   
1192:Libraries/STM32F10x_StdPeriph_Driver/src/stm32f10x_flash.c ****     /* Wait for last operation to be completed */
1193:Libraries/STM32F10x_StdPeriph_Driver/src/stm32f10x_flash.c ****     status = FLASH_WaitForLastOperation(ProgramTimeout);
1194:Libraries/STM32F10x_StdPeriph_Driver/src/stm32f10x_flash.c ****     if(status != FLASH_TIMEOUT)
1195:Libraries/STM32F10x_StdPeriph_Driver/src/stm32f10x_flash.c ****     {
1196:Libraries/STM32F10x_StdPeriph_Driver/src/stm32f10x_flash.c ****       /* if the program operation is completed, disable the OPTPG Bit */
1197:Libraries/STM32F10x_StdPeriph_Driver/src/stm32f10x_flash.c ****       FLASH->CR &= CR_OPTPG_Reset;
1198:Libraries/STM32F10x_StdPeriph_Driver/src/stm32f10x_flash.c ****     }
1199:Libraries/STM32F10x_StdPeriph_Driver/src/stm32f10x_flash.c ****   }    
1200:Libraries/STM32F10x_StdPeriph_Driver/src/stm32f10x_flash.c ****   /* Return the Option Byte program Status */
1201:Libraries/STM32F10x_StdPeriph_Driver/src/stm32f10x_flash.c ****   return status;
1202:Libraries/STM32F10x_StdPeriph_Driver/src/stm32f10x_flash.c **** }
1203:Libraries/STM32F10x_StdPeriph_Driver/src/stm32f10x_flash.c **** 
1204:Libraries/STM32F10x_StdPeriph_Driver/src/stm32f10x_flash.c **** #ifdef STM32F10X_XL
1205:Libraries/STM32F10x_StdPeriph_Driver/src/stm32f10x_flash.c **** /**
1206:Libraries/STM32F10x_StdPeriph_Driver/src/stm32f10x_flash.c ****   * @brief  Configures to boot from Bank1 or Bank2.  
1207:Libraries/STM32F10x_StdPeriph_Driver/src/stm32f10x_flash.c ****   * @note   This function can be used only for STM32F10x_XL density devices.
1208:Libraries/STM32F10x_StdPeriph_Driver/src/stm32f10x_flash.c ****   * @param  FLASH_BOOT: select the FLASH Bank to boot from.
1209:Libraries/STM32F10x_StdPeriph_Driver/src/stm32f10x_flash.c ****   *   This parameter can be one of the following values:
1210:Libraries/STM32F10x_StdPeriph_Driver/src/stm32f10x_flash.c ****   *     @arg FLASH_BOOT_Bank1: At startup, if boot pins are set in boot from user Flash
1211:Libraries/STM32F10x_StdPeriph_Driver/src/stm32f10x_flash.c ****   *        position and this parameter is selected the device will boot from Bank1(Default).
1212:Libraries/STM32F10x_StdPeriph_Driver/src/stm32f10x_flash.c ****   *     @arg FLASH_BOOT_Bank2: At startup, if boot pins are set in boot from user Flash
1213:Libraries/STM32F10x_StdPeriph_Driver/src/stm32f10x_flash.c ****   *        position and this parameter is selected the device will boot from Bank2 or Bank1,
1214:Libraries/STM32F10x_StdPeriph_Driver/src/stm32f10x_flash.c ****   *        depending on the activation of the bank. The active banks are checked in
1215:Libraries/STM32F10x_StdPeriph_Driver/src/stm32f10x_flash.c ****   *        the following order: Bank2, followed by Bank1.
1216:Libraries/STM32F10x_StdPeriph_Driver/src/stm32f10x_flash.c ****   *        The active bank is recognized by the value programmed at the base address
1217:Libraries/STM32F10x_StdPeriph_Driver/src/stm32f10x_flash.c ****   *        of the respective bank (corresponding to the initial stack pointer value
1218:Libraries/STM32F10x_StdPeriph_Driver/src/stm32f10x_flash.c ****   *        in the interrupt vector table).
1219:Libraries/STM32F10x_StdPeriph_Driver/src/stm32f10x_flash.c ****   *        For more information, please refer to AN2606 from www.st.com.    
1220:Libraries/STM32F10x_StdPeriph_Driver/src/stm32f10x_flash.c ****   * @retval FLASH Status: The returned value can be: FLASH_ERROR_PG, 
1221:Libraries/STM32F10x_StdPeriph_Driver/src/stm32f10x_flash.c ****   * FLASH_ERROR_WRP, FLASH_COMPLETE or FLASH_TIMEOUT.
1222:Libraries/STM32F10x_StdPeriph_Driver/src/stm32f10x_flash.c ****   */
1223:Libraries/STM32F10x_StdPeriph_Driver/src/stm32f10x_flash.c **** FLASH_Status FLASH_BootConfig(uint16_t FLASH_BOOT)
1224:Libraries/STM32F10x_StdPeriph_Driver/src/stm32f10x_flash.c **** { 
1225:Libraries/STM32F10x_StdPeriph_Driver/src/stm32f10x_flash.c ****   FLASH_Status status = FLASH_COMPLETE; 
1226:Libraries/STM32F10x_StdPeriph_Driver/src/stm32f10x_flash.c ****   assert_param(IS_FLASH_BOOT(FLASH_BOOT));
1227:Libraries/STM32F10x_StdPeriph_Driver/src/stm32f10x_flash.c ****   /* Authorize the small information block programming */
1228:Libraries/STM32F10x_StdPeriph_Driver/src/stm32f10x_flash.c ****   FLASH->OPTKEYR = FLASH_KEY1;
1229:Libraries/STM32F10x_StdPeriph_Driver/src/stm32f10x_flash.c ****   FLASH->OPTKEYR = FLASH_KEY2;
1230:Libraries/STM32F10x_StdPeriph_Driver/src/stm32f10x_flash.c ****   
1231:Libraries/STM32F10x_StdPeriph_Driver/src/stm32f10x_flash.c ****   /* Wait for last operation to be completed */
1232:Libraries/STM32F10x_StdPeriph_Driver/src/stm32f10x_flash.c ****   status = FLASH_WaitForLastOperation(ProgramTimeout);
1233:Libraries/STM32F10x_StdPeriph_Driver/src/stm32f10x_flash.c ****   
1234:Libraries/STM32F10x_StdPeriph_Driver/src/stm32f10x_flash.c ****   if(status == FLASH_COMPLETE)
1235:Libraries/STM32F10x_StdPeriph_Driver/src/stm32f10x_flash.c ****   {  
1236:Libraries/STM32F10x_StdPeriph_Driver/src/stm32f10x_flash.c ****     /* Enable the Option Bytes Programming operation */
1237:Libraries/STM32F10x_StdPeriph_Driver/src/stm32f10x_flash.c ****     FLASH->CR |= CR_OPTPG_Set; 
1238:Libraries/STM32F10x_StdPeriph_Driver/src/stm32f10x_flash.c **** 
1239:Libraries/STM32F10x_StdPeriph_Driver/src/stm32f10x_flash.c ****     if(FLASH_BOOT == FLASH_BOOT_Bank1)
1240:Libraries/STM32F10x_StdPeriph_Driver/src/stm32f10x_flash.c ****     {
1241:Libraries/STM32F10x_StdPeriph_Driver/src/stm32f10x_flash.c ****       OB->USER |= OB_USER_BFB2;
1242:Libraries/STM32F10x_StdPeriph_Driver/src/stm32f10x_flash.c ****     }
1243:Libraries/STM32F10x_StdPeriph_Driver/src/stm32f10x_flash.c ****     else
1244:Libraries/STM32F10x_StdPeriph_Driver/src/stm32f10x_flash.c ****     {
1245:Libraries/STM32F10x_StdPeriph_Driver/src/stm32f10x_flash.c ****       OB->USER &= (uint16_t)(~(uint16_t)(OB_USER_BFB2));
1246:Libraries/STM32F10x_StdPeriph_Driver/src/stm32f10x_flash.c ****     }
1247:Libraries/STM32F10x_StdPeriph_Driver/src/stm32f10x_flash.c ****     /* Wait for last operation to be completed */
1248:Libraries/STM32F10x_StdPeriph_Driver/src/stm32f10x_flash.c ****     status = FLASH_WaitForLastOperation(ProgramTimeout);
1249:Libraries/STM32F10x_StdPeriph_Driver/src/stm32f10x_flash.c ****     if(status != FLASH_TIMEOUT)
1250:Libraries/STM32F10x_StdPeriph_Driver/src/stm32f10x_flash.c ****     {
1251:Libraries/STM32F10x_StdPeriph_Driver/src/stm32f10x_flash.c ****       /* if the program operation is completed, disable the OPTPG Bit */
1252:Libraries/STM32F10x_StdPeriph_Driver/src/stm32f10x_flash.c ****       FLASH->CR &= CR_OPTPG_Reset;
1253:Libraries/STM32F10x_StdPeriph_Driver/src/stm32f10x_flash.c ****     }
1254:Libraries/STM32F10x_StdPeriph_Driver/src/stm32f10x_flash.c ****   }    
1255:Libraries/STM32F10x_StdPeriph_Driver/src/stm32f10x_flash.c ****   /* Return the Option Byte program Status */
1256:Libraries/STM32F10x_StdPeriph_Driver/src/stm32f10x_flash.c ****   return status;
1257:Libraries/STM32F10x_StdPeriph_Driver/src/stm32f10x_flash.c **** }
1258:Libraries/STM32F10x_StdPeriph_Driver/src/stm32f10x_flash.c **** #endif /* STM32F10X_XL */
1259:Libraries/STM32F10x_StdPeriph_Driver/src/stm32f10x_flash.c **** 
1260:Libraries/STM32F10x_StdPeriph_Driver/src/stm32f10x_flash.c **** /**
1261:Libraries/STM32F10x_StdPeriph_Driver/src/stm32f10x_flash.c ****   * @brief  Returns the FLASH User Option Bytes values.
1262:Libraries/STM32F10x_StdPeriph_Driver/src/stm32f10x_flash.c ****   * @note   This function can be used for all STM32F10x devices.
1263:Libraries/STM32F10x_StdPeriph_Driver/src/stm32f10x_flash.c ****   * @param  None
1264:Libraries/STM32F10x_StdPeriph_Driver/src/stm32f10x_flash.c ****   * @retval The FLASH User Option Bytes values:IWDG_SW(Bit0), RST_STOP(Bit1)
1265:Libraries/STM32F10x_StdPeriph_Driver/src/stm32f10x_flash.c ****   *   and RST_STDBY(Bit2).
1266:Libraries/STM32F10x_StdPeriph_Driver/src/stm32f10x_flash.c ****   */
1267:Libraries/STM32F10x_StdPeriph_Driver/src/stm32f10x_flash.c **** uint32_t FLASH_GetUserOptionByte(void)
1268:Libraries/STM32F10x_StdPeriph_Driver/src/stm32f10x_flash.c **** {
 318              		.loc 1 1268 0
 319              		.cfi_startproc
 320              		@ args = 0, pretend = 0, frame = 0
 321              		@ frame_needed = 0, uses_anonymous_args = 0
 322              		@ link register save eliminated.
1269:Libraries/STM32F10x_StdPeriph_Driver/src/stm32f10x_flash.c ****   /* Return the User Option Byte */
1270:Libraries/STM32F10x_StdPeriph_Driver/src/stm32f10x_flash.c ****   return (uint32_t)(FLASH->OBR >> 2);
 323              		.loc 1 1270 0
 324 0000 014B     		ldr	r3, .L38
 325 0002 D869     		ldr	r0, [r3, #28]
1271:Libraries/STM32F10x_StdPeriph_Driver/src/stm32f10x_flash.c **** }
 326              		.loc 1 1271 0
 327 0004 8008     		lsrs	r0, r0, #2
 328 0006 7047     		bx	lr
 329              	.L39:
 330              		.align	2
 331              	.L38:
 332 0008 00200240 		.word	1073881088
 333              		.cfi_endproc
 334              	.LFE46:
 336              		.section	.text.FLASH_GetWriteProtectionOptionByte,"ax",%progbits
 337              		.align	1
 338              		.p2align 2,,3
 339              		.global	FLASH_GetWriteProtectionOptionByte
 340              		.syntax unified
 341              		.thumb
 342              		.thumb_func
 343              		.fpu softvfp
 345              	FLASH_GetWriteProtectionOptionByte:
 346              	.LFB47:
1272:Libraries/STM32F10x_StdPeriph_Driver/src/stm32f10x_flash.c **** 
1273:Libraries/STM32F10x_StdPeriph_Driver/src/stm32f10x_flash.c **** /**
1274:Libraries/STM32F10x_StdPeriph_Driver/src/stm32f10x_flash.c ****   * @brief  Returns the FLASH Write Protection Option Bytes Register value.
1275:Libraries/STM32F10x_StdPeriph_Driver/src/stm32f10x_flash.c ****   * @note   This function can be used for all STM32F10x devices.
1276:Libraries/STM32F10x_StdPeriph_Driver/src/stm32f10x_flash.c ****   * @param  None
1277:Libraries/STM32F10x_StdPeriph_Driver/src/stm32f10x_flash.c ****   * @retval The FLASH Write Protection  Option Bytes Register value
1278:Libraries/STM32F10x_StdPeriph_Driver/src/stm32f10x_flash.c ****   */
1279:Libraries/STM32F10x_StdPeriph_Driver/src/stm32f10x_flash.c **** uint32_t FLASH_GetWriteProtectionOptionByte(void)
1280:Libraries/STM32F10x_StdPeriph_Driver/src/stm32f10x_flash.c **** {
 347              		.loc 1 1280 0
 348              		.cfi_startproc
 349              		@ args = 0, pretend = 0, frame = 0
 350              		@ frame_needed = 0, uses_anonymous_args = 0
 351              		@ link register save eliminated.
1281:Libraries/STM32F10x_StdPeriph_Driver/src/stm32f10x_flash.c ****   /* Return the Falsh write protection Register value */
1282:Libraries/STM32F10x_StdPeriph_Driver/src/stm32f10x_flash.c ****   return (uint32_t)(FLASH->WRPR);
 352              		.loc 1 1282 0
 353 0000 014B     		ldr	r3, .L41
 354 0002 186A     		ldr	r0, [r3, #32]
1283:Libraries/STM32F10x_StdPeriph_Driver/src/stm32f10x_flash.c **** }
 355              		.loc 1 1283 0
 356 0004 7047     		bx	lr
 357              	.L42:
 358 0006 00BF     		.align	2
 359              	.L41:
 360 0008 00200240 		.word	1073881088
 361              		.cfi_endproc
 362              	.LFE47:
 364              		.section	.text.FLASH_GetReadOutProtectionStatus,"ax",%progbits
 365              		.align	1
 366              		.p2align 2,,3
 367              		.global	FLASH_GetReadOutProtectionStatus
 368              		.syntax unified
 369              		.thumb
 370              		.thumb_func
 371              		.fpu softvfp
 373              	FLASH_GetReadOutProtectionStatus:
 374              	.LFB48:
1284:Libraries/STM32F10x_StdPeriph_Driver/src/stm32f10x_flash.c **** 
1285:Libraries/STM32F10x_StdPeriph_Driver/src/stm32f10x_flash.c **** /**
1286:Libraries/STM32F10x_StdPeriph_Driver/src/stm32f10x_flash.c ****   * @brief  Checks whether the FLASH Read Out Protection Status is set or not.
1287:Libraries/STM32F10x_StdPeriph_Driver/src/stm32f10x_flash.c ****   * @note   This function can be used for all STM32F10x devices.
1288:Libraries/STM32F10x_StdPeriph_Driver/src/stm32f10x_flash.c ****   * @param  None
1289:Libraries/STM32F10x_StdPeriph_Driver/src/stm32f10x_flash.c ****   * @retval FLASH ReadOut Protection Status(SET or RESET)
1290:Libraries/STM32F10x_StdPeriph_Driver/src/stm32f10x_flash.c ****   */
1291:Libraries/STM32F10x_StdPeriph_Driver/src/stm32f10x_flash.c **** FlagStatus FLASH_GetReadOutProtectionStatus(void)
1292:Libraries/STM32F10x_StdPeriph_Driver/src/stm32f10x_flash.c **** {
 375              		.loc 1 1292 0
 376              		.cfi_startproc
 377              		@ args = 0, pretend = 0, frame = 0
 378              		@ frame_needed = 0, uses_anonymous_args = 0
 379              		@ link register save eliminated.
 380              	.LVL17:
1293:Libraries/STM32F10x_StdPeriph_Driver/src/stm32f10x_flash.c ****   FlagStatus readoutstatus = RESET;
1294:Libraries/STM32F10x_StdPeriph_Driver/src/stm32f10x_flash.c ****   if ((FLASH->OBR & RDPRT_Mask) != (uint32_t)RESET)
 381              		.loc 1 1294 0
 382 0000 024B     		ldr	r3, .L44
 383 0002 D869     		ldr	r0, [r3, #28]
 384              	.LVL18:
1295:Libraries/STM32F10x_StdPeriph_Driver/src/stm32f10x_flash.c ****   {
1296:Libraries/STM32F10x_StdPeriph_Driver/src/stm32f10x_flash.c ****     readoutstatus = SET;
1297:Libraries/STM32F10x_StdPeriph_Driver/src/stm32f10x_flash.c ****   }
1298:Libraries/STM32F10x_StdPeriph_Driver/src/stm32f10x_flash.c ****   else
1299:Libraries/STM32F10x_StdPeriph_Driver/src/stm32f10x_flash.c ****   {
1300:Libraries/STM32F10x_StdPeriph_Driver/src/stm32f10x_flash.c ****     readoutstatus = RESET;
1301:Libraries/STM32F10x_StdPeriph_Driver/src/stm32f10x_flash.c ****   }
1302:Libraries/STM32F10x_StdPeriph_Driver/src/stm32f10x_flash.c ****   return readoutstatus;
1303:Libraries/STM32F10x_StdPeriph_Driver/src/stm32f10x_flash.c **** }
 385              		.loc 1 1303 0
 386 0004 C0F34000 		ubfx	r0, r0, #1, #1
 387              	.LVL19:
 388 0008 7047     		bx	lr
 389              	.L45:
 390 000a 00BF     		.align	2
 391              	.L44:
 392 000c 00200240 		.word	1073881088
 393              		.cfi_endproc
 394              	.LFE48:
 396              		.section	.text.FLASH_GetPrefetchBufferStatus,"ax",%progbits
 397              		.align	1
 398              		.p2align 2,,3
 399              		.global	FLASH_GetPrefetchBufferStatus
 400              		.syntax unified
 401              		.thumb
 402              		.thumb_func
 403              		.fpu softvfp
 405              	FLASH_GetPrefetchBufferStatus:
 406              	.LFB49:
1304:Libraries/STM32F10x_StdPeriph_Driver/src/stm32f10x_flash.c **** 
1305:Libraries/STM32F10x_StdPeriph_Driver/src/stm32f10x_flash.c **** /**
1306:Libraries/STM32F10x_StdPeriph_Driver/src/stm32f10x_flash.c ****   * @brief  Checks whether the FLASH Prefetch Buffer status is set or not.
1307:Libraries/STM32F10x_StdPeriph_Driver/src/stm32f10x_flash.c ****   * @note   This function can be used for all STM32F10x devices.
1308:Libraries/STM32F10x_StdPeriph_Driver/src/stm32f10x_flash.c ****   * @param  None
1309:Libraries/STM32F10x_StdPeriph_Driver/src/stm32f10x_flash.c ****   * @retval FLASH Prefetch Buffer Status (SET or RESET).
1310:Libraries/STM32F10x_StdPeriph_Driver/src/stm32f10x_flash.c ****   */
1311:Libraries/STM32F10x_StdPeriph_Driver/src/stm32f10x_flash.c **** FlagStatus FLASH_GetPrefetchBufferStatus(void)
1312:Libraries/STM32F10x_StdPeriph_Driver/src/stm32f10x_flash.c **** {
 407              		.loc 1 1312 0
 408              		.cfi_startproc
 409              		@ args = 0, pretend = 0, frame = 0
 410              		@ frame_needed = 0, uses_anonymous_args = 0
 411              		@ link register save eliminated.
 412              	.LVL20:
1313:Libraries/STM32F10x_StdPeriph_Driver/src/stm32f10x_flash.c ****   FlagStatus bitstatus = RESET;
1314:Libraries/STM32F10x_StdPeriph_Driver/src/stm32f10x_flash.c ****   
1315:Libraries/STM32F10x_StdPeriph_Driver/src/stm32f10x_flash.c ****   if ((FLASH->ACR & ACR_PRFTBS_Mask) != (uint32_t)RESET)
 413              		.loc 1 1315 0
 414 0000 024B     		ldr	r3, .L47
 415 0002 1868     		ldr	r0, [r3]
 416              	.LVL21:
1316:Libraries/STM32F10x_StdPeriph_Driver/src/stm32f10x_flash.c ****   {
1317:Libraries/STM32F10x_StdPeriph_Driver/src/stm32f10x_flash.c ****     bitstatus = SET;
1318:Libraries/STM32F10x_StdPeriph_Driver/src/stm32f10x_flash.c ****   }
1319:Libraries/STM32F10x_StdPeriph_Driver/src/stm32f10x_flash.c ****   else
1320:Libraries/STM32F10x_StdPeriph_Driver/src/stm32f10x_flash.c ****   {
1321:Libraries/STM32F10x_StdPeriph_Driver/src/stm32f10x_flash.c ****     bitstatus = RESET;
1322:Libraries/STM32F10x_StdPeriph_Driver/src/stm32f10x_flash.c ****   }
1323:Libraries/STM32F10x_StdPeriph_Driver/src/stm32f10x_flash.c ****   /* Return the new state of FLASH Prefetch Buffer Status (SET or RESET) */
1324:Libraries/STM32F10x_StdPeriph_Driver/src/stm32f10x_flash.c ****   return bitstatus; 
1325:Libraries/STM32F10x_StdPeriph_Driver/src/stm32f10x_flash.c **** }
 417              		.loc 1 1325 0
 418 0004 C0F34010 		ubfx	r0, r0, #5, #1
 419              	.LVL22:
 420 0008 7047     		bx	lr
 421              	.L48:
 422 000a 00BF     		.align	2
 423              	.L47:
 424 000c 00200240 		.word	1073881088
 425              		.cfi_endproc
 426              	.LFE49:
 428              		.section	.text.FLASH_ITConfig,"ax",%progbits
 429              		.align	1
 430              		.p2align 2,,3
 431              		.global	FLASH_ITConfig
 432              		.syntax unified
 433              		.thumb
 434              		.thumb_func
 435              		.fpu softvfp
 437              	FLASH_ITConfig:
 438              	.LFB50:
1326:Libraries/STM32F10x_StdPeriph_Driver/src/stm32f10x_flash.c **** 
1327:Libraries/STM32F10x_StdPeriph_Driver/src/stm32f10x_flash.c **** /**
1328:Libraries/STM32F10x_StdPeriph_Driver/src/stm32f10x_flash.c ****   * @brief  Enables or disables the specified FLASH interrupts.
1329:Libraries/STM32F10x_StdPeriph_Driver/src/stm32f10x_flash.c ****   * @note   This function can be used for all STM32F10x devices.
1330:Libraries/STM32F10x_StdPeriph_Driver/src/stm32f10x_flash.c ****   *         - For STM32F10X_XL devices, enables or disables the specified FLASH interrupts
1331:Libraries/STM32F10x_StdPeriph_Driver/src/stm32f10x_flash.c ****               for Bank1 and Bank2.
1332:Libraries/STM32F10x_StdPeriph_Driver/src/stm32f10x_flash.c ****   *         - For other devices it enables or disables the specified FLASH interrupts for Bank1.
1333:Libraries/STM32F10x_StdPeriph_Driver/src/stm32f10x_flash.c ****   * @param  FLASH_IT: specifies the FLASH interrupt sources to be enabled or disabled.
1334:Libraries/STM32F10x_StdPeriph_Driver/src/stm32f10x_flash.c ****   *   This parameter can be any combination of the following values:
1335:Libraries/STM32F10x_StdPeriph_Driver/src/stm32f10x_flash.c ****   *     @arg FLASH_IT_ERROR: FLASH Error Interrupt
1336:Libraries/STM32F10x_StdPeriph_Driver/src/stm32f10x_flash.c ****   *     @arg FLASH_IT_EOP: FLASH end of operation Interrupt
1337:Libraries/STM32F10x_StdPeriph_Driver/src/stm32f10x_flash.c ****   * @param  NewState: new state of the specified Flash interrupts.
1338:Libraries/STM32F10x_StdPeriph_Driver/src/stm32f10x_flash.c ****   *   This parameter can be: ENABLE or DISABLE.      
1339:Libraries/STM32F10x_StdPeriph_Driver/src/stm32f10x_flash.c ****   * @retval None 
1340:Libraries/STM32F10x_StdPeriph_Driver/src/stm32f10x_flash.c ****   */
1341:Libraries/STM32F10x_StdPeriph_Driver/src/stm32f10x_flash.c **** void FLASH_ITConfig(uint32_t FLASH_IT, FunctionalState NewState)
1342:Libraries/STM32F10x_StdPeriph_Driver/src/stm32f10x_flash.c **** {
 439              		.loc 1 1342 0
 440              		.cfi_startproc
 441              		@ args = 0, pretend = 0, frame = 0
 442              		@ frame_needed = 0, uses_anonymous_args = 0
 443              	.LVL23:
 444 0000 38B5     		push	{r3, r4, r5, lr}
 445              		.cfi_def_cfa_offset 16
 446              		.cfi_offset 3, -16
 447              		.cfi_offset 4, -12
 448              		.cfi_offset 5, -8
 449              		.cfi_offset 14, -4
1343:Libraries/STM32F10x_StdPeriph_Driver/src/stm32f10x_flash.c **** #ifdef STM32F10X_XL
1344:Libraries/STM32F10x_StdPeriph_Driver/src/stm32f10x_flash.c ****   /* Check the parameters */
1345:Libraries/STM32F10x_StdPeriph_Driver/src/stm32f10x_flash.c ****   assert_param(IS_FLASH_IT(FLASH_IT)); 
1346:Libraries/STM32F10x_StdPeriph_Driver/src/stm32f10x_flash.c ****   assert_param(IS_FUNCTIONAL_STATE(NewState));
1347:Libraries/STM32F10x_StdPeriph_Driver/src/stm32f10x_flash.c **** 
1348:Libraries/STM32F10x_StdPeriph_Driver/src/stm32f10x_flash.c ****   if((FLASH_IT & 0x80000000) != 0x0)
1349:Libraries/STM32F10x_StdPeriph_Driver/src/stm32f10x_flash.c ****   {
1350:Libraries/STM32F10x_StdPeriph_Driver/src/stm32f10x_flash.c ****     if(NewState != DISABLE)
1351:Libraries/STM32F10x_StdPeriph_Driver/src/stm32f10x_flash.c ****     {
1352:Libraries/STM32F10x_StdPeriph_Driver/src/stm32f10x_flash.c ****       /* Enable the interrupt sources */
1353:Libraries/STM32F10x_StdPeriph_Driver/src/stm32f10x_flash.c ****       FLASH->CR2 |= (FLASH_IT & 0x7FFFFFFF);
1354:Libraries/STM32F10x_StdPeriph_Driver/src/stm32f10x_flash.c ****     }
1355:Libraries/STM32F10x_StdPeriph_Driver/src/stm32f10x_flash.c ****     else
1356:Libraries/STM32F10x_StdPeriph_Driver/src/stm32f10x_flash.c ****     {
1357:Libraries/STM32F10x_StdPeriph_Driver/src/stm32f10x_flash.c ****       /* Disable the interrupt sources */
1358:Libraries/STM32F10x_StdPeriph_Driver/src/stm32f10x_flash.c ****       FLASH->CR2 &= ~(uint32_t)(FLASH_IT & 0x7FFFFFFF);
1359:Libraries/STM32F10x_StdPeriph_Driver/src/stm32f10x_flash.c ****     }
1360:Libraries/STM32F10x_StdPeriph_Driver/src/stm32f10x_flash.c ****   }
1361:Libraries/STM32F10x_StdPeriph_Driver/src/stm32f10x_flash.c ****   else
1362:Libraries/STM32F10x_StdPeriph_Driver/src/stm32f10x_flash.c ****   {
1363:Libraries/STM32F10x_StdPeriph_Driver/src/stm32f10x_flash.c ****     if(NewState != DISABLE)
1364:Libraries/STM32F10x_StdPeriph_Driver/src/stm32f10x_flash.c ****     {
1365:Libraries/STM32F10x_StdPeriph_Driver/src/stm32f10x_flash.c ****       /* Enable the interrupt sources */
1366:Libraries/STM32F10x_StdPeriph_Driver/src/stm32f10x_flash.c ****       FLASH->CR |= FLASH_IT;
1367:Libraries/STM32F10x_StdPeriph_Driver/src/stm32f10x_flash.c ****     }
1368:Libraries/STM32F10x_StdPeriph_Driver/src/stm32f10x_flash.c ****     else
1369:Libraries/STM32F10x_StdPeriph_Driver/src/stm32f10x_flash.c ****     {
1370:Libraries/STM32F10x_StdPeriph_Driver/src/stm32f10x_flash.c ****       /* Disable the interrupt sources */
1371:Libraries/STM32F10x_StdPeriph_Driver/src/stm32f10x_flash.c ****       FLASH->CR &= ~(uint32_t)FLASH_IT;
1372:Libraries/STM32F10x_StdPeriph_Driver/src/stm32f10x_flash.c ****     }
1373:Libraries/STM32F10x_StdPeriph_Driver/src/stm32f10x_flash.c ****   }
1374:Libraries/STM32F10x_StdPeriph_Driver/src/stm32f10x_flash.c **** #else
1375:Libraries/STM32F10x_StdPeriph_Driver/src/stm32f10x_flash.c ****   /* Check the parameters */
1376:Libraries/STM32F10x_StdPeriph_Driver/src/stm32f10x_flash.c ****   assert_param(IS_FLASH_IT(FLASH_IT)); 
 450              		.loc 1 1376 0
 451 0002 30F4A053 		bics	r3, r0, #5120
1342:Libraries/STM32F10x_StdPeriph_Driver/src/stm32f10x_flash.c **** #ifdef STM32F10X_XL
 452              		.loc 1 1342 0
 453 0006 0446     		mov	r4, r0
 454 0008 0D46     		mov	r5, r1
 455              		.loc 1 1376 0
 456 000a 09D1     		bne	.L50
 457              		.loc 1 1376 0 is_stmt 0 discriminator 2
 458 000c 40B1     		cbz	r0, .L50
1377:Libraries/STM32F10x_StdPeriph_Driver/src/stm32f10x_flash.c ****   assert_param(IS_FUNCTIONAL_STATE(NewState));
 459              		.loc 1 1377 0 is_stmt 1
 460 000e 012D     		cmp	r5, #1
 461 0010 0DD8     		bhi	.L57
 462              	.LVL24:
 463              	.L52:
1378:Libraries/STM32F10x_StdPeriph_Driver/src/stm32f10x_flash.c **** 
1379:Libraries/STM32F10x_StdPeriph_Driver/src/stm32f10x_flash.c ****   if(NewState != DISABLE)
 464              		.loc 1 1379 0
 465 0012 8DB9     		cbnz	r5, .L53
1380:Libraries/STM32F10x_StdPeriph_Driver/src/stm32f10x_flash.c ****   {
1381:Libraries/STM32F10x_StdPeriph_Driver/src/stm32f10x_flash.c ****     /* Enable the interrupt sources */
1382:Libraries/STM32F10x_StdPeriph_Driver/src/stm32f10x_flash.c ****     FLASH->CR |= FLASH_IT;
1383:Libraries/STM32F10x_StdPeriph_Driver/src/stm32f10x_flash.c ****   }
1384:Libraries/STM32F10x_StdPeriph_Driver/src/stm32f10x_flash.c ****   else
1385:Libraries/STM32F10x_StdPeriph_Driver/src/stm32f10x_flash.c ****   {
1386:Libraries/STM32F10x_StdPeriph_Driver/src/stm32f10x_flash.c ****     /* Disable the interrupt sources */
1387:Libraries/STM32F10x_StdPeriph_Driver/src/stm32f10x_flash.c ****     FLASH->CR &= ~(uint32_t)FLASH_IT;
 466              		.loc 1 1387 0
 467 0014 0B4A     		ldr	r2, .L58
 468 0016 1369     		ldr	r3, [r2, #16]
 469 0018 23EA0404 		bic	r4, r3, r4
 470              	.LVL25:
 471 001c 1461     		str	r4, [r2, #16]
1388:Libraries/STM32F10x_StdPeriph_Driver/src/stm32f10x_flash.c ****   }
1389:Libraries/STM32F10x_StdPeriph_Driver/src/stm32f10x_flash.c **** #endif /* STM32F10X_XL */
1390:Libraries/STM32F10x_StdPeriph_Driver/src/stm32f10x_flash.c **** }
 472              		.loc 1 1390 0
 473 001e 38BD     		pop	{r3, r4, r5, pc}
 474              	.LVL26:
 475              	.L50:
1376:Libraries/STM32F10x_StdPeriph_Driver/src/stm32f10x_flash.c ****   assert_param(IS_FUNCTIONAL_STATE(NewState));
 476              		.loc 1 1376 0 discriminator 3
 477 0020 4FF4AC61 		mov	r1, #1376
 478              	.LVL27:
 479 0024 0848     		ldr	r0, .L58+4
 480              	.LVL28:
 481 0026 094B     		ldr	r3, .L58+8
 482 0028 9847     		blx	r3
 483              	.LVL29:
1377:Libraries/STM32F10x_StdPeriph_Driver/src/stm32f10x_flash.c **** 
 484              		.loc 1 1377 0 discriminator 3
 485 002a 012D     		cmp	r5, #1
 486 002c F1D9     		bls	.L52
 487              	.L57:
1377:Libraries/STM32F10x_StdPeriph_Driver/src/stm32f10x_flash.c **** 
 488              		.loc 1 1377 0 is_stmt 0 discriminator 1
 489 002e 40F26151 		movw	r1, #1377
 490 0032 0548     		ldr	r0, .L58+4
 491 0034 054B     		ldr	r3, .L58+8
 492 0036 9847     		blx	r3
 493              	.LVL30:
 494              	.L53:
1382:Libraries/STM32F10x_StdPeriph_Driver/src/stm32f10x_flash.c ****   }
 495              		.loc 1 1382 0 is_stmt 1
 496 0038 024A     		ldr	r2, .L58
 497 003a 1369     		ldr	r3, [r2, #16]
 498 003c 1C43     		orrs	r4, r4, r3
 499              	.LVL31:
 500 003e 1461     		str	r4, [r2, #16]
 501              		.loc 1 1390 0
 502 0040 38BD     		pop	{r3, r4, r5, pc}
 503              	.L59:
 504 0042 00BF     		.align	2
 505              	.L58:
 506 0044 00200240 		.word	1073881088
 507 0048 00000000 		.word	.LC0
 508 004c 00000000 		.word	assert_failed
 509              		.cfi_endproc
 510              	.LFE50:
 512              		.section	.text.FLASH_GetFlagStatus,"ax",%progbits
 513              		.align	1
 514              		.p2align 2,,3
 515              		.global	FLASH_GetFlagStatus
 516              		.syntax unified
 517              		.thumb
 518              		.thumb_func
 519              		.fpu softvfp
 521              	FLASH_GetFlagStatus:
 522              	.LFB51:
1391:Libraries/STM32F10x_StdPeriph_Driver/src/stm32f10x_flash.c **** 
1392:Libraries/STM32F10x_StdPeriph_Driver/src/stm32f10x_flash.c **** /**
1393:Libraries/STM32F10x_StdPeriph_Driver/src/stm32f10x_flash.c ****   * @brief  Checks whether the specified FLASH flag is set or not.
1394:Libraries/STM32F10x_StdPeriph_Driver/src/stm32f10x_flash.c ****   * @note   This function can be used for all STM32F10x devices.
1395:Libraries/STM32F10x_StdPeriph_Driver/src/stm32f10x_flash.c ****   *         - For STM32F10X_XL devices, this function checks whether the specified 
1396:Libraries/STM32F10x_StdPeriph_Driver/src/stm32f10x_flash.c ****   *           Bank1 or Bank2 flag is set or not.
1397:Libraries/STM32F10x_StdPeriph_Driver/src/stm32f10x_flash.c ****   *         - For other devices, it checks whether the specified Bank1 flag is 
1398:Libraries/STM32F10x_StdPeriph_Driver/src/stm32f10x_flash.c ****   *           set or not.
1399:Libraries/STM32F10x_StdPeriph_Driver/src/stm32f10x_flash.c ****   * @param  FLASH_FLAG: specifies the FLASH flag to check.
1400:Libraries/STM32F10x_StdPeriph_Driver/src/stm32f10x_flash.c ****   *   This parameter can be one of the following values:
1401:Libraries/STM32F10x_StdPeriph_Driver/src/stm32f10x_flash.c ****   *     @arg FLASH_FLAG_BSY: FLASH Busy flag           
1402:Libraries/STM32F10x_StdPeriph_Driver/src/stm32f10x_flash.c ****   *     @arg FLASH_FLAG_PGERR: FLASH Program error flag       
1403:Libraries/STM32F10x_StdPeriph_Driver/src/stm32f10x_flash.c ****   *     @arg FLASH_FLAG_WRPRTERR: FLASH Write protected error flag      
1404:Libraries/STM32F10x_StdPeriph_Driver/src/stm32f10x_flash.c ****   *     @arg FLASH_FLAG_EOP: FLASH End of Operation flag           
1405:Libraries/STM32F10x_StdPeriph_Driver/src/stm32f10x_flash.c ****   *     @arg FLASH_FLAG_OPTERR:  FLASH Option Byte error flag     
1406:Libraries/STM32F10x_StdPeriph_Driver/src/stm32f10x_flash.c ****   * @retval The new state of FLASH_FLAG (SET or RESET).
1407:Libraries/STM32F10x_StdPeriph_Driver/src/stm32f10x_flash.c ****   */
1408:Libraries/STM32F10x_StdPeriph_Driver/src/stm32f10x_flash.c **** FlagStatus FLASH_GetFlagStatus(uint32_t FLASH_FLAG)
1409:Libraries/STM32F10x_StdPeriph_Driver/src/stm32f10x_flash.c **** {
 523              		.loc 1 1409 0
 524              		.cfi_startproc
 525              		@ args = 0, pretend = 0, frame = 0
 526              		@ frame_needed = 0, uses_anonymous_args = 0
 527              	.LVL32:
1410:Libraries/STM32F10x_StdPeriph_Driver/src/stm32f10x_flash.c ****   FlagStatus bitstatus = RESET;
1411:Libraries/STM32F10x_StdPeriph_Driver/src/stm32f10x_flash.c **** 
1412:Libraries/STM32F10x_StdPeriph_Driver/src/stm32f10x_flash.c **** #ifdef STM32F10X_XL
1413:Libraries/STM32F10x_StdPeriph_Driver/src/stm32f10x_flash.c ****   /* Check the parameters */
1414:Libraries/STM32F10x_StdPeriph_Driver/src/stm32f10x_flash.c ****   assert_param(IS_FLASH_GET_FLAG(FLASH_FLAG)) ;
1415:Libraries/STM32F10x_StdPeriph_Driver/src/stm32f10x_flash.c ****   if(FLASH_FLAG == FLASH_FLAG_OPTERR) 
1416:Libraries/STM32F10x_StdPeriph_Driver/src/stm32f10x_flash.c ****   {
1417:Libraries/STM32F10x_StdPeriph_Driver/src/stm32f10x_flash.c ****     if((FLASH->OBR & FLASH_FLAG_OPTERR) != (uint32_t)RESET)
1418:Libraries/STM32F10x_StdPeriph_Driver/src/stm32f10x_flash.c ****     {
1419:Libraries/STM32F10x_StdPeriph_Driver/src/stm32f10x_flash.c ****       bitstatus = SET;
1420:Libraries/STM32F10x_StdPeriph_Driver/src/stm32f10x_flash.c ****     }
1421:Libraries/STM32F10x_StdPeriph_Driver/src/stm32f10x_flash.c ****     else
1422:Libraries/STM32F10x_StdPeriph_Driver/src/stm32f10x_flash.c ****     {
1423:Libraries/STM32F10x_StdPeriph_Driver/src/stm32f10x_flash.c ****       bitstatus = RESET;
1424:Libraries/STM32F10x_StdPeriph_Driver/src/stm32f10x_flash.c ****     }
1425:Libraries/STM32F10x_StdPeriph_Driver/src/stm32f10x_flash.c ****   }
1426:Libraries/STM32F10x_StdPeriph_Driver/src/stm32f10x_flash.c ****   else
1427:Libraries/STM32F10x_StdPeriph_Driver/src/stm32f10x_flash.c ****   {
1428:Libraries/STM32F10x_StdPeriph_Driver/src/stm32f10x_flash.c ****     if((FLASH_FLAG & 0x80000000) != 0x0)
1429:Libraries/STM32F10x_StdPeriph_Driver/src/stm32f10x_flash.c ****     {
1430:Libraries/STM32F10x_StdPeriph_Driver/src/stm32f10x_flash.c ****       if((FLASH->SR2 & FLASH_FLAG) != (uint32_t)RESET)
1431:Libraries/STM32F10x_StdPeriph_Driver/src/stm32f10x_flash.c ****       {
1432:Libraries/STM32F10x_StdPeriph_Driver/src/stm32f10x_flash.c ****         bitstatus = SET;
1433:Libraries/STM32F10x_StdPeriph_Driver/src/stm32f10x_flash.c ****       }
1434:Libraries/STM32F10x_StdPeriph_Driver/src/stm32f10x_flash.c ****       else
1435:Libraries/STM32F10x_StdPeriph_Driver/src/stm32f10x_flash.c ****       {
1436:Libraries/STM32F10x_StdPeriph_Driver/src/stm32f10x_flash.c ****         bitstatus = RESET;
1437:Libraries/STM32F10x_StdPeriph_Driver/src/stm32f10x_flash.c ****       }
1438:Libraries/STM32F10x_StdPeriph_Driver/src/stm32f10x_flash.c ****     }
1439:Libraries/STM32F10x_StdPeriph_Driver/src/stm32f10x_flash.c ****     else
1440:Libraries/STM32F10x_StdPeriph_Driver/src/stm32f10x_flash.c ****     {
1441:Libraries/STM32F10x_StdPeriph_Driver/src/stm32f10x_flash.c ****       if((FLASH->SR & FLASH_FLAG) != (uint32_t)RESET)
1442:Libraries/STM32F10x_StdPeriph_Driver/src/stm32f10x_flash.c ****       {
1443:Libraries/STM32F10x_StdPeriph_Driver/src/stm32f10x_flash.c ****         bitstatus = SET;
1444:Libraries/STM32F10x_StdPeriph_Driver/src/stm32f10x_flash.c ****       }
1445:Libraries/STM32F10x_StdPeriph_Driver/src/stm32f10x_flash.c ****       else
1446:Libraries/STM32F10x_StdPeriph_Driver/src/stm32f10x_flash.c ****       {
1447:Libraries/STM32F10x_StdPeriph_Driver/src/stm32f10x_flash.c ****         bitstatus = RESET;
1448:Libraries/STM32F10x_StdPeriph_Driver/src/stm32f10x_flash.c ****       }
1449:Libraries/STM32F10x_StdPeriph_Driver/src/stm32f10x_flash.c ****     }
1450:Libraries/STM32F10x_StdPeriph_Driver/src/stm32f10x_flash.c ****   }
1451:Libraries/STM32F10x_StdPeriph_Driver/src/stm32f10x_flash.c **** #else
1452:Libraries/STM32F10x_StdPeriph_Driver/src/stm32f10x_flash.c ****   /* Check the parameters */
1453:Libraries/STM32F10x_StdPeriph_Driver/src/stm32f10x_flash.c ****   assert_param(IS_FLASH_GET_FLAG(FLASH_FLAG)) ;
 528              		.loc 1 1453 0
 529 0000 0128     		cmp	r0, #1
 530 0002 0FD0     		beq	.L61
 531              		.loc 1 1453 0 is_stmt 0 discriminator 2
 532 0004 021F     		subs	r2, r0, #4
 533 0006 1C2A     		cmp	r2, #28
1409:Libraries/STM32F10x_StdPeriph_Driver/src/stm32f10x_flash.c ****   FlagStatus bitstatus = RESET;
 534              		.loc 1 1409 0 is_stmt 1 discriminator 2
 535 0008 10B5     		push	{r4, lr}
 536              		.cfi_def_cfa_offset 8
 537              		.cfi_offset 4, -8
 538              		.cfi_offset 14, -4
 539 000a 0446     		mov	r4, r0
 540              		.loc 1 1453 0 discriminator 2
 541 000c 0FD8     		bhi	.L62
 542 000e 0B4B     		ldr	r3, .L73
 543 0010 D340     		lsrs	r3, r3, r2
 544 0012 DB07     		lsls	r3, r3, #31
 545 0014 0BD5     		bpl	.L62
 546              	.LVL33:
 547              	.L63:
1454:Libraries/STM32F10x_StdPeriph_Driver/src/stm32f10x_flash.c ****   if(FLASH_FLAG == FLASH_FLAG_OPTERR) 
1455:Libraries/STM32F10x_StdPeriph_Driver/src/stm32f10x_flash.c ****   {
1456:Libraries/STM32F10x_StdPeriph_Driver/src/stm32f10x_flash.c ****     if((FLASH->OBR & FLASH_FLAG_OPTERR) != (uint32_t)RESET)
1457:Libraries/STM32F10x_StdPeriph_Driver/src/stm32f10x_flash.c ****     {
1458:Libraries/STM32F10x_StdPeriph_Driver/src/stm32f10x_flash.c ****       bitstatus = SET;
1459:Libraries/STM32F10x_StdPeriph_Driver/src/stm32f10x_flash.c ****     }
1460:Libraries/STM32F10x_StdPeriph_Driver/src/stm32f10x_flash.c ****     else
1461:Libraries/STM32F10x_StdPeriph_Driver/src/stm32f10x_flash.c ****     {
1462:Libraries/STM32F10x_StdPeriph_Driver/src/stm32f10x_flash.c ****       bitstatus = RESET;
1463:Libraries/STM32F10x_StdPeriph_Driver/src/stm32f10x_flash.c ****     }
1464:Libraries/STM32F10x_StdPeriph_Driver/src/stm32f10x_flash.c ****   }
1465:Libraries/STM32F10x_StdPeriph_Driver/src/stm32f10x_flash.c ****   else
1466:Libraries/STM32F10x_StdPeriph_Driver/src/stm32f10x_flash.c ****   {
1467:Libraries/STM32F10x_StdPeriph_Driver/src/stm32f10x_flash.c ****    if((FLASH->SR & FLASH_FLAG) != (uint32_t)RESET)
 548              		.loc 1 1467 0
 549 0016 0A4B     		ldr	r3, .L73+4
 550 0018 DB68     		ldr	r3, [r3, #12]
 551 001a 2342     		tst	r3, r4
1462:Libraries/STM32F10x_StdPeriph_Driver/src/stm32f10x_flash.c ****     }
 552              		.loc 1 1462 0
 553 001c 14BF     		ite	ne
 554 001e 0120     		movne	r0, #1
 555 0020 0020     		moveq	r0, #0
 556              	.LVL34:
1468:Libraries/STM32F10x_StdPeriph_Driver/src/stm32f10x_flash.c ****     {
1469:Libraries/STM32F10x_StdPeriph_Driver/src/stm32f10x_flash.c ****       bitstatus = SET;
1470:Libraries/STM32F10x_StdPeriph_Driver/src/stm32f10x_flash.c ****     }
1471:Libraries/STM32F10x_StdPeriph_Driver/src/stm32f10x_flash.c ****     else
1472:Libraries/STM32F10x_StdPeriph_Driver/src/stm32f10x_flash.c ****     {
1473:Libraries/STM32F10x_StdPeriph_Driver/src/stm32f10x_flash.c ****       bitstatus = RESET;
1474:Libraries/STM32F10x_StdPeriph_Driver/src/stm32f10x_flash.c ****     }
1475:Libraries/STM32F10x_StdPeriph_Driver/src/stm32f10x_flash.c ****   }
1476:Libraries/STM32F10x_StdPeriph_Driver/src/stm32f10x_flash.c **** #endif /* STM32F10X_XL */
1477:Libraries/STM32F10x_StdPeriph_Driver/src/stm32f10x_flash.c **** 
1478:Libraries/STM32F10x_StdPeriph_Driver/src/stm32f10x_flash.c ****   /* Return the new state of FLASH_FLAG (SET or RESET) */
1479:Libraries/STM32F10x_StdPeriph_Driver/src/stm32f10x_flash.c ****   return bitstatus;
1480:Libraries/STM32F10x_StdPeriph_Driver/src/stm32f10x_flash.c **** }
 557              		.loc 1 1480 0
 558 0022 10BD     		pop	{r4, pc}
 559              	.LVL35:
 560              	.L61:
 561              		.cfi_def_cfa_offset 0
 562              		.cfi_restore 4
 563              		.cfi_restore 14
1456:Libraries/STM32F10x_StdPeriph_Driver/src/stm32f10x_flash.c ****     {
 564              		.loc 1 1456 0
 565 0024 064B     		ldr	r3, .L73+4
 566 0026 D869     		ldr	r0, [r3, #28]
 567              	.LVL36:
1462:Libraries/STM32F10x_StdPeriph_Driver/src/stm32f10x_flash.c ****     }
 568              		.loc 1 1462 0
 569 0028 00F00100 		and	r0, r0, #1
 570              		.loc 1 1480 0
 571 002c 7047     		bx	lr
 572              	.LVL37:
 573              	.L62:
 574              		.cfi_def_cfa_offset 8
 575              		.cfi_offset 4, -8
 576              		.cfi_offset 14, -4
1453:Libraries/STM32F10x_StdPeriph_Driver/src/stm32f10x_flash.c ****   if(FLASH_FLAG == FLASH_FLAG_OPTERR) 
 577              		.loc 1 1453 0 discriminator 9
 578 002e 40F2AD51 		movw	r1, #1453
 579 0032 044B     		ldr	r3, .L73+8
 580 0034 0448     		ldr	r0, .L73+12
 581              	.LVL38:
 582 0036 9847     		blx	r3
 583              	.LVL39:
 584 0038 EDE7     		b	.L63
 585              	.L74:
 586 003a 00BF     		.align	2
 587              	.L73:
 588 003c 01100010 		.word	268439553
 589 0040 00200240 		.word	1073881088
 590 0044 00000000 		.word	assert_failed
 591 0048 00000000 		.word	.LC0
 592              		.cfi_endproc
 593              	.LFE51:
 595              		.section	.text.FLASH_ClearFlag,"ax",%progbits
 596              		.align	1
 597              		.p2align 2,,3
 598              		.global	FLASH_ClearFlag
 599              		.syntax unified
 600              		.thumb
 601              		.thumb_func
 602              		.fpu softvfp
 604              	FLASH_ClearFlag:
 605              	.LFB52:
1481:Libraries/STM32F10x_StdPeriph_Driver/src/stm32f10x_flash.c **** 
1482:Libraries/STM32F10x_StdPeriph_Driver/src/stm32f10x_flash.c **** /**
1483:Libraries/STM32F10x_StdPeriph_Driver/src/stm32f10x_flash.c ****   * @brief  Clears the FLASHs pending flags.
1484:Libraries/STM32F10x_StdPeriph_Driver/src/stm32f10x_flash.c ****   * @note   This function can be used for all STM32F10x devices.
1485:Libraries/STM32F10x_StdPeriph_Driver/src/stm32f10x_flash.c ****   *         - For STM32F10X_XL devices, this function clears Bank1 or Bank2s pending flags
1486:Libraries/STM32F10x_StdPeriph_Driver/src/stm32f10x_flash.c ****   *         - For other devices, it clears Bank1s pending flags.
1487:Libraries/STM32F10x_StdPeriph_Driver/src/stm32f10x_flash.c ****   * @param  FLASH_FLAG: specifies the FLASH flags to clear.
1488:Libraries/STM32F10x_StdPeriph_Driver/src/stm32f10x_flash.c ****   *   This parameter can be any combination of the following values:         
1489:Libraries/STM32F10x_StdPeriph_Driver/src/stm32f10x_flash.c ****   *     @arg FLASH_FLAG_PGERR: FLASH Program error flag       
1490:Libraries/STM32F10x_StdPeriph_Driver/src/stm32f10x_flash.c ****   *     @arg FLASH_FLAG_WRPRTERR: FLASH Write protected error flag      
1491:Libraries/STM32F10x_StdPeriph_Driver/src/stm32f10x_flash.c ****   *     @arg FLASH_FLAG_EOP: FLASH End of Operation flag           
1492:Libraries/STM32F10x_StdPeriph_Driver/src/stm32f10x_flash.c ****   * @retval None
1493:Libraries/STM32F10x_StdPeriph_Driver/src/stm32f10x_flash.c ****   */
1494:Libraries/STM32F10x_StdPeriph_Driver/src/stm32f10x_flash.c **** void FLASH_ClearFlag(uint32_t FLASH_FLAG)
1495:Libraries/STM32F10x_StdPeriph_Driver/src/stm32f10x_flash.c **** {
 606              		.loc 1 1495 0
 607              		.cfi_startproc
 608              		@ args = 0, pretend = 0, frame = 0
 609              		@ frame_needed = 0, uses_anonymous_args = 0
 610              	.LVL40:
1496:Libraries/STM32F10x_StdPeriph_Driver/src/stm32f10x_flash.c **** #ifdef STM32F10X_XL
1497:Libraries/STM32F10x_StdPeriph_Driver/src/stm32f10x_flash.c ****   /* Check the parameters */
1498:Libraries/STM32F10x_StdPeriph_Driver/src/stm32f10x_flash.c ****   assert_param(IS_FLASH_CLEAR_FLAG(FLASH_FLAG)) ;
1499:Libraries/STM32F10x_StdPeriph_Driver/src/stm32f10x_flash.c **** 
1500:Libraries/STM32F10x_StdPeriph_Driver/src/stm32f10x_flash.c ****   if((FLASH_FLAG & 0x80000000) != 0x0)
1501:Libraries/STM32F10x_StdPeriph_Driver/src/stm32f10x_flash.c ****   {
1502:Libraries/STM32F10x_StdPeriph_Driver/src/stm32f10x_flash.c ****     /* Clear the flags */
1503:Libraries/STM32F10x_StdPeriph_Driver/src/stm32f10x_flash.c ****     FLASH->SR2 = FLASH_FLAG;
1504:Libraries/STM32F10x_StdPeriph_Driver/src/stm32f10x_flash.c ****   }
1505:Libraries/STM32F10x_StdPeriph_Driver/src/stm32f10x_flash.c ****   else
1506:Libraries/STM32F10x_StdPeriph_Driver/src/stm32f10x_flash.c ****   {
1507:Libraries/STM32F10x_StdPeriph_Driver/src/stm32f10x_flash.c ****     /* Clear the flags */
1508:Libraries/STM32F10x_StdPeriph_Driver/src/stm32f10x_flash.c ****     FLASH->SR = FLASH_FLAG;
1509:Libraries/STM32F10x_StdPeriph_Driver/src/stm32f10x_flash.c ****   }  
1510:Libraries/STM32F10x_StdPeriph_Driver/src/stm32f10x_flash.c **** 
1511:Libraries/STM32F10x_StdPeriph_Driver/src/stm32f10x_flash.c **** #else
1512:Libraries/STM32F10x_StdPeriph_Driver/src/stm32f10x_flash.c ****   /* Check the parameters */
1513:Libraries/STM32F10x_StdPeriph_Driver/src/stm32f10x_flash.c ****   assert_param(IS_FLASH_CLEAR_FLAG(FLASH_FLAG)) ;
 611              		.loc 1 1513 0
 612 0000 30F03503 		bics	r3, r0, #53
1495:Libraries/STM32F10x_StdPeriph_Driver/src/stm32f10x_flash.c **** #ifdef STM32F10X_XL
 613              		.loc 1 1495 0
 614 0004 10B5     		push	{r4, lr}
 615              		.cfi_def_cfa_offset 8
 616              		.cfi_offset 4, -8
 617              		.cfi_offset 14, -4
1495:Libraries/STM32F10x_StdPeriph_Driver/src/stm32f10x_flash.c **** #ifdef STM32F10X_XL
 618              		.loc 1 1495 0
 619 0006 0446     		mov	r4, r0
 620              		.loc 1 1513 0
 621 0008 00D1     		bne	.L76
 622              		.loc 1 1513 0 is_stmt 0 discriminator 2
 623 000a 20B9     		cbnz	r0, .L77
 624              	.L76:
 625              		.loc 1 1513 0 discriminator 3
 626 000c 40F2E951 		movw	r1, #1513
 627 0010 0248     		ldr	r0, .L79
 628              	.LVL41:
 629 0012 034B     		ldr	r3, .L79+4
 630 0014 9847     		blx	r3
 631              	.LVL42:
 632              	.L77:
1514:Libraries/STM32F10x_StdPeriph_Driver/src/stm32f10x_flash.c ****   
1515:Libraries/STM32F10x_StdPeriph_Driver/src/stm32f10x_flash.c ****   /* Clear the flags */
1516:Libraries/STM32F10x_StdPeriph_Driver/src/stm32f10x_flash.c ****   FLASH->SR = FLASH_FLAG;
 633              		.loc 1 1516 0 is_stmt 1
 634 0016 034B     		ldr	r3, .L79+8
 635 0018 DC60     		str	r4, [r3, #12]
1517:Libraries/STM32F10x_StdPeriph_Driver/src/stm32f10x_flash.c **** #endif /* STM32F10X_XL */
1518:Libraries/STM32F10x_StdPeriph_Driver/src/stm32f10x_flash.c **** }
 636              		.loc 1 1518 0
 637 001a 10BD     		pop	{r4, pc}
 638              	.LVL43:
 639              	.L80:
 640              		.align	2
 641              	.L79:
 642 001c 00000000 		.word	.LC0
 643 0020 00000000 		.word	assert_failed
 644 0024 00200240 		.word	1073881088
 645              		.cfi_endproc
 646              	.LFE52:
 648              		.section	.text.FLASH_GetStatus,"ax",%progbits
 649              		.align	1
 650              		.p2align 2,,3
 651              		.global	FLASH_GetStatus
 652              		.syntax unified
 653              		.thumb
 654              		.thumb_func
 655              		.fpu softvfp
 657              	FLASH_GetStatus:
 658              	.LFB53:
1519:Libraries/STM32F10x_StdPeriph_Driver/src/stm32f10x_flash.c **** 
1520:Libraries/STM32F10x_StdPeriph_Driver/src/stm32f10x_flash.c **** /**
1521:Libraries/STM32F10x_StdPeriph_Driver/src/stm32f10x_flash.c ****   * @brief  Returns the FLASH Status.
1522:Libraries/STM32F10x_StdPeriph_Driver/src/stm32f10x_flash.c ****   * @note   This function can be used for all STM32F10x devices, it is equivalent
1523:Libraries/STM32F10x_StdPeriph_Driver/src/stm32f10x_flash.c ****   *    to FLASH_GetBank1Status function.
1524:Libraries/STM32F10x_StdPeriph_Driver/src/stm32f10x_flash.c ****   * @param  None
1525:Libraries/STM32F10x_StdPeriph_Driver/src/stm32f10x_flash.c ****   * @retval FLASH Status: The returned value can be: FLASH_BUSY, FLASH_ERROR_PG,
1526:Libraries/STM32F10x_StdPeriph_Driver/src/stm32f10x_flash.c ****   *   FLASH_ERROR_WRP or FLASH_COMPLETE
1527:Libraries/STM32F10x_StdPeriph_Driver/src/stm32f10x_flash.c ****   */
1528:Libraries/STM32F10x_StdPeriph_Driver/src/stm32f10x_flash.c **** FLASH_Status FLASH_GetStatus(void)
1529:Libraries/STM32F10x_StdPeriph_Driver/src/stm32f10x_flash.c **** {
 659              		.loc 1 1529 0
 660              		.cfi_startproc
 661              		@ args = 0, pretend = 0, frame = 0
 662              		@ frame_needed = 0, uses_anonymous_args = 0
 663              		@ link register save eliminated.
 664              	.LVL44:
1530:Libraries/STM32F10x_StdPeriph_Driver/src/stm32f10x_flash.c ****   FLASH_Status flashstatus = FLASH_COMPLETE;
1531:Libraries/STM32F10x_StdPeriph_Driver/src/stm32f10x_flash.c ****   
1532:Libraries/STM32F10x_StdPeriph_Driver/src/stm32f10x_flash.c ****   if((FLASH->SR & FLASH_FLAG_BSY) == FLASH_FLAG_BSY) 
 665              		.loc 1 1532 0
 666 0000 084B     		ldr	r3, .L86
 667 0002 DA68     		ldr	r2, [r3, #12]
 668 0004 D107     		lsls	r1, r2, #31
 669 0006 09D4     		bmi	.L83
1533:Libraries/STM32F10x_StdPeriph_Driver/src/stm32f10x_flash.c ****   {
1534:Libraries/STM32F10x_StdPeriph_Driver/src/stm32f10x_flash.c ****     flashstatus = FLASH_BUSY;
1535:Libraries/STM32F10x_StdPeriph_Driver/src/stm32f10x_flash.c ****   }
1536:Libraries/STM32F10x_StdPeriph_Driver/src/stm32f10x_flash.c ****   else 
1537:Libraries/STM32F10x_StdPeriph_Driver/src/stm32f10x_flash.c ****   {  
1538:Libraries/STM32F10x_StdPeriph_Driver/src/stm32f10x_flash.c ****     if((FLASH->SR & FLASH_FLAG_PGERR) != 0)
 670              		.loc 1 1538 0
 671 0008 DA68     		ldr	r2, [r3, #12]
 672 000a 5207     		lsls	r2, r2, #29
 673 000c 08D4     		bmi	.L84
1539:Libraries/STM32F10x_StdPeriph_Driver/src/stm32f10x_flash.c ****     { 
1540:Libraries/STM32F10x_StdPeriph_Driver/src/stm32f10x_flash.c ****       flashstatus = FLASH_ERROR_PG;
1541:Libraries/STM32F10x_StdPeriph_Driver/src/stm32f10x_flash.c ****     }
1542:Libraries/STM32F10x_StdPeriph_Driver/src/stm32f10x_flash.c ****     else 
1543:Libraries/STM32F10x_StdPeriph_Driver/src/stm32f10x_flash.c ****     {
1544:Libraries/STM32F10x_StdPeriph_Driver/src/stm32f10x_flash.c ****       if((FLASH->SR & FLASH_FLAG_WRPRTERR) != 0 )
 674              		.loc 1 1544 0
 675 000e DB68     		ldr	r3, [r3, #12]
 676 0010 13F0100F 		tst	r3, #16
1545:Libraries/STM32F10x_StdPeriph_Driver/src/stm32f10x_flash.c ****       {
1546:Libraries/STM32F10x_StdPeriph_Driver/src/stm32f10x_flash.c ****         flashstatus = FLASH_ERROR_WRP;
1547:Libraries/STM32F10x_StdPeriph_Driver/src/stm32f10x_flash.c ****       }
1548:Libraries/STM32F10x_StdPeriph_Driver/src/stm32f10x_flash.c ****       else
1549:Libraries/STM32F10x_StdPeriph_Driver/src/stm32f10x_flash.c ****       {
1550:Libraries/STM32F10x_StdPeriph_Driver/src/stm32f10x_flash.c ****         flashstatus = FLASH_COMPLETE;
 677              		.loc 1 1550 0
 678 0014 14BF     		ite	ne
 679 0016 0320     		movne	r0, #3
 680 0018 0420     		moveq	r0, #4
 681 001a 7047     		bx	lr
 682              	.L83:
1534:Libraries/STM32F10x_StdPeriph_Driver/src/stm32f10x_flash.c ****   }
 683              		.loc 1 1534 0
 684 001c 0120     		movs	r0, #1
 685 001e 7047     		bx	lr
 686              	.L84:
1540:Libraries/STM32F10x_StdPeriph_Driver/src/stm32f10x_flash.c ****     }
 687              		.loc 1 1540 0
 688 0020 0220     		movs	r0, #2
 689              	.LVL45:
1551:Libraries/STM32F10x_StdPeriph_Driver/src/stm32f10x_flash.c ****       }
1552:Libraries/STM32F10x_StdPeriph_Driver/src/stm32f10x_flash.c ****     }
1553:Libraries/STM32F10x_StdPeriph_Driver/src/stm32f10x_flash.c ****   }
1554:Libraries/STM32F10x_StdPeriph_Driver/src/stm32f10x_flash.c ****   /* Return the Flash Status */
1555:Libraries/STM32F10x_StdPeriph_Driver/src/stm32f10x_flash.c ****   return flashstatus;
1556:Libraries/STM32F10x_StdPeriph_Driver/src/stm32f10x_flash.c **** }
 690              		.loc 1 1556 0
 691 0022 7047     		bx	lr
 692              	.L87:
 693              		.align	2
 694              	.L86:
 695 0024 00200240 		.word	1073881088
 696              		.cfi_endproc
 697              	.LFE53:
 699              		.section	.text.FLASH_GetBank1Status,"ax",%progbits
 700              		.align	1
 701              		.p2align 2,,3
 702              		.global	FLASH_GetBank1Status
 703              		.syntax unified
 704              		.thumb
 705              		.thumb_func
 706              		.fpu softvfp
 708              	FLASH_GetBank1Status:
 709              	.LFB54:
1557:Libraries/STM32F10x_StdPeriph_Driver/src/stm32f10x_flash.c **** 
1558:Libraries/STM32F10x_StdPeriph_Driver/src/stm32f10x_flash.c **** /**
1559:Libraries/STM32F10x_StdPeriph_Driver/src/stm32f10x_flash.c ****   * @brief  Returns the FLASH Bank1 Status.
1560:Libraries/STM32F10x_StdPeriph_Driver/src/stm32f10x_flash.c ****   * @note   This function can be used for all STM32F10x devices, it is equivalent
1561:Libraries/STM32F10x_StdPeriph_Driver/src/stm32f10x_flash.c ****   *   to FLASH_GetStatus function.
1562:Libraries/STM32F10x_StdPeriph_Driver/src/stm32f10x_flash.c ****   * @param  None
1563:Libraries/STM32F10x_StdPeriph_Driver/src/stm32f10x_flash.c ****   * @retval FLASH Status: The returned value can be: FLASH_BUSY, FLASH_ERROR_PG,
1564:Libraries/STM32F10x_StdPeriph_Driver/src/stm32f10x_flash.c ****   *   FLASH_ERROR_WRP or FLASH_COMPLETE
1565:Libraries/STM32F10x_StdPeriph_Driver/src/stm32f10x_flash.c ****   */
1566:Libraries/STM32F10x_StdPeriph_Driver/src/stm32f10x_flash.c **** FLASH_Status FLASH_GetBank1Status(void)
1567:Libraries/STM32F10x_StdPeriph_Driver/src/stm32f10x_flash.c **** {
 710              		.loc 1 1567 0
 711              		.cfi_startproc
 712              		@ args = 0, pretend = 0, frame = 0
 713              		@ frame_needed = 0, uses_anonymous_args = 0
 714              		@ link register save eliminated.
 715              	.LVL46:
1568:Libraries/STM32F10x_StdPeriph_Driver/src/stm32f10x_flash.c ****   FLASH_Status flashstatus = FLASH_COMPLETE;
1569:Libraries/STM32F10x_StdPeriph_Driver/src/stm32f10x_flash.c ****   
1570:Libraries/STM32F10x_StdPeriph_Driver/src/stm32f10x_flash.c ****   if((FLASH->SR & FLASH_FLAG_BANK1_BSY) == FLASH_FLAG_BSY) 
 716              		.loc 1 1570 0
 717 0000 084B     		ldr	r3, .L93
 718 0002 DA68     		ldr	r2, [r3, #12]
 719 0004 D107     		lsls	r1, r2, #31
 720 0006 09D4     		bmi	.L90
1571:Libraries/STM32F10x_StdPeriph_Driver/src/stm32f10x_flash.c ****   {
1572:Libraries/STM32F10x_StdPeriph_Driver/src/stm32f10x_flash.c ****     flashstatus = FLASH_BUSY;
1573:Libraries/STM32F10x_StdPeriph_Driver/src/stm32f10x_flash.c ****   }
1574:Libraries/STM32F10x_StdPeriph_Driver/src/stm32f10x_flash.c ****   else 
1575:Libraries/STM32F10x_StdPeriph_Driver/src/stm32f10x_flash.c ****   {  
1576:Libraries/STM32F10x_StdPeriph_Driver/src/stm32f10x_flash.c ****     if((FLASH->SR & FLASH_FLAG_BANK1_PGERR) != 0)
 721              		.loc 1 1576 0
 722 0008 DA68     		ldr	r2, [r3, #12]
 723 000a 5207     		lsls	r2, r2, #29
 724 000c 08D4     		bmi	.L91
 725              	.LBB6:
 726              	.LBB7:
1577:Libraries/STM32F10x_StdPeriph_Driver/src/stm32f10x_flash.c ****     { 
1578:Libraries/STM32F10x_StdPeriph_Driver/src/stm32f10x_flash.c ****       flashstatus = FLASH_ERROR_PG;
1579:Libraries/STM32F10x_StdPeriph_Driver/src/stm32f10x_flash.c ****     }
1580:Libraries/STM32F10x_StdPeriph_Driver/src/stm32f10x_flash.c ****     else 
1581:Libraries/STM32F10x_StdPeriph_Driver/src/stm32f10x_flash.c ****     {
1582:Libraries/STM32F10x_StdPeriph_Driver/src/stm32f10x_flash.c ****       if((FLASH->SR & FLASH_FLAG_BANK1_WRPRTERR) != 0 )
 727              		.loc 1 1582 0
 728 000e DB68     		ldr	r3, [r3, #12]
 729 0010 13F0100F 		tst	r3, #16
1583:Libraries/STM32F10x_StdPeriph_Driver/src/stm32f10x_flash.c ****       {
1584:Libraries/STM32F10x_StdPeriph_Driver/src/stm32f10x_flash.c ****         flashstatus = FLASH_ERROR_WRP;
1585:Libraries/STM32F10x_StdPeriph_Driver/src/stm32f10x_flash.c ****       }
1586:Libraries/STM32F10x_StdPeriph_Driver/src/stm32f10x_flash.c ****       else
1587:Libraries/STM32F10x_StdPeriph_Driver/src/stm32f10x_flash.c ****       {
1588:Libraries/STM32F10x_StdPeriph_Driver/src/stm32f10x_flash.c ****         flashstatus = FLASH_COMPLETE;
 730              		.loc 1 1588 0
 731 0014 14BF     		ite	ne
 732 0016 0320     		movne	r0, #3
 733 0018 0420     		moveq	r0, #4
 734 001a 7047     		bx	lr
 735              	.L90:
 736              	.LBE7:
 737              	.LBE6:
1572:Libraries/STM32F10x_StdPeriph_Driver/src/stm32f10x_flash.c ****   }
 738              		.loc 1 1572 0
 739 001c 0120     		movs	r0, #1
 740 001e 7047     		bx	lr
 741              	.L91:
1578:Libraries/STM32F10x_StdPeriph_Driver/src/stm32f10x_flash.c ****     }
 742              		.loc 1 1578 0
 743 0020 0220     		movs	r0, #2
 744              	.LVL47:
1589:Libraries/STM32F10x_StdPeriph_Driver/src/stm32f10x_flash.c ****       }
1590:Libraries/STM32F10x_StdPeriph_Driver/src/stm32f10x_flash.c ****     }
1591:Libraries/STM32F10x_StdPeriph_Driver/src/stm32f10x_flash.c ****   }
1592:Libraries/STM32F10x_StdPeriph_Driver/src/stm32f10x_flash.c ****   /* Return the Flash Status */
1593:Libraries/STM32F10x_StdPeriph_Driver/src/stm32f10x_flash.c ****   return flashstatus;
1594:Libraries/STM32F10x_StdPeriph_Driver/src/stm32f10x_flash.c **** }
 745              		.loc 1 1594 0
 746 0022 7047     		bx	lr
 747              	.L94:
 748              		.align	2
 749              	.L93:
 750 0024 00200240 		.word	1073881088
 751              		.cfi_endproc
 752              	.LFE54:
 754              		.section	.text.FLASH_WaitForLastOperation,"ax",%progbits
 755              		.align	1
 756              		.p2align 2,,3
 757              		.global	FLASH_WaitForLastOperation
 758              		.syntax unified
 759              		.thumb
 760              		.thumb_func
 761              		.fpu softvfp
 763              	FLASH_WaitForLastOperation:
 764              	.LFB55:
1595:Libraries/STM32F10x_StdPeriph_Driver/src/stm32f10x_flash.c **** 
1596:Libraries/STM32F10x_StdPeriph_Driver/src/stm32f10x_flash.c **** #ifdef STM32F10X_XL
1597:Libraries/STM32F10x_StdPeriph_Driver/src/stm32f10x_flash.c **** /**
1598:Libraries/STM32F10x_StdPeriph_Driver/src/stm32f10x_flash.c ****   * @brief  Returns the FLASH Bank2 Status.
1599:Libraries/STM32F10x_StdPeriph_Driver/src/stm32f10x_flash.c ****   * @note   This function can be used for STM32F10x_XL density devices.
1600:Libraries/STM32F10x_StdPeriph_Driver/src/stm32f10x_flash.c ****   * @param  None
1601:Libraries/STM32F10x_StdPeriph_Driver/src/stm32f10x_flash.c ****   * @retval FLASH Status: The returned value can be: FLASH_BUSY, FLASH_ERROR_PG,
1602:Libraries/STM32F10x_StdPeriph_Driver/src/stm32f10x_flash.c ****   *   FLASH_ERROR_WRP or FLASH_COMPLETE
1603:Libraries/STM32F10x_StdPeriph_Driver/src/stm32f10x_flash.c ****   */
1604:Libraries/STM32F10x_StdPeriph_Driver/src/stm32f10x_flash.c **** FLASH_Status FLASH_GetBank2Status(void)
1605:Libraries/STM32F10x_StdPeriph_Driver/src/stm32f10x_flash.c **** {
1606:Libraries/STM32F10x_StdPeriph_Driver/src/stm32f10x_flash.c ****   FLASH_Status flashstatus = FLASH_COMPLETE;
1607:Libraries/STM32F10x_StdPeriph_Driver/src/stm32f10x_flash.c ****   
1608:Libraries/STM32F10x_StdPeriph_Driver/src/stm32f10x_flash.c ****   if((FLASH->SR2 & (FLASH_FLAG_BANK2_BSY & 0x7FFFFFFF)) == (FLASH_FLAG_BANK2_BSY & 0x7FFFFFFF)) 
1609:Libraries/STM32F10x_StdPeriph_Driver/src/stm32f10x_flash.c ****   {
1610:Libraries/STM32F10x_StdPeriph_Driver/src/stm32f10x_flash.c ****     flashstatus = FLASH_BUSY;
1611:Libraries/STM32F10x_StdPeriph_Driver/src/stm32f10x_flash.c ****   }
1612:Libraries/STM32F10x_StdPeriph_Driver/src/stm32f10x_flash.c ****   else 
1613:Libraries/STM32F10x_StdPeriph_Driver/src/stm32f10x_flash.c ****   {  
1614:Libraries/STM32F10x_StdPeriph_Driver/src/stm32f10x_flash.c ****     if((FLASH->SR2 & (FLASH_FLAG_BANK2_PGERR & 0x7FFFFFFF)) != 0)
1615:Libraries/STM32F10x_StdPeriph_Driver/src/stm32f10x_flash.c ****     { 
1616:Libraries/STM32F10x_StdPeriph_Driver/src/stm32f10x_flash.c ****       flashstatus = FLASH_ERROR_PG;
1617:Libraries/STM32F10x_StdPeriph_Driver/src/stm32f10x_flash.c ****     }
1618:Libraries/STM32F10x_StdPeriph_Driver/src/stm32f10x_flash.c ****     else 
1619:Libraries/STM32F10x_StdPeriph_Driver/src/stm32f10x_flash.c ****     {
1620:Libraries/STM32F10x_StdPeriph_Driver/src/stm32f10x_flash.c ****       if((FLASH->SR2 & (FLASH_FLAG_BANK2_WRPRTERR & 0x7FFFFFFF)) != 0 )
1621:Libraries/STM32F10x_StdPeriph_Driver/src/stm32f10x_flash.c ****       {
1622:Libraries/STM32F10x_StdPeriph_Driver/src/stm32f10x_flash.c ****         flashstatus = FLASH_ERROR_WRP;
1623:Libraries/STM32F10x_StdPeriph_Driver/src/stm32f10x_flash.c ****       }
1624:Libraries/STM32F10x_StdPeriph_Driver/src/stm32f10x_flash.c ****       else
1625:Libraries/STM32F10x_StdPeriph_Driver/src/stm32f10x_flash.c ****       {
1626:Libraries/STM32F10x_StdPeriph_Driver/src/stm32f10x_flash.c ****         flashstatus = FLASH_COMPLETE;
1627:Libraries/STM32F10x_StdPeriph_Driver/src/stm32f10x_flash.c ****       }
1628:Libraries/STM32F10x_StdPeriph_Driver/src/stm32f10x_flash.c ****     }
1629:Libraries/STM32F10x_StdPeriph_Driver/src/stm32f10x_flash.c ****   }
1630:Libraries/STM32F10x_StdPeriph_Driver/src/stm32f10x_flash.c ****   /* Return the Flash Status */
1631:Libraries/STM32F10x_StdPeriph_Driver/src/stm32f10x_flash.c ****   return flashstatus;
1632:Libraries/STM32F10x_StdPeriph_Driver/src/stm32f10x_flash.c **** }
1633:Libraries/STM32F10x_StdPeriph_Driver/src/stm32f10x_flash.c **** #endif /* STM32F10X_XL */
1634:Libraries/STM32F10x_StdPeriph_Driver/src/stm32f10x_flash.c **** /**
1635:Libraries/STM32F10x_StdPeriph_Driver/src/stm32f10x_flash.c ****   * @brief  Waits for a Flash operation to complete or a TIMEOUT to occur.
1636:Libraries/STM32F10x_StdPeriph_Driver/src/stm32f10x_flash.c ****   * @note   This function can be used for all STM32F10x devices, 
1637:Libraries/STM32F10x_StdPeriph_Driver/src/stm32f10x_flash.c ****   *         it is equivalent to FLASH_WaitForLastBank1Operation.
1638:Libraries/STM32F10x_StdPeriph_Driver/src/stm32f10x_flash.c ****   *         - For STM32F10X_XL devices this function waits for a Bank1 Flash operation
1639:Libraries/STM32F10x_StdPeriph_Driver/src/stm32f10x_flash.c ****   *           to complete or a TIMEOUT to occur.
1640:Libraries/STM32F10x_StdPeriph_Driver/src/stm32f10x_flash.c ****   *         - For all other devices it waits for a Flash operation to complete 
1641:Libraries/STM32F10x_StdPeriph_Driver/src/stm32f10x_flash.c ****   *           or a TIMEOUT to occur.
1642:Libraries/STM32F10x_StdPeriph_Driver/src/stm32f10x_flash.c ****   * @param  Timeout: FLASH progamming Timeout
1643:Libraries/STM32F10x_StdPeriph_Driver/src/stm32f10x_flash.c ****   * @retval FLASH Status: The returned value can be: FLASH_ERROR_PG,
1644:Libraries/STM32F10x_StdPeriph_Driver/src/stm32f10x_flash.c ****   *   FLASH_ERROR_WRP, FLASH_COMPLETE or FLASH_TIMEOUT.
1645:Libraries/STM32F10x_StdPeriph_Driver/src/stm32f10x_flash.c ****   */
1646:Libraries/STM32F10x_StdPeriph_Driver/src/stm32f10x_flash.c **** FLASH_Status FLASH_WaitForLastOperation(uint32_t Timeout)
1647:Libraries/STM32F10x_StdPeriph_Driver/src/stm32f10x_flash.c **** { 
 765              		.loc 1 1647 0
 766              		.cfi_startproc
 767              		@ args = 0, pretend = 0, frame = 0
 768              		@ frame_needed = 0, uses_anonymous_args = 0
 769              	.LVL48:
 770 0000 38B5     		push	{r3, r4, r5, lr}
 771              		.cfi_def_cfa_offset 16
 772              		.cfi_offset 3, -16
 773              		.cfi_offset 4, -12
 774              		.cfi_offset 5, -8
 775              		.cfi_offset 14, -4
1648:Libraries/STM32F10x_StdPeriph_Driver/src/stm32f10x_flash.c ****   FLASH_Status status = FLASH_COMPLETE;
1649:Libraries/STM32F10x_StdPeriph_Driver/src/stm32f10x_flash.c ****    
1650:Libraries/STM32F10x_StdPeriph_Driver/src/stm32f10x_flash.c ****   /* Check for the Flash Status */
1651:Libraries/STM32F10x_StdPeriph_Driver/src/stm32f10x_flash.c ****   status = FLASH_GetBank1Status();
 776              		.loc 1 1651 0
 777 0002 074D     		ldr	r5, .L106
1647:Libraries/STM32F10x_StdPeriph_Driver/src/stm32f10x_flash.c ****   FLASH_Status status = FLASH_COMPLETE;
 778              		.loc 1 1647 0
 779 0004 0446     		mov	r4, r0
 780              		.loc 1 1651 0
 781 0006 A847     		blx	r5
 782              	.LVL49:
1652:Libraries/STM32F10x_StdPeriph_Driver/src/stm32f10x_flash.c ****   /* Wait for a Flash operation to complete or a TIMEOUT to occur */
1653:Libraries/STM32F10x_StdPeriph_Driver/src/stm32f10x_flash.c ****   while((status == FLASH_BUSY) && (Timeout != 0x00))
 783              		.loc 1 1653 0
 784 0008 0128     		cmp	r0, #1
 785 000a 05D1     		bne	.L96
 786              	.L105:
 787 000c 34B1     		cbz	r4, .L97
 788              	.LVL50:
1654:Libraries/STM32F10x_StdPeriph_Driver/src/stm32f10x_flash.c ****   {
1655:Libraries/STM32F10x_StdPeriph_Driver/src/stm32f10x_flash.c ****     status = FLASH_GetBank1Status();
 789              		.loc 1 1655 0
 790 000e A847     		blx	r5
 791              	.LVL51:
1653:Libraries/STM32F10x_StdPeriph_Driver/src/stm32f10x_flash.c ****   {
 792              		.loc 1 1653 0
 793 0010 0128     		cmp	r0, #1
1656:Libraries/STM32F10x_StdPeriph_Driver/src/stm32f10x_flash.c ****     Timeout--;
 794              		.loc 1 1656 0
 795 0012 04F1FF34 		add	r4, r4, #-1
 796              	.LVL52:
1653:Libraries/STM32F10x_StdPeriph_Driver/src/stm32f10x_flash.c ****   {
 797              		.loc 1 1653 0
 798 0016 F9D0     		beq	.L105
 799              	.L96:
1657:Libraries/STM32F10x_StdPeriph_Driver/src/stm32f10x_flash.c ****   }
1658:Libraries/STM32F10x_StdPeriph_Driver/src/stm32f10x_flash.c ****   if(Timeout == 0x00 )
 800              		.loc 1 1658 0
 801 0018 04B1     		cbz	r4, .L97
1659:Libraries/STM32F10x_StdPeriph_Driver/src/stm32f10x_flash.c ****   {
1660:Libraries/STM32F10x_StdPeriph_Driver/src/stm32f10x_flash.c ****     status = FLASH_TIMEOUT;
1661:Libraries/STM32F10x_StdPeriph_Driver/src/stm32f10x_flash.c ****   }
1662:Libraries/STM32F10x_StdPeriph_Driver/src/stm32f10x_flash.c ****   /* Return the operation status */
1663:Libraries/STM32F10x_StdPeriph_Driver/src/stm32f10x_flash.c ****   return status;
1664:Libraries/STM32F10x_StdPeriph_Driver/src/stm32f10x_flash.c **** }
 802              		.loc 1 1664 0
 803 001a 38BD     		pop	{r3, r4, r5, pc}
 804              	.LVL53:
 805              	.L97:
1660:Libraries/STM32F10x_StdPeriph_Driver/src/stm32f10x_flash.c ****   }
 806              		.loc 1 1660 0
 807 001c 0520     		movs	r0, #5
 808              	.LVL54:
 809              		.loc 1 1664 0
 810 001e 38BD     		pop	{r3, r4, r5, pc}
 811              	.LVL55:
 812              	.L107:
 813              		.align	2
 814              	.L106:
 815 0020 00000000 		.word	FLASH_GetBank1Status
 816              		.cfi_endproc
 817              	.LFE55:
 819              		.section	.text.FLASH_ErasePage,"ax",%progbits
 820              		.align	1
 821              		.p2align 2,,3
 822              		.global	FLASH_ErasePage
 823              		.syntax unified
 824              		.thumb
 825              		.thumb_func
 826              		.fpu softvfp
 828              	FLASH_ErasePage:
 829              	.LFB36:
 419:Libraries/STM32F10x_StdPeriph_Driver/src/stm32f10x_flash.c ****   FLASH_Status status = FLASH_COMPLETE;
 830              		.loc 1 419 0
 831              		.cfi_startproc
 832              		@ args = 0, pretend = 0, frame = 0
 833              		@ frame_needed = 0, uses_anonymous_args = 0
 834              	.LVL56:
 422:Libraries/STM32F10x_StdPeriph_Driver/src/stm32f10x_flash.c **** 
 835              		.loc 1 422 0
 836 0000 144B     		ldr	r3, .L117
 837 0002 00F17842 		add	r2, r0, #-134217728
 838 0006 9A42     		cmp	r2, r3
 419:Libraries/STM32F10x_StdPeriph_Driver/src/stm32f10x_flash.c ****   FLASH_Status status = FLASH_COMPLETE;
 839              		.loc 1 419 0
 840 0008 70B5     		push	{r4, r5, r6, lr}
 841              		.cfi_def_cfa_offset 16
 842              		.cfi_offset 4, -16
 843              		.cfi_offset 5, -12
 844              		.cfi_offset 6, -8
 845              		.cfi_offset 14, -4
 419:Libraries/STM32F10x_StdPeriph_Driver/src/stm32f10x_flash.c ****   FLASH_Status status = FLASH_COMPLETE;
 846              		.loc 1 419 0
 847 000a 0546     		mov	r5, r0
 422:Libraries/STM32F10x_StdPeriph_Driver/src/stm32f10x_flash.c **** 
 848              		.loc 1 422 0
 849 000c 1BD8     		bhi	.L115
 850              	.LVL57:
 851              	.L109:
 467:Libraries/STM32F10x_StdPeriph_Driver/src/stm32f10x_flash.c ****   
 852              		.loc 1 467 0
 853 000e 4FF43020 		mov	r0, #720896
 854 0012 114C     		ldr	r4, .L117+4
 855 0014 A047     		blx	r4
 856              	.LVL58:
 469:Libraries/STM32F10x_StdPeriph_Driver/src/stm32f10x_flash.c ****   { 
 857              		.loc 1 469 0
 858 0016 0428     		cmp	r0, #4
 859 0018 00D0     		beq	.L116
 860              	.L110:
 488:Libraries/STM32F10x_StdPeriph_Driver/src/stm32f10x_flash.c **** 
 861              		.loc 1 488 0
 862 001a 70BD     		pop	{r4, r5, r6, pc}
 863              	.LVL59:
 864              	.L116:
 472:Libraries/STM32F10x_StdPeriph_Driver/src/stm32f10x_flash.c ****     FLASH->AR = Page_Address; 
 865              		.loc 1 472 0
 866 001c 0F4E     		ldr	r6, .L117+8
 477:Libraries/STM32F10x_StdPeriph_Driver/src/stm32f10x_flash.c ****     if(status != FLASH_TIMEOUT)
 867              		.loc 1 477 0
 868 001e 4FF43020 		mov	r0, #720896
 869              	.LVL60:
 472:Libraries/STM32F10x_StdPeriph_Driver/src/stm32f10x_flash.c ****     FLASH->AR = Page_Address; 
 870              		.loc 1 472 0
 871 0022 3369     		ldr	r3, [r6, #16]
 872 0024 43F00203 		orr	r3, r3, #2
 873 0028 3361     		str	r3, [r6, #16]
 473:Libraries/STM32F10x_StdPeriph_Driver/src/stm32f10x_flash.c ****     FLASH->CR|= CR_STRT_Set;
 874              		.loc 1 473 0
 875 002a 7561     		str	r5, [r6, #20]
 474:Libraries/STM32F10x_StdPeriph_Driver/src/stm32f10x_flash.c ****     
 876              		.loc 1 474 0
 877 002c 3369     		ldr	r3, [r6, #16]
 878 002e 43F04003 		orr	r3, r3, #64
 879 0032 3361     		str	r3, [r6, #16]
 477:Libraries/STM32F10x_StdPeriph_Driver/src/stm32f10x_flash.c ****     if(status != FLASH_TIMEOUT)
 880              		.loc 1 477 0
 881 0034 A047     		blx	r4
 882              	.LVL61:
 478:Libraries/STM32F10x_StdPeriph_Driver/src/stm32f10x_flash.c ****     {
 883              		.loc 1 478 0
 884 0036 0528     		cmp	r0, #5
 885 0038 EFD0     		beq	.L110
 481:Libraries/STM32F10x_StdPeriph_Driver/src/stm32f10x_flash.c ****     }
 886              		.loc 1 481 0
 887 003a 41F6FD72 		movw	r2, #8189
 888 003e 3369     		ldr	r3, [r6, #16]
 889 0040 1340     		ands	r3, r3, r2
 890 0042 3361     		str	r3, [r6, #16]
 488:Libraries/STM32F10x_StdPeriph_Driver/src/stm32f10x_flash.c **** 
 891              		.loc 1 488 0
 892 0044 70BD     		pop	{r4, r5, r6, pc}
 893              	.LVL62:
 894              	.L115:
 422:Libraries/STM32F10x_StdPeriph_Driver/src/stm32f10x_flash.c **** 
 895              		.loc 1 422 0 discriminator 1
 896 0046 4FF4D371 		mov	r1, #422
 897 004a 054B     		ldr	r3, .L117+12
 898 004c 0548     		ldr	r0, .L117+16
 899              	.LVL63:
 900 004e 9847     		blx	r3
 901              	.LVL64:
 902 0050 DDE7     		b	.L109
 903              	.L118:
 904 0052 00BF     		.align	2
 905              	.L117:
 906 0054 FEFF0F00 		.word	1048574
 907 0058 00000000 		.word	FLASH_WaitForLastOperation
 908 005c 00200240 		.word	1073881088
 909 0060 00000000 		.word	assert_failed
 910 0064 00000000 		.word	.LC0
 911              		.cfi_endproc
 912              	.LFE36:
 914              		.section	.text.FLASH_EraseAllPages,"ax",%progbits
 915              		.align	1
 916              		.p2align 2,,3
 917              		.global	FLASH_EraseAllPages
 918              		.syntax unified
 919              		.thumb
 920              		.thumb_func
 921              		.fpu softvfp
 923              	FLASH_EraseAllPages:
 924              	.LFB37:
 498:Libraries/STM32F10x_StdPeriph_Driver/src/stm32f10x_flash.c ****   FLASH_Status status = FLASH_COMPLETE;
 925              		.loc 1 498 0
 926              		.cfi_startproc
 927              		@ args = 0, pretend = 0, frame = 0
 928              		@ frame_needed = 0, uses_anonymous_args = 0
 929              	.LVL65:
 930 0000 38B5     		push	{r3, r4, r5, lr}
 931              		.cfi_def_cfa_offset 16
 932              		.cfi_offset 3, -16
 933              		.cfi_offset 4, -12
 934              		.cfi_offset 5, -8
 935              		.cfi_offset 14, -4
 535:Libraries/STM32F10x_StdPeriph_Driver/src/stm32f10x_flash.c ****   if(status == FLASH_COMPLETE)
 936              		.loc 1 535 0
 937 0002 4FF43020 		mov	r0, #720896
 938 0006 0C4C     		ldr	r4, .L126
 939 0008 A047     		blx	r4
 940              	.LVL66:
 536:Libraries/STM32F10x_StdPeriph_Driver/src/stm32f10x_flash.c ****   {
 941              		.loc 1 536 0
 942 000a 0428     		cmp	r0, #4
 943 000c 00D0     		beq	.L125
 944              	.L120:
 554:Libraries/STM32F10x_StdPeriph_Driver/src/stm32f10x_flash.c **** 
 945              		.loc 1 554 0
 946 000e 38BD     		pop	{r3, r4, r5, pc}
 947              	.L125:
 539:Libraries/STM32F10x_StdPeriph_Driver/src/stm32f10x_flash.c ****      FLASH->CR |= CR_STRT_Set;
 948              		.loc 1 539 0
 949 0010 0A4D     		ldr	r5, .L126+4
 543:Libraries/STM32F10x_StdPeriph_Driver/src/stm32f10x_flash.c ****     if(status != FLASH_TIMEOUT)
 950              		.loc 1 543 0
 951 0012 4FF43020 		mov	r0, #720896
 952              	.LVL67:
 539:Libraries/STM32F10x_StdPeriph_Driver/src/stm32f10x_flash.c ****      FLASH->CR |= CR_STRT_Set;
 953              		.loc 1 539 0
 954 0016 2B69     		ldr	r3, [r5, #16]
 955 0018 43F00403 		orr	r3, r3, #4
 956 001c 2B61     		str	r3, [r5, #16]
 540:Libraries/STM32F10x_StdPeriph_Driver/src/stm32f10x_flash.c ****     
 957              		.loc 1 540 0
 958 001e 2B69     		ldr	r3, [r5, #16]
 959 0020 43F04003 		orr	r3, r3, #64
 960 0024 2B61     		str	r3, [r5, #16]
 543:Libraries/STM32F10x_StdPeriph_Driver/src/stm32f10x_flash.c ****     if(status != FLASH_TIMEOUT)
 961              		.loc 1 543 0
 962 0026 A047     		blx	r4
 963              	.LVL68:
 544:Libraries/STM32F10x_StdPeriph_Driver/src/stm32f10x_flash.c ****     {
 964              		.loc 1 544 0
 965 0028 0528     		cmp	r0, #5
 966 002a F0D0     		beq	.L120
 547:Libraries/STM32F10x_StdPeriph_Driver/src/stm32f10x_flash.c ****     }
 967              		.loc 1 547 0
 968 002c 41F6FB72 		movw	r2, #8187
 969 0030 2B69     		ldr	r3, [r5, #16]
 970 0032 1340     		ands	r3, r3, r2
 971 0034 2B61     		str	r3, [r5, #16]
 554:Libraries/STM32F10x_StdPeriph_Driver/src/stm32f10x_flash.c **** 
 972              		.loc 1 554 0
 973 0036 38BD     		pop	{r3, r4, r5, pc}
 974              	.L127:
 975              		.align	2
 976              	.L126:
 977 0038 00000000 		.word	FLASH_WaitForLastOperation
 978 003c 00200240 		.word	1073881088
 979              		.cfi_endproc
 980              	.LFE37:
 982              		.section	.text.FLASH_EraseAllBank1Pages,"ax",%progbits
 983              		.align	1
 984              		.p2align 2,,3
 985              		.global	FLASH_EraseAllBank1Pages
 986              		.syntax unified
 987              		.thumb
 988              		.thumb_func
 989              		.fpu softvfp
 991              	FLASH_EraseAllBank1Pages:
 992              	.LFB63:
 993              		.cfi_startproc
 994              		@ args = 0, pretend = 0, frame = 0
 995              		@ frame_needed = 0, uses_anonymous_args = 0
 996              		@ link register save eliminated.
 997 0000 004B     		ldr	r3, .L129
 998 0002 1847     		bx	r3
 999              	.L130:
 1000              		.align	2
 1001              	.L129:
 1002 0004 00000000 		.word	FLASH_EraseAllPages
 1003              		.cfi_endproc
 1004              	.LFE63:
 1006              		.section	.text.FLASH_EraseOptionBytes,"ax",%progbits
 1007              		.align	1
 1008              		.p2align 2,,3
 1009              		.global	FLASH_EraseOptionBytes
 1010              		.syntax unified
 1011              		.thumb
 1012              		.thumb_func
 1013              		.fpu softvfp
 1015              	FLASH_EraseOptionBytes:
 1016              	.LFB39:
 632:Libraries/STM32F10x_StdPeriph_Driver/src/stm32f10x_flash.c ****   uint16_t rdptmp = RDP_Key;
 1017              		.loc 1 632 0
 1018              		.cfi_startproc
 1019              		@ args = 0, pretend = 0, frame = 0
 1020              		@ frame_needed = 0, uses_anonymous_args = 0
 1021              	.LVL69:
 632:Libraries/STM32F10x_StdPeriph_Driver/src/stm32f10x_flash.c ****   uint16_t rdptmp = RDP_Key;
 1022              		.loc 1 632 0
 1023 0000 70B5     		push	{r4, r5, r6, lr}
 1024              		.cfi_def_cfa_offset 16
 1025              		.cfi_offset 4, -16
 1026              		.cfi_offset 5, -12
 1027              		.cfi_offset 6, -8
 1028              		.cfi_offset 14, -4
 1029              	.LBB8:
 1030              	.LBB9:
1294:Libraries/STM32F10x_StdPeriph_Driver/src/stm32f10x_flash.c ****   {
 1031              		.loc 1 1294 0
 1032 0002 1C4C     		ldr	r4, .L147
 1033              	.LBE9:
 1034              	.LBE8:
 644:Libraries/STM32F10x_StdPeriph_Driver/src/stm32f10x_flash.c ****   if(status == FLASH_COMPLETE)
 1035              		.loc 1 644 0
 1036 0004 4FF43020 		mov	r0, #720896
 1037              	.LBB11:
 1038              	.LBB10:
1294:Libraries/STM32F10x_StdPeriph_Driver/src/stm32f10x_flash.c ****   {
 1039              		.loc 1 1294 0
 1040 0008 E369     		ldr	r3, [r4, #28]
 1041              	.LBE10:
 1042              	.LBE11:
 644:Libraries/STM32F10x_StdPeriph_Driver/src/stm32f10x_flash.c ****   if(status == FLASH_COMPLETE)
 1043              		.loc 1 644 0
 1044 000a 1B4D     		ldr	r5, .L147+4
 633:Libraries/STM32F10x_StdPeriph_Driver/src/stm32f10x_flash.c **** 
 1045              		.loc 1 633 0
 1046 000c 13F0020F 		tst	r3, #2
 1047 0010 14BF     		ite	ne
 1048 0012 0026     		movne	r6, #0
 1049 0014 A526     		moveq	r6, #165
 1050              	.LVL70:
 644:Libraries/STM32F10x_StdPeriph_Driver/src/stm32f10x_flash.c ****   if(status == FLASH_COMPLETE)
 1051              		.loc 1 644 0
 1052 0016 A847     		blx	r5
 1053              	.LVL71:
 645:Libraries/STM32F10x_StdPeriph_Driver/src/stm32f10x_flash.c ****   {
 1054              		.loc 1 645 0
 1055 0018 0428     		cmp	r0, #4
 1056 001a 00D0     		beq	.L145
 1057              	.L133:
 686:Libraries/STM32F10x_StdPeriph_Driver/src/stm32f10x_flash.c **** 
 1058              		.loc 1 686 0
 1059 001c 70BD     		pop	{r4, r5, r6, pc}
 1060              	.LVL72:
 1061              	.L145:
 648:Libraries/STM32F10x_StdPeriph_Driver/src/stm32f10x_flash.c ****     FLASH->OPTKEYR = FLASH_KEY2;
 1062              		.loc 1 648 0
 1063 001e 174A     		ldr	r2, .L147+8
 649:Libraries/STM32F10x_StdPeriph_Driver/src/stm32f10x_flash.c ****     
 1064              		.loc 1 649 0
 1065 0020 174B     		ldr	r3, .L147+12
 648:Libraries/STM32F10x_StdPeriph_Driver/src/stm32f10x_flash.c ****     FLASH->OPTKEYR = FLASH_KEY2;
 1066              		.loc 1 648 0
 1067 0022 A260     		str	r2, [r4, #8]
 649:Libraries/STM32F10x_StdPeriph_Driver/src/stm32f10x_flash.c ****     
 1068              		.loc 1 649 0
 1069 0024 A360     		str	r3, [r4, #8]
 652:Libraries/STM32F10x_StdPeriph_Driver/src/stm32f10x_flash.c ****     FLASH->CR |= CR_STRT_Set;
 1070              		.loc 1 652 0
 1071 0026 2369     		ldr	r3, [r4, #16]
 655:Libraries/STM32F10x_StdPeriph_Driver/src/stm32f10x_flash.c ****     
 1072              		.loc 1 655 0
 1073 0028 4FF43020 		mov	r0, #720896
 1074              	.LVL73:
 652:Libraries/STM32F10x_StdPeriph_Driver/src/stm32f10x_flash.c ****     FLASH->CR |= CR_STRT_Set;
 1075              		.loc 1 652 0
 1076 002c 43F02003 		orr	r3, r3, #32
 1077 0030 2361     		str	r3, [r4, #16]
 653:Libraries/STM32F10x_StdPeriph_Driver/src/stm32f10x_flash.c ****     /* Wait for last operation to be completed */
 1078              		.loc 1 653 0
 1079 0032 2369     		ldr	r3, [r4, #16]
 1080 0034 43F04003 		orr	r3, r3, #64
 1081 0038 2361     		str	r3, [r4, #16]
 655:Libraries/STM32F10x_StdPeriph_Driver/src/stm32f10x_flash.c ****     
 1082              		.loc 1 655 0
 1083 003a A847     		blx	r5
 1084              	.LVL74:
 657:Libraries/STM32F10x_StdPeriph_Driver/src/stm32f10x_flash.c ****     {
 1085              		.loc 1 657 0
 1086 003c 0428     		cmp	r0, #4
 1087 003e 07D0     		beq	.L146
 677:Libraries/STM32F10x_StdPeriph_Driver/src/stm32f10x_flash.c ****       {
 1088              		.loc 1 677 0
 1089 0040 0528     		cmp	r0, #5
 1090 0042 EBD0     		beq	.L133
 1091              	.L143:
 680:Libraries/STM32F10x_StdPeriph_Driver/src/stm32f10x_flash.c ****       }
 1092              		.loc 1 680 0
 1093 0044 41F6EF72 		movw	r2, #8175
 1094 0048 2369     		ldr	r3, [r4, #16]
 1095 004a 1340     		ands	r3, r3, r2
 1096 004c 2361     		str	r3, [r4, #16]
 686:Libraries/STM32F10x_StdPeriph_Driver/src/stm32f10x_flash.c **** 
 1097              		.loc 1 686 0
 1098 004e 70BD     		pop	{r4, r5, r6, pc}
 1099              	.LVL75:
 1100              	.L146:
 660:Libraries/STM32F10x_StdPeriph_Driver/src/stm32f10x_flash.c ****        
 1101              		.loc 1 660 0
 1102 0050 41F6DF71 		movw	r1, #8159
 1103 0054 2369     		ldr	r3, [r4, #16]
 665:Libraries/STM32F10x_StdPeriph_Driver/src/stm32f10x_flash.c ****       /* Wait for last operation to be completed */
 1104              		.loc 1 665 0
 1105 0056 0B4A     		ldr	r2, .L147+16
 660:Libraries/STM32F10x_StdPeriph_Driver/src/stm32f10x_flash.c ****        
 1106              		.loc 1 660 0
 1107 0058 0B40     		ands	r3, r3, r1
 1108 005a 2361     		str	r3, [r4, #16]
 663:Libraries/STM32F10x_StdPeriph_Driver/src/stm32f10x_flash.c ****       /* Restore the last read protection Option Byte value */
 1109              		.loc 1 663 0
 1110 005c 2369     		ldr	r3, [r4, #16]
 667:Libraries/STM32F10x_StdPeriph_Driver/src/stm32f10x_flash.c ****  
 1111              		.loc 1 667 0
 1112 005e 4FF40050 		mov	r0, #8192
 1113              	.LVL76:
 663:Libraries/STM32F10x_StdPeriph_Driver/src/stm32f10x_flash.c ****       /* Restore the last read protection Option Byte value */
 1114              		.loc 1 663 0
 1115 0062 43F01003 		orr	r3, r3, #16
 1116 0066 2361     		str	r3, [r4, #16]
 665:Libraries/STM32F10x_StdPeriph_Driver/src/stm32f10x_flash.c ****       /* Wait for last operation to be completed */
 1117              		.loc 1 665 0
 1118 0068 1680     		strh	r6, [r2]	@ movhi
 667:Libraries/STM32F10x_StdPeriph_Driver/src/stm32f10x_flash.c ****  
 1119              		.loc 1 667 0
 1120 006a A847     		blx	r5
 1121              	.LVL77:
 669:Libraries/STM32F10x_StdPeriph_Driver/src/stm32f10x_flash.c ****       {
 1122              		.loc 1 669 0
 1123 006c 0528     		cmp	r0, #5
 1124 006e E9D1     		bne	.L143
 686:Libraries/STM32F10x_StdPeriph_Driver/src/stm32f10x_flash.c **** 
 1125              		.loc 1 686 0
 1126 0070 70BD     		pop	{r4, r5, r6, pc}
 1127              	.LVL78:
 1128              	.L148:
 1129 0072 00BF     		.align	2
 1130              	.L147:
 1131 0074 00200240 		.word	1073881088
 1132 0078 00000000 		.word	FLASH_WaitForLastOperation
 1133 007c 23016745 		.word	1164378403
 1134 0080 AB89EFCD 		.word	-839939669
 1135 0084 00F8FF1F 		.word	536868864
 1136              		.cfi_endproc
 1137              	.LFE39:
 1139              		.section	.text.FLASH_ProgramWord,"ax",%progbits
 1140              		.align	1
 1141              		.p2align 2,,3
 1142              		.global	FLASH_ProgramWord
 1143              		.syntax unified
 1144              		.thumb
 1145              		.thumb_func
 1146              		.fpu softvfp
 1148              	FLASH_ProgramWord:
 1149              	.LFB40:
 697:Libraries/STM32F10x_StdPeriph_Driver/src/stm32f10x_flash.c ****   FLASH_Status status = FLASH_COMPLETE;
 1150              		.loc 1 697 0
 1151              		.cfi_startproc
 1152              		@ args = 0, pretend = 0, frame = 8
 1153              		@ frame_needed = 0, uses_anonymous_args = 0
 1154              	.LVL79:
 1155 0000 F0B5     		push	{r4, r5, r6, r7, lr}
 1156              		.cfi_def_cfa_offset 20
 1157              		.cfi_offset 4, -20
 1158              		.cfi_offset 5, -16
 1159              		.cfi_offset 6, -12
 1160              		.cfi_offset 7, -8
 1161              		.cfi_offset 14, -4
 1162 0002 0446     		mov	r4, r0
 699:Libraries/STM32F10x_StdPeriph_Driver/src/stm32f10x_flash.c **** 
 1163              		.loc 1 699 0
 1164 0004 0020     		movs	r0, #0
 1165              	.LVL80:
 702:Libraries/STM32F10x_StdPeriph_Driver/src/stm32f10x_flash.c **** 
 1166              		.loc 1 702 0
 1167 0006 1D4B     		ldr	r3, .L164
 1168 0008 04F17842 		add	r2, r4, #-134217728
 697:Libraries/STM32F10x_StdPeriph_Driver/src/stm32f10x_flash.c ****   FLASH_Status status = FLASH_COMPLETE;
 1169              		.loc 1 697 0
 1170 000c 83B0     		sub	sp, sp, #12
 1171              		.cfi_def_cfa_offset 32
 702:Libraries/STM32F10x_StdPeriph_Driver/src/stm32f10x_flash.c **** 
 1172              		.loc 1 702 0
 1173 000e 9A42     		cmp	r2, r3
 697:Libraries/STM32F10x_StdPeriph_Driver/src/stm32f10x_flash.c ****   FLASH_Status status = FLASH_COMPLETE;
 1174              		.loc 1 697 0
 1175 0010 0E46     		mov	r6, r1
 699:Libraries/STM32F10x_StdPeriph_Driver/src/stm32f10x_flash.c **** 
 1176              		.loc 1 699 0
 1177 0012 0190     		str	r0, [sp, #4]
 702:Libraries/STM32F10x_StdPeriph_Driver/src/stm32f10x_flash.c **** 
 1178              		.loc 1 702 0
 1179 0014 07D8     		bhi	.L161
 851:Libraries/STM32F10x_StdPeriph_Driver/src/stm32f10x_flash.c ****   
 1180              		.loc 1 851 0
 1181 0016 4FF40050 		mov	r0, #8192
 1182 001a 194D     		ldr	r5, .L164+4
 1183 001c A847     		blx	r5
 1184              	.LVL81:
 853:Libraries/STM32F10x_StdPeriph_Driver/src/stm32f10x_flash.c ****   {
 1185              		.loc 1 853 0
 1186 001e 0428     		cmp	r0, #4
 1187 0020 0CD0     		beq	.L162
 1188              	.LVL82:
 1189              	.L151:
 893:Libraries/STM32F10x_StdPeriph_Driver/src/stm32f10x_flash.c **** 
 1190              		.loc 1 893 0
 1191 0022 03B0     		add	sp, sp, #12
 1192              		.cfi_remember_state
 1193              		.cfi_def_cfa_offset 20
 1194              		@ sp needed
 1195 0024 F0BD     		pop	{r4, r5, r6, r7, pc}
 1196              	.LVL83:
 1197              	.L161:
 1198              		.cfi_restore_state
 702:Libraries/STM32F10x_StdPeriph_Driver/src/stm32f10x_flash.c **** 
 1199              		.loc 1 702 0 discriminator 1
 1200 0026 40F2BE21 		movw	r1, #702
 1201              	.LVL84:
 1202 002a 164B     		ldr	r3, .L164+8
 1203 002c 1648     		ldr	r0, .L164+12
 1204 002e 9847     		blx	r3
 1205              	.LVL85:
 851:Libraries/STM32F10x_StdPeriph_Driver/src/stm32f10x_flash.c ****   
 1206              		.loc 1 851 0 discriminator 1
 1207 0030 134D     		ldr	r5, .L164+4
 1208 0032 4FF40050 		mov	r0, #8192
 1209 0036 A847     		blx	r5
 1210              	.LVL86:
 853:Libraries/STM32F10x_StdPeriph_Driver/src/stm32f10x_flash.c ****   {
 1211              		.loc 1 853 0 discriminator 1
 1212 0038 0428     		cmp	r0, #4
 1213 003a F2D1     		bne	.L151
 1214              	.L162:
 857:Libraries/STM32F10x_StdPeriph_Driver/src/stm32f10x_flash.c ****   
 1215              		.loc 1 857 0
 1216 003c 134F     		ldr	r7, .L164+16
 859:Libraries/STM32F10x_StdPeriph_Driver/src/stm32f10x_flash.c ****     /* Wait for last operation to be completed */
 1217              		.loc 1 859 0
 1218 003e B3B2     		uxth	r3, r6
 857:Libraries/STM32F10x_StdPeriph_Driver/src/stm32f10x_flash.c ****   
 1219              		.loc 1 857 0
 1220 0040 3A69     		ldr	r2, [r7, #16]
 861:Libraries/STM32F10x_StdPeriph_Driver/src/stm32f10x_flash.c ****  
 1221              		.loc 1 861 0
 1222 0042 4FF40050 		mov	r0, #8192
 1223              	.LVL87:
 857:Libraries/STM32F10x_StdPeriph_Driver/src/stm32f10x_flash.c ****   
 1224              		.loc 1 857 0
 1225 0046 42F00102 		orr	r2, r2, #1
 1226 004a 3A61     		str	r2, [r7, #16]
 859:Libraries/STM32F10x_StdPeriph_Driver/src/stm32f10x_flash.c ****     /* Wait for last operation to be completed */
 1227              		.loc 1 859 0
 1228 004c 2380     		strh	r3, [r4]	@ movhi
 861:Libraries/STM32F10x_StdPeriph_Driver/src/stm32f10x_flash.c ****  
 1229              		.loc 1 861 0
 1230 004e A847     		blx	r5
 1231              	.LVL88:
 863:Libraries/STM32F10x_StdPeriph_Driver/src/stm32f10x_flash.c ****     {
 1232              		.loc 1 863 0
 1233 0050 0428     		cmp	r0, #4
 1234 0052 08D0     		beq	.L163
 882:Libraries/STM32F10x_StdPeriph_Driver/src/stm32f10x_flash.c ****       {
 1235              		.loc 1 882 0
 1236 0054 0528     		cmp	r0, #5
 1237 0056 E4D0     		beq	.L151
 1238              	.LVL89:
 1239              	.L160:
 885:Libraries/STM32F10x_StdPeriph_Driver/src/stm32f10x_flash.c ****       }
 1240              		.loc 1 885 0
 1241 0058 41F6FE72 		movw	r2, #8190
 1242 005c 3B69     		ldr	r3, [r7, #16]
 1243 005e 1340     		ands	r3, r3, r2
 1244 0060 3B61     		str	r3, [r7, #16]
 893:Libraries/STM32F10x_StdPeriph_Driver/src/stm32f10x_flash.c **** 
 1245              		.loc 1 893 0
 1246 0062 03B0     		add	sp, sp, #12
 1247              		.cfi_remember_state
 1248              		.cfi_def_cfa_offset 20
 1249              		@ sp needed
 1250 0064 F0BD     		pop	{r4, r5, r6, r7, pc}
 1251              	.LVL90:
 1252              	.L163:
 1253              		.cfi_restore_state
 867:Libraries/STM32F10x_StdPeriph_Driver/src/stm32f10x_flash.c **** 
 1254              		.loc 1 867 0
 1255 0066 0234     		adds	r4, r4, #2
 1256              	.LVL91:
 1257 0068 0194     		str	r4, [sp, #4]
 869:Libraries/STM32F10x_StdPeriph_Driver/src/stm32f10x_flash.c ****     
 1258              		.loc 1 869 0
 1259 006a 019B     		ldr	r3, [sp, #4]
 1260 006c 360C     		lsrs	r6, r6, #16
 1261              	.LVL92:
 1262 006e 1E80     		strh	r6, [r3]	@ movhi
 872:Libraries/STM32F10x_StdPeriph_Driver/src/stm32f10x_flash.c ****         
 1263              		.loc 1 872 0
 1264 0070 4FF40050 		mov	r0, #8192
 1265              	.LVL93:
 1266 0074 A847     		blx	r5
 1267              	.LVL94:
 874:Libraries/STM32F10x_StdPeriph_Driver/src/stm32f10x_flash.c ****       {
 1268              		.loc 1 874 0
 1269 0076 0528     		cmp	r0, #5
 1270 0078 EED1     		bne	.L160
 1271 007a D2E7     		b	.L151
 1272              	.L165:
 1273              		.align	2
 1274              	.L164:
 1275 007c FEFF0F00 		.word	1048574
 1276 0080 00000000 		.word	FLASH_WaitForLastOperation
 1277 0084 00000000 		.word	assert_failed
 1278 0088 00000000 		.word	.LC0
 1279 008c 00200240 		.word	1073881088
 1280              		.cfi_endproc
 1281              	.LFE40:
 1283              		.section	.text.FLASH_ProgramHalfWord,"ax",%progbits
 1284              		.align	1
 1285              		.p2align 2,,3
 1286              		.global	FLASH_ProgramHalfWord
 1287              		.syntax unified
 1288              		.thumb
 1289              		.thumb_func
 1290              		.fpu softvfp
 1292              	FLASH_ProgramHalfWord:
 1293              	.LFB41:
 904:Libraries/STM32F10x_StdPeriph_Driver/src/stm32f10x_flash.c ****   FLASH_Status status = FLASH_COMPLETE;
 1294              		.loc 1 904 0
 1295              		.cfi_startproc
 1296              		@ args = 0, pretend = 0, frame = 0
 1297              		@ frame_needed = 0, uses_anonymous_args = 0
 1298              	.LVL95:
 1299 0000 F8B5     		push	{r3, r4, r5, r6, r7, lr}
 1300              		.cfi_def_cfa_offset 24
 1301              		.cfi_offset 3, -24
 1302              		.cfi_offset 4, -20
 1303              		.cfi_offset 5, -16
 1304              		.cfi_offset 6, -12
 1305              		.cfi_offset 7, -8
 1306              		.cfi_offset 14, -4
 907:Libraries/STM32F10x_StdPeriph_Driver/src/stm32f10x_flash.c **** 
 1307              		.loc 1 907 0
 1308 0002 124B     		ldr	r3, .L175
 1309 0004 00F17842 		add	r2, r0, #-134217728
 1310 0008 9A42     		cmp	r2, r3
 904:Libraries/STM32F10x_StdPeriph_Driver/src/stm32f10x_flash.c ****   FLASH_Status status = FLASH_COMPLETE;
 1311              		.loc 1 904 0
 1312 000a 0546     		mov	r5, r0
 1313 000c 0E46     		mov	r6, r1
 907:Libraries/STM32F10x_StdPeriph_Driver/src/stm32f10x_flash.c **** 
 1314              		.loc 1 907 0
 1315 000e 17D8     		bhi	.L173
 1316              	.LVL96:
 1317              	.L167:
 949:Libraries/STM32F10x_StdPeriph_Driver/src/stm32f10x_flash.c ****   
 1318              		.loc 1 949 0
 1319 0010 4FF40050 		mov	r0, #8192
 1320 0014 0E4C     		ldr	r4, .L175+4
 1321 0016 A047     		blx	r4
 1322              	.LVL97:
 951:Libraries/STM32F10x_StdPeriph_Driver/src/stm32f10x_flash.c ****   {
 1323              		.loc 1 951 0
 1324 0018 0428     		cmp	r0, #4
 1325 001a 00D0     		beq	.L174
 1326              	.L168:
 969:Libraries/STM32F10x_StdPeriph_Driver/src/stm32f10x_flash.c **** 
 1327              		.loc 1 969 0
 1328 001c F8BD     		pop	{r3, r4, r5, r6, r7, pc}
 1329              	.LVL98:
 1330              	.L174:
 954:Libraries/STM32F10x_StdPeriph_Driver/src/stm32f10x_flash.c ****   
 1331              		.loc 1 954 0
 1332 001e 0D4F     		ldr	r7, .L175+8
 958:Libraries/STM32F10x_StdPeriph_Driver/src/stm32f10x_flash.c ****     if(status != FLASH_TIMEOUT)
 1333              		.loc 1 958 0
 1334 0020 4FF40050 		mov	r0, #8192
 1335              	.LVL99:
 954:Libraries/STM32F10x_StdPeriph_Driver/src/stm32f10x_flash.c ****   
 1336              		.loc 1 954 0
 1337 0024 3B69     		ldr	r3, [r7, #16]
 1338 0026 43F00103 		orr	r3, r3, #1
 1339 002a 3B61     		str	r3, [r7, #16]
 956:Libraries/STM32F10x_StdPeriph_Driver/src/stm32f10x_flash.c ****     /* Wait for last operation to be completed */
 1340              		.loc 1 956 0
 1341 002c 2E80     		strh	r6, [r5]	@ movhi
 958:Libraries/STM32F10x_StdPeriph_Driver/src/stm32f10x_flash.c ****     if(status != FLASH_TIMEOUT)
 1342              		.loc 1 958 0
 1343 002e A047     		blx	r4
 1344              	.LVL100:
 959:Libraries/STM32F10x_StdPeriph_Driver/src/stm32f10x_flash.c ****     {
 1345              		.loc 1 959 0
 1346 0030 0528     		cmp	r0, #5
 1347 0032 F3D0     		beq	.L168
 962:Libraries/STM32F10x_StdPeriph_Driver/src/stm32f10x_flash.c ****     }
 1348              		.loc 1 962 0
 1349 0034 41F6FE72 		movw	r2, #8190
 1350 0038 3B69     		ldr	r3, [r7, #16]
 1351 003a 1340     		ands	r3, r3, r2
 1352 003c 3B61     		str	r3, [r7, #16]
 969:Libraries/STM32F10x_StdPeriph_Driver/src/stm32f10x_flash.c **** 
 1353              		.loc 1 969 0
 1354 003e F8BD     		pop	{r3, r4, r5, r6, r7, pc}
 1355              	.LVL101:
 1356              	.L173:
 907:Libraries/STM32F10x_StdPeriph_Driver/src/stm32f10x_flash.c **** 
 1357              		.loc 1 907 0 discriminator 1
 1358 0040 40F28B31 		movw	r1, #907
 1359              	.LVL102:
 1360 0044 044B     		ldr	r3, .L175+12
 1361 0046 0548     		ldr	r0, .L175+16
 1362              	.LVL103:
 1363 0048 9847     		blx	r3
 1364              	.LVL104:
 1365 004a E1E7     		b	.L167
 1366              	.L176:
 1367              		.align	2
 1368              	.L175:
 1369 004c FEFF0F00 		.word	1048574
 1370 0050 00000000 		.word	FLASH_WaitForLastOperation
 1371 0054 00200240 		.word	1073881088
 1372 0058 00000000 		.word	assert_failed
 1373 005c 00000000 		.word	.LC0
 1374              		.cfi_endproc
 1375              	.LFE41:
 1377              		.section	.text.FLASH_ProgramOptionByteData,"ax",%progbits
 1378              		.align	1
 1379              		.p2align 2,,3
 1380              		.global	FLASH_ProgramOptionByteData
 1381              		.syntax unified
 1382              		.thumb
 1383              		.thumb_func
 1384              		.fpu softvfp
 1386              	FLASH_ProgramOptionByteData:
 1387              	.LFB42:
 981:Libraries/STM32F10x_StdPeriph_Driver/src/stm32f10x_flash.c ****   FLASH_Status status = FLASH_COMPLETE;
 1388              		.loc 1 981 0
 1389              		.cfi_startproc
 1390              		@ args = 0, pretend = 0, frame = 0
 1391              		@ frame_needed = 0, uses_anonymous_args = 0
 1392              	.LVL105:
 1393 0000 F8B5     		push	{r3, r4, r5, r6, r7, lr}
 1394              		.cfi_def_cfa_offset 24
 1395              		.cfi_offset 3, -24
 1396              		.cfi_offset 4, -20
 1397              		.cfi_offset 5, -16
 1398              		.cfi_offset 6, -12
 1399              		.cfi_offset 7, -8
 1400              		.cfi_offset 14, -4
 984:Libraries/STM32F10x_StdPeriph_Driver/src/stm32f10x_flash.c ****   status = FLASH_WaitForLastOperation(ProgramTimeout);
 1401              		.loc 1 984 0
 1402 0002 144B     		ldr	r3, .L185
 1403 0004 20F00202 		bic	r2, r0, #2
 1404 0008 9A42     		cmp	r2, r3
 981:Libraries/STM32F10x_StdPeriph_Driver/src/stm32f10x_flash.c ****   FLASH_Status status = FLASH_COMPLETE;
 1405              		.loc 1 981 0
 1406 000a 0546     		mov	r5, r0
 1407 000c 0E46     		mov	r6, r1
 984:Libraries/STM32F10x_StdPeriph_Driver/src/stm32f10x_flash.c ****   status = FLASH_WaitForLastOperation(ProgramTimeout);
 1408              		.loc 1 984 0
 1409 000e 04D0     		beq	.L178
 984:Libraries/STM32F10x_StdPeriph_Driver/src/stm32f10x_flash.c ****   status = FLASH_WaitForLastOperation(ProgramTimeout);
 1410              		.loc 1 984 0 is_stmt 0 discriminator 2
 1411 0010 4FF47671 		mov	r1, #984
 1412              	.LVL106:
 1413 0014 1048     		ldr	r0, .L185+4
 1414              	.LVL107:
 1415 0016 114B     		ldr	r3, .L185+8
 1416 0018 9847     		blx	r3
 1417              	.LVL108:
 1418              	.L178:
 985:Libraries/STM32F10x_StdPeriph_Driver/src/stm32f10x_flash.c **** 
 1419              		.loc 1 985 0 is_stmt 1
 1420 001a 4FF40050 		mov	r0, #8192
 1421 001e 104C     		ldr	r4, .L185+12
 1422 0020 A047     		blx	r4
 1423              	.LVL109:
 987:Libraries/STM32F10x_StdPeriph_Driver/src/stm32f10x_flash.c ****   {
 1424              		.loc 1 987 0
 1425 0022 0428     		cmp	r0, #4
 1426 0024 00D0     		beq	.L184
 1427              	.L179:
1006:Libraries/STM32F10x_StdPeriph_Driver/src/stm32f10x_flash.c **** 
 1428              		.loc 1 1006 0
 1429 0026 F8BD     		pop	{r3, r4, r5, r6, r7, pc}
 1430              	.LVL110:
 1431              	.L184:
 990:Libraries/STM32F10x_StdPeriph_Driver/src/stm32f10x_flash.c ****     FLASH->OPTKEYR = FLASH_KEY2;
 1432              		.loc 1 990 0
 1433 0028 0E4F     		ldr	r7, .L185+16
 1434 002a 0F4A     		ldr	r2, .L185+20
 991:Libraries/STM32F10x_StdPeriph_Driver/src/stm32f10x_flash.c ****     /* Enables the Option Bytes Programming operation */
 1435              		.loc 1 991 0
 1436 002c 0F4B     		ldr	r3, .L185+24
 990:Libraries/STM32F10x_StdPeriph_Driver/src/stm32f10x_flash.c ****     FLASH->OPTKEYR = FLASH_KEY2;
 1437              		.loc 1 990 0
 1438 002e BA60     		str	r2, [r7, #8]
 991:Libraries/STM32F10x_StdPeriph_Driver/src/stm32f10x_flash.c ****     /* Enables the Option Bytes Programming operation */
 1439              		.loc 1 991 0
 1440 0030 BB60     		str	r3, [r7, #8]
 993:Libraries/STM32F10x_StdPeriph_Driver/src/stm32f10x_flash.c ****     *(__IO uint16_t*)Address = Data;
 1441              		.loc 1 993 0
 1442 0032 3B69     		ldr	r3, [r7, #16]
 994:Libraries/STM32F10x_StdPeriph_Driver/src/stm32f10x_flash.c ****     
 1443              		.loc 1 994 0
 1444 0034 B6B2     		uxth	r6, r6
 993:Libraries/STM32F10x_StdPeriph_Driver/src/stm32f10x_flash.c ****     *(__IO uint16_t*)Address = Data;
 1445              		.loc 1 993 0
 1446 0036 43F01003 		orr	r3, r3, #16
 1447 003a 3B61     		str	r3, [r7, #16]
 997:Libraries/STM32F10x_StdPeriph_Driver/src/stm32f10x_flash.c ****     if(status != FLASH_TIMEOUT)
 1448              		.loc 1 997 0
 1449 003c 4FF40050 		mov	r0, #8192
 1450              	.LVL111:
 994:Libraries/STM32F10x_StdPeriph_Driver/src/stm32f10x_flash.c ****     
 1451              		.loc 1 994 0
 1452 0040 2E80     		strh	r6, [r5]	@ movhi
 997:Libraries/STM32F10x_StdPeriph_Driver/src/stm32f10x_flash.c ****     if(status != FLASH_TIMEOUT)
 1453              		.loc 1 997 0
 1454 0042 A047     		blx	r4
 1455              	.LVL112:
 998:Libraries/STM32F10x_StdPeriph_Driver/src/stm32f10x_flash.c ****     {
 1456              		.loc 1 998 0
 1457 0044 0528     		cmp	r0, #5
 1458 0046 EED0     		beq	.L179
1001:Libraries/STM32F10x_StdPeriph_Driver/src/stm32f10x_flash.c ****     }
 1459              		.loc 1 1001 0
 1460 0048 41F6EF72 		movw	r2, #8175
 1461 004c 3B69     		ldr	r3, [r7, #16]
 1462 004e 1340     		ands	r3, r3, r2
 1463 0050 3B61     		str	r3, [r7, #16]
1006:Libraries/STM32F10x_StdPeriph_Driver/src/stm32f10x_flash.c **** 
 1464              		.loc 1 1006 0
 1465 0052 F8BD     		pop	{r3, r4, r5, r6, r7, pc}
 1466              	.LVL113:
 1467              	.L186:
 1468              		.align	2
 1469              	.L185:
 1470 0054 04F8FF1F 		.word	536868868
 1471 0058 00000000 		.word	.LC0
 1472 005c 00000000 		.word	assert_failed
 1473 0060 00000000 		.word	FLASH_WaitForLastOperation
 1474 0064 00200240 		.word	1073881088
 1475 0068 23016745 		.word	1164378403
 1476 006c AB89EFCD 		.word	-839939669
 1477              		.cfi_endproc
 1478              	.LFE42:
 1480              		.section	.text.FLASH_EnableWriteProtection,"ax",%progbits
 1481              		.align	1
 1482              		.p2align 2,,3
 1483              		.global	FLASH_EnableWriteProtection
 1484              		.syntax unified
 1485              		.thumb
 1486              		.thumb_func
 1487              		.fpu softvfp
 1489              	FLASH_EnableWriteProtection:
 1490              	.LFB43:
1027:Libraries/STM32F10x_StdPeriph_Driver/src/stm32f10x_flash.c ****   uint16_t WRP0_Data = 0xFFFF, WRP1_Data = 0xFFFF, WRP2_Data = 0xFFFF, WRP3_Data = 0xFFFF;
 1491              		.loc 1 1027 0
 1492              		.cfi_startproc
 1493              		@ args = 0, pretend = 0, frame = 0
 1494              		@ frame_needed = 0, uses_anonymous_args = 0
 1495              	.LVL114:
 1496 0000 38B5     		push	{r3, r4, r5, lr}
 1497              		.cfi_def_cfa_offset 16
 1498              		.cfi_offset 3, -16
 1499              		.cfi_offset 4, -12
 1500              		.cfi_offset 5, -8
 1501              		.cfi_offset 14, -4
1033:Libraries/STM32F10x_StdPeriph_Driver/src/stm32f10x_flash.c ****   
 1502              		.loc 1 1033 0
 1503 0002 20B3     		cbz	r0, .L211
 1504 0004 0446     		mov	r4, r0
 1505              	.LVL115:
1042:Libraries/STM32F10x_StdPeriph_Driver/src/stm32f10x_flash.c ****   
 1506              		.loc 1 1042 0
 1507 0006 2E4D     		ldr	r5, .L213
 1508 0008 4FF40050 		mov	r0, #8192
 1509              	.LVL116:
 1510 000c A847     		blx	r5
 1511              	.LVL117:
1044:Libraries/STM32F10x_StdPeriph_Driver/src/stm32f10x_flash.c ****   {
 1512              		.loc 1 1044 0
 1513 000e 0428     		cmp	r0, #4
 1514 0010 00D0     		beq	.L212
 1515              	.LVL118:
 1516              	.L200:
1088:Libraries/STM32F10x_StdPeriph_Driver/src/stm32f10x_flash.c **** 
 1517              		.loc 1 1088 0
 1518 0012 38BD     		pop	{r3, r4, r5, pc}
 1519              	.LVL119:
 1520              	.L212:
1035:Libraries/STM32F10x_StdPeriph_Driver/src/stm32f10x_flash.c ****   WRP0_Data = (uint16_t)(FLASH_Pages & WRP0_Mask);
 1521              		.loc 1 1035 0
 1522 0014 E443     		mvns	r4, r4
 1523              	.LVL120:
1047:Libraries/STM32F10x_StdPeriph_Driver/src/stm32f10x_flash.c ****     FLASH->OPTKEYR = FLASH_KEY2;
 1524              		.loc 1 1047 0
 1525 0016 2B4B     		ldr	r3, .L213+4
 1526 0018 2B49     		ldr	r1, .L213+8
1048:Libraries/STM32F10x_StdPeriph_Driver/src/stm32f10x_flash.c ****     FLASH->CR |= CR_OPTPG_Set;
 1527              		.loc 1 1048 0
 1528 001a 2C4A     		ldr	r2, .L213+12
1047:Libraries/STM32F10x_StdPeriph_Driver/src/stm32f10x_flash.c ****     FLASH->OPTKEYR = FLASH_KEY2;
 1529              		.loc 1 1047 0
 1530 001c 9960     		str	r1, [r3, #8]
1048:Libraries/STM32F10x_StdPeriph_Driver/src/stm32f10x_flash.c ****     FLASH->CR |= CR_OPTPG_Set;
 1531              		.loc 1 1048 0
 1532 001e 9A60     		str	r2, [r3, #8]
1049:Libraries/STM32F10x_StdPeriph_Driver/src/stm32f10x_flash.c ****     if(WRP0_Data != 0xFF)
 1533              		.loc 1 1049 0
 1534 0020 1A69     		ldr	r2, [r3, #16]
1036:Libraries/STM32F10x_StdPeriph_Driver/src/stm32f10x_flash.c ****   WRP1_Data = (uint16_t)((FLASH_Pages & WRP1_Mask) >> 8);
 1535              		.loc 1 1036 0
 1536 0022 E1B2     		uxtb	r1, r4
1049:Libraries/STM32F10x_StdPeriph_Driver/src/stm32f10x_flash.c ****     if(WRP0_Data != 0xFF)
 1537              		.loc 1 1049 0
 1538 0024 42F01002 		orr	r2, r2, #16
1050:Libraries/STM32F10x_StdPeriph_Driver/src/stm32f10x_flash.c ****     {
 1539              		.loc 1 1050 0
 1540 0028 FF29     		cmp	r1, #255
1049:Libraries/STM32F10x_StdPeriph_Driver/src/stm32f10x_flash.c ****     if(WRP0_Data != 0xFF)
 1541              		.loc 1 1049 0
 1542 002a 1A61     		str	r2, [r3, #16]
1050:Libraries/STM32F10x_StdPeriph_Driver/src/stm32f10x_flash.c ****     {
 1543              		.loc 1 1050 0
 1544 002c 3AD0     		beq	.L194
1052:Libraries/STM32F10x_StdPeriph_Driver/src/stm32f10x_flash.c ****       
 1545              		.loc 1 1052 0
 1546 002e 284B     		ldr	r3, .L213+16
1055:Libraries/STM32F10x_StdPeriph_Driver/src/stm32f10x_flash.c ****     }
 1547              		.loc 1 1055 0
 1548 0030 4FF40050 		mov	r0, #8192
 1549              	.LVL121:
1052:Libraries/STM32F10x_StdPeriph_Driver/src/stm32f10x_flash.c ****       
 1550              		.loc 1 1052 0
 1551 0034 1981     		strh	r1, [r3, #8]	@ movhi
1055:Libraries/STM32F10x_StdPeriph_Driver/src/stm32f10x_flash.c ****     }
 1552              		.loc 1 1055 0
 1553 0036 A847     		blx	r5
 1554              	.LVL122:
1057:Libraries/STM32F10x_StdPeriph_Driver/src/stm32f10x_flash.c ****     {
 1555              		.loc 1 1057 0
 1556 0038 0428     		cmp	r0, #4
 1557 003a 33D0     		beq	.L194
 1558              	.LVL123:
 1559              	.L195:
1080:Libraries/STM32F10x_StdPeriph_Driver/src/stm32f10x_flash.c ****     {
 1560              		.loc 1 1080 0
 1561 003c 0528     		cmp	r0, #5
 1562 003e E8D0     		beq	.L200
 1563              	.LVL124:
 1564              	.L196:
1083:Libraries/STM32F10x_StdPeriph_Driver/src/stm32f10x_flash.c ****     }
 1565              		.loc 1 1083 0
 1566 0040 41F6EF71 		movw	r1, #8175
 1567 0044 1F4A     		ldr	r2, .L213+4
 1568 0046 1369     		ldr	r3, [r2, #16]
 1569 0048 0B40     		ands	r3, r3, r1
 1570 004a 1361     		str	r3, [r2, #16]
 1571              	.LVL125:
1088:Libraries/STM32F10x_StdPeriph_Driver/src/stm32f10x_flash.c **** 
 1572              		.loc 1 1088 0
 1573 004c 38BD     		pop	{r3, r4, r5, pc}
 1574              	.LVL126:
 1575              	.L211:
1033:Libraries/STM32F10x_StdPeriph_Driver/src/stm32f10x_flash.c ****   
 1576              		.loc 1 1033 0 discriminator 1
 1577 004e 40F20941 		movw	r1, #1033
 1578 0052 204B     		ldr	r3, .L213+20
 1579 0054 2048     		ldr	r0, .L213+24
 1580              	.LVL127:
 1581 0056 9847     		blx	r3
 1582              	.LVL128:
1042:Libraries/STM32F10x_StdPeriph_Driver/src/stm32f10x_flash.c ****   
 1583              		.loc 1 1042 0 discriminator 1
 1584 0058 194D     		ldr	r5, .L213
 1585 005a 4FF40050 		mov	r0, #8192
 1586 005e A847     		blx	r5
 1587              	.LVL129:
1044:Libraries/STM32F10x_StdPeriph_Driver/src/stm32f10x_flash.c ****   {
 1588              		.loc 1 1044 0 discriminator 1
 1589 0060 0428     		cmp	r0, #4
 1590 0062 D6D1     		bne	.L200
1035:Libraries/STM32F10x_StdPeriph_Driver/src/stm32f10x_flash.c ****   WRP0_Data = (uint16_t)(FLASH_Pages & WRP0_Mask);
 1591              		.loc 1 1035 0
 1592 0064 4FF0FF34 		mov	r4, #-1
1047:Libraries/STM32F10x_StdPeriph_Driver/src/stm32f10x_flash.c ****     FLASH->OPTKEYR = FLASH_KEY2;
 1593              		.loc 1 1047 0
 1594 0068 164B     		ldr	r3, .L213+4
1048:Libraries/STM32F10x_StdPeriph_Driver/src/stm32f10x_flash.c ****     FLASH->CR |= CR_OPTPG_Set;
 1595              		.loc 1 1048 0
 1596 006a 184A     		ldr	r2, .L213+12
1047:Libraries/STM32F10x_StdPeriph_Driver/src/stm32f10x_flash.c ****     FLASH->OPTKEYR = FLASH_KEY2;
 1597              		.loc 1 1047 0
 1598 006c 1649     		ldr	r1, .L213+8
 1599 006e 9960     		str	r1, [r3, #8]
1048:Libraries/STM32F10x_StdPeriph_Driver/src/stm32f10x_flash.c ****     FLASH->CR |= CR_OPTPG_Set;
 1600              		.loc 1 1048 0
 1601 0070 9A60     		str	r2, [r3, #8]
1049:Libraries/STM32F10x_StdPeriph_Driver/src/stm32f10x_flash.c ****     if(WRP0_Data != 0xFF)
 1602              		.loc 1 1049 0
 1603 0072 1A69     		ldr	r2, [r3, #16]
 1604 0074 42F01002 		orr	r2, r2, #16
 1605 0078 1A61     		str	r2, [r3, #16]
 1606              	.LVL130:
 1607              	.L193:
1038:Libraries/STM32F10x_StdPeriph_Driver/src/stm32f10x_flash.c ****   WRP3_Data = (uint16_t)((FLASH_Pages & WRP3_Mask) >> 24);
 1608              		.loc 1 1038 0
 1609 007a C4F30743 		ubfx	r3, r4, #16, #8
1064:Libraries/STM32F10x_StdPeriph_Driver/src/stm32f10x_flash.c ****     {
 1610              		.loc 1 1064 0
 1611 007e FF2B     		cmp	r3, #255
 1612 0080 06D0     		beq	.L198
1066:Libraries/STM32F10x_StdPeriph_Driver/src/stm32f10x_flash.c ****       
 1613              		.loc 1 1066 0
 1614 0082 134A     		ldr	r2, .L213+16
1069:Libraries/STM32F10x_StdPeriph_Driver/src/stm32f10x_flash.c ****     }
 1615              		.loc 1 1069 0
 1616 0084 4FF40050 		mov	r0, #8192
 1617              	.LVL131:
1066:Libraries/STM32F10x_StdPeriph_Driver/src/stm32f10x_flash.c ****       
 1618              		.loc 1 1066 0
 1619 0088 9381     		strh	r3, [r2, #12]	@ movhi
1069:Libraries/STM32F10x_StdPeriph_Driver/src/stm32f10x_flash.c ****     }
 1620              		.loc 1 1069 0
 1621 008a A847     		blx	r5
 1622              	.LVL132:
1072:Libraries/STM32F10x_StdPeriph_Driver/src/stm32f10x_flash.c ****     {
 1623              		.loc 1 1072 0
 1624 008c 0428     		cmp	r0, #4
 1625 008e D5D1     		bne	.L195
 1626              	.L198:
1039:Libraries/STM32F10x_StdPeriph_Driver/src/stm32f10x_flash.c ****   
 1627              		.loc 1 1039 0
 1628 0090 240E     		lsrs	r4, r4, #24
1072:Libraries/STM32F10x_StdPeriph_Driver/src/stm32f10x_flash.c ****     {
 1629              		.loc 1 1072 0
 1630 0092 FF2C     		cmp	r4, #255
 1631 0094 12D0     		beq	.L199
1074:Libraries/STM32F10x_StdPeriph_Driver/src/stm32f10x_flash.c ****      
 1632              		.loc 1 1074 0
 1633 0096 0E4B     		ldr	r3, .L213+16
1039:Libraries/STM32F10x_StdPeriph_Driver/src/stm32f10x_flash.c ****   
 1634              		.loc 1 1039 0
 1635 0098 A4B2     		uxth	r4, r4
1074:Libraries/STM32F10x_StdPeriph_Driver/src/stm32f10x_flash.c ****      
 1636              		.loc 1 1074 0
 1637 009a DC81     		strh	r4, [r3, #14]	@ movhi
1077:Libraries/STM32F10x_StdPeriph_Driver/src/stm32f10x_flash.c ****     }
 1638              		.loc 1 1077 0
 1639 009c 4FF40050 		mov	r0, #8192
 1640              	.LVL133:
 1641 00a0 A847     		blx	r5
 1642              	.LVL134:
 1643 00a2 CBE7     		b	.L195
 1644              	.LVL135:
 1645              	.L194:
1037:Libraries/STM32F10x_StdPeriph_Driver/src/stm32f10x_flash.c ****   WRP2_Data = (uint16_t)((FLASH_Pages & WRP2_Mask) >> 16);
 1646              		.loc 1 1037 0
 1647 00a4 C4F30723 		ubfx	r3, r4, #8, #8
1057:Libraries/STM32F10x_StdPeriph_Driver/src/stm32f10x_flash.c ****     {
 1648              		.loc 1 1057 0
 1649 00a8 FF2B     		cmp	r3, #255
 1650 00aa E6D0     		beq	.L193
1059:Libraries/STM32F10x_StdPeriph_Driver/src/stm32f10x_flash.c ****       
 1651              		.loc 1 1059 0
 1652 00ac 084A     		ldr	r2, .L213+16
1062:Libraries/STM32F10x_StdPeriph_Driver/src/stm32f10x_flash.c ****     }
 1653              		.loc 1 1062 0
 1654 00ae 4FF40050 		mov	r0, #8192
 1655              	.LVL136:
1059:Libraries/STM32F10x_StdPeriph_Driver/src/stm32f10x_flash.c ****       
 1656              		.loc 1 1059 0
 1657 00b2 5381     		strh	r3, [r2, #10]	@ movhi
1062:Libraries/STM32F10x_StdPeriph_Driver/src/stm32f10x_flash.c ****     }
 1658              		.loc 1 1062 0
 1659 00b4 A847     		blx	r5
 1660              	.LVL137:
1064:Libraries/STM32F10x_StdPeriph_Driver/src/stm32f10x_flash.c ****     {
 1661              		.loc 1 1064 0
 1662 00b6 0428     		cmp	r0, #4
 1663 00b8 DFD0     		beq	.L193
 1664 00ba BFE7     		b	.L195
 1665              	.LVL138:
 1666              	.L199:
 1667 00bc 0420     		movs	r0, #4
 1668              	.LVL139:
 1669 00be BFE7     		b	.L196
 1670              	.L214:
 1671              		.align	2
 1672              	.L213:
 1673 00c0 00000000 		.word	FLASH_WaitForLastOperation
 1674 00c4 00200240 		.word	1073881088
 1675 00c8 23016745 		.word	1164378403
 1676 00cc AB89EFCD 		.word	-839939669
 1677 00d0 00F8FF1F 		.word	536868864
 1678 00d4 00000000 		.word	assert_failed
 1679 00d8 00000000 		.word	.LC0
 1680              		.cfi_endproc
 1681              	.LFE43:
 1683              		.section	.text.FLASH_ReadOutProtection,"ax",%progbits
 1684              		.align	1
 1685              		.p2align 2,,3
 1686              		.global	FLASH_ReadOutProtection
 1687              		.syntax unified
 1688              		.thumb
 1689              		.thumb_func
 1690              		.fpu softvfp
 1692              	FLASH_ReadOutProtection:
 1693              	.LFB44:
1101:Libraries/STM32F10x_StdPeriph_Driver/src/stm32f10x_flash.c ****   FLASH_Status status = FLASH_COMPLETE;
 1694              		.loc 1 1101 0
 1695              		.cfi_startproc
 1696              		@ args = 0, pretend = 0, frame = 0
 1697              		@ frame_needed = 0, uses_anonymous_args = 0
 1698              	.LVL140:
1104:Libraries/STM32F10x_StdPeriph_Driver/src/stm32f10x_flash.c ****   status = FLASH_WaitForLastOperation(EraseTimeout);
 1699              		.loc 1 1104 0
 1700 0000 0128     		cmp	r0, #1
1101:Libraries/STM32F10x_StdPeriph_Driver/src/stm32f10x_flash.c ****   FLASH_Status status = FLASH_COMPLETE;
 1701              		.loc 1 1101 0
 1702 0002 70B5     		push	{r4, r5, r6, lr}
 1703              		.cfi_def_cfa_offset 16
 1704              		.cfi_offset 4, -16
 1705              		.cfi_offset 5, -12
 1706              		.cfi_offset 6, -8
 1707              		.cfi_offset 14, -4
1101:Libraries/STM32F10x_StdPeriph_Driver/src/stm32f10x_flash.c ****   FLASH_Status status = FLASH_COMPLETE;
 1708              		.loc 1 1101 0
 1709 0004 0646     		mov	r6, r0
1104:Libraries/STM32F10x_StdPeriph_Driver/src/stm32f10x_flash.c ****   status = FLASH_WaitForLastOperation(EraseTimeout);
 1710              		.loc 1 1104 0
 1711 0006 04D9     		bls	.L216
1104:Libraries/STM32F10x_StdPeriph_Driver/src/stm32f10x_flash.c ****   status = FLASH_WaitForLastOperation(EraseTimeout);
